libopal.so.3.10.11:OpalFreeMessage
libopal.so.3.10.11:OpalGetMessage
libopal.so.3.10.11:OpalInitialise
libopal.so.3.10.11:OpalSendMessage
libopal.so.3.10.11:OpalShutDown
libopal.so.3.10.11:_Z10GetOpalT38v
libopal.so.3.10.11:_Z10OpalIsE164RK7PStringb
libopal.so.3.10.11:_Z11GetOpalG722v
libopal.so.3.10.11:_Z11GetOpalG728v
libopal.so.3.10.11:_Z11GetOpalG729v
libopal.so.3.10.11:_Z11GetOpalMSRPv
libopal.so.3.10.11:_Z11GetOpalT140v
libopal.so.3.10.11:_Z11GetOpaliLBCv
libopal.so.3.10.11:_Z11OpalCalcSNRPKhS0_i
libopal.so.3.10.11:_Z11featureTypei
libopal.so.3.10.11:_Z12CreateGSMCapPK22PluginCodec_DefinitionRK15OpalMediaFormati
libopal.so.3.10.11:_Z12CreateT38CapPK22PluginCodec_DefinitionRK15OpalMediaFormati
libopal.so.3.10.11:_Z12GetOpalG7221v
libopal.so.3.10.11:_Z12GetOpalG7222v
libopal.so.3.10.11:_Z12GetOpalG729Av
libopal.so.3.10.11:_Z12GetOpalG729Bv
libopal.so.3.10.11:_Z12GetOpalPCM16v
libopal.so.3.10.11:_Z12GetOpalRGB24v
libopal.so.3.10.11:_Z12GetOpalRGB32v
libopal.so.3.10.11:_Z12GetOpalSIPIMv
libopal.so.3.10.11:_Z13CreateH261CapPK22PluginCodec_DefinitionRK15OpalMediaFormati
libopal.so.3.10.11:_Z13CreateH263CapPK22PluginCodec_DefinitionRK15OpalMediaFormati
libopal.so.3.10.11:_Z13GetOpalG729ABv
libopal.so.3.10.11:_Z13GetOpalGSMAMRv
libopal.so.3.10.11:_Z13GetOpalPCM16Sv
libopal.so.3.10.11:_Z14CreateG7231CapPK22PluginCodec_DefinitionRK15OpalMediaFormati
libopal.so.3.10.11:_Z14GetOpalGSM0610v
libopal.so.3.10.11:_Z14GetOpalRFC2833v
libopal.so.3.10.11:_Z14GetOpalYUV420Pv
libopal.so.3.10.11:_Z14OpalGetVersionv
libopal.so.3.10.11:_Z15GetOpalCiscoNSEv
libopal.so.3.10.11:_Z15GetOpalG726_16Kv
libopal.so.3.10.11:_Z15GetOpalG726_24Kv
libopal.so.3.10.11:_Z15GetOpalG726_32Kv
libopal.so.3.10.11:_Z15GetOpalG726_40Kv
libopal.so.3.10.11:_Z16BuildProductNameRK15OpalProductInfo
libopal.so.3.10.11:_Z16GetOpalG7231_5k3v
libopal.so.3.10.11:_Z16GetOpalG7231_6k3v
libopal.so.3.10.11:_Z16H323TraceDumpPDUPKcbRK10PBYTEArrayRK11PASN_ObjectRK11PASN_Choicej
libopal.so.3.10.11:_Z17GetOpalG7231A_5k3v
libopal.so.3.10.11:_Z17GetOpalG7231A_6k3v
libopal.so.3.10.11:_Z18GetOpalPCM16_16KHZv
libopal.so.3.10.11:_Z18GetOpalPCM16_32KHZv
libopal.so.3.10.11:_Z18GetOpalPCM16_48KHZv
libopal.so.3.10.11:_Z18GetOpalRFC4175_RGBv
libopal.so.3.10.11:_Z18OpalGetBuildNumberv
libopal.so.3.10.11:_Z19FillOpalProductInfoRK11OpalMessageR17OpalMessageBufferR15OpalProductInfo
libopal.so.3.10.11:_Z19GetOpalPCM16S_16KHZv
libopal.so.3.10.11:_Z19GetOpalPCM16S_32KHZv
libopal.so.3.10.11:_Z19GetOpalPCM16S_48KHZv
libopal.so.3.10.11:_Z19H323SetAliasAddressRK20H323TransportAddressR17H225_AliasAddress
libopal.so.3.10.11:_Z19H323SetAliasAddressRK7PStringR17H225_AliasAddressi
libopal.so.3.10.11:_Z19OpalGetMajorVersionv
libopal.so.3.10.11:_Z19OpalGetMinorVersionv
libopal.so.3.10.11:_Z20GetOpalG711_ALAW_64Kv
libopal.so.3.10.11:_Z20GetOpalG711_ULAW_64Kv
libopal.so.3.10.11:_Z20GetOpalL16_MONO_8KHZv
libopal.so.3.10.11:_Z20OpalRFC288EventsNamev
libopal.so.3.10.11:_Z21CreateGenericAudioCapPK22PluginCodec_DefinitionRK15OpalMediaFormati
libopal.so.3.10.11:_Z21CreateGenericVideoCapPK22PluginCodec_DefinitionRK15OpalMediaFormati
libopal.so.3.10.11:_Z21GetOpalL16_MONO_16KHZv
libopal.so.3.10.11:_Z21GetOpalL16_MONO_32KHZv
libopal.so.3.10.11:_Z21GetOpalL16_MONO_48KHZv
libopal.so.3.10.11:_Z21H323SetAliasAddressesRK11PStringListR25H225_ArrayOf_AliasAddressi
libopal.so.3.10.11:_Z21H323SetAliasAddressesRK12PStringArrayR25H225_ArrayOf_AliasAddressi
libopal.so.3.10.11:_Z21H323SetAliasAddressesRK25H323TransportAddressArrayR25H225_ArrayOf_AliasAddress
libopal.so.3.10.11:_Z22GetOpalH224_H323AnnexQv
libopal.so.3.10.11:_Z22H323GetApplicationInfoR15OpalProductInfoRK21H225_VendorIdentifier
libopal.so.3.10.11:_Z23GetOpalL16_STEREO_16KHZv
libopal.so.3.10.11:_Z23GetOpalL16_STEREO_32KHZv
libopal.so.3.10.11:_Z23GetOpalL16_STEREO_48KHZv
libopal.so.3.10.11:_Z23GetOpalRFC4175_YCbCr420v
libopal.so.3.10.11:_Z23H323AddGenericParameterR29H245_ArrayOf_GenericParameterj
libopal.so.3.10.11:_Z23H323GetAliasAddressE164RK17H225_AliasAddress
libopal.so.3.10.11:_Z23H323GetAliasAddressE164RK25H225_ArrayOf_AliasAddress
libopal.so.3.10.11:_Z23H323GetGenericParameterRK29H245_ArrayOf_GenericParameterj
libopal.so.3.10.11:_Z23H323GetRTPPacketizationRK19H245_RTPPayloadType
libopal.so.3.10.11:_Z23H323SetRTPPacketizationR19H245_RTPPayloadTypeRK15OpalMediaFormatN13RTP_DataFrame12PayloadTypesE
libopal.so.3.10.11:_Z23H323SetRTPPacketizationR19H245_RTPPayloadTypeRK7PStringRK15OpalMediaFormatN13RTP_DataFrame12PayloadTypesE
libopal.so.3.10.11:_Z23H323SetRTPPacketizationR27H245_ArrayOf_RTPPayloadTypeRiRK15OpalMediaFormatN13RTP_DataFrame12PayloadTypesE
libopal.so.3.10.11:_Z25CreateNonStandardAudioCapPK22PluginCodec_DefinitionRK15OpalMediaFormati
libopal.so.3.10.11:_Z25CreateNonStandardVideoCapPK22PluginCodec_DefinitionRK15OpalMediaFormati
libopal.so.3.10.11:_Z25GetOpalH224_HDLCTunnelingv
libopal.so.3.10.11:_Z25H323GetAliasAddressStringRK17H225_AliasAddress
libopal.so.3.10.11:_Z25H323SetTransportAddressesRK13OpalTransportRK25H323TransportAddressArrayR29H225_ArrayOf_TransportAddress
libopal.so.3.10.11:_Z26H323GetAliasAddressStringsRK25H225_ArrayOf_AliasAddress
libopal.so.3.10.11:_Z27H323GetCapabilityIdentifierRK25H245_CapabilityIdentifier
libopal.so.3.10.11:_Z27H323SetCapabilityIdentifierRK7PStringR25H245_CapabilityIdentifier
libopal.so.3.10.11:_Z28H323TranslateToCallEndReasonN4Q93111CauseValuesEj
libopal.so.3.10.11:_Z29H323AddGenericParameterOctetsR29H245_ArrayOf_GenericParameterjRK10PBYTEArray
libopal.so.3.10.11:_Z29H323AddGenericParameterStringR29H245_ArrayOf_GenericParameterjRK7PString
libopal.so.3.10.11:_Z30H323AddGenericParameterBooleanR29H245_ArrayOf_GenericParameterjb
libopal.so.3.10.11:_Z30H323AddGenericParameterIntegerR29H245_ArrayOf_GenericParameterjjN19H245_ParameterValue7ChoicesE
libopal.so.3.10.11:_Z30H323GetGenericParameterBooleanRK29H245_ArrayOf_GenericParameterj
libopal.so.3.10.11:_Z30H323GetGenericParameterIntegerRK29H245_ArrayOf_GenericParameterjjN19H245_ParameterValue7ChoicesE
libopal.so.3.10.11:_Z30H323TranslateFromCallEndReasonN14OpalConnection13CallEndReasonER26H225_ReleaseCompleteReason
libopal.so.3.10.11:_Z7ReversePcm
libopal.so.3.10.11:_ZN10H224_Frame10DecodeHDLCEPKhi
libopal.so.3.10.11:_ZN10H224_Frame11SetClientIDEh
libopal.so.3.10.11:_ZN10H224_Frame12DecodeAnnexQEPKhi
libopal.so.3.10.11:_ZN10H224_Frame15SetHighPriorityEb
libopal.so.3.10.11:_ZN10H224_Frame16SetSegmentNumberEh
libopal.so.3.10.11:_ZN10H224_Frame17SetClientDataSizeEi
libopal.so.3.10.11:_ZN10H224_Frame19SetExtendedClientIDEh
libopal.so.3.10.11:_ZN10H224_Frame24SetSourceTerminalAddressEt
libopal.so.3.10.11:_ZN10H224_Frame29SetDestinationTerminalAddressEt
libopal.so.3.10.11:_ZN10H224_Frame31SetNonStandardClientInformationEhhth
libopal.so.3.10.11:_ZN10H224_Frame5SetBSEb
libopal.so.3.10.11:_ZN10H224_Frame5SetC0Eb
libopal.so.3.10.11:_ZN10H224_Frame5SetC1Eb
libopal.so.3.10.11:_ZN10H224_Frame5SetESEb
libopal.so.3.10.11:_ZN10H224_Frame9SetClientERK14OpalH224Client
libopal.so.3.10.11:_ZN10H224_FrameC1ERK14OpalH224Clienti
libopal.so.3.10.11:_ZN10H224_FrameC1Ei
libopal.so.3.10.11:_ZN10H224_FrameC2ERK14OpalH224Clienti
libopal.so.3.10.11:_ZN10H224_FrameC2Ei
libopal.so.3.10.11:_ZN10H224_FrameD0Ev
libopal.so.3.10.11:_ZN10H224_FrameD1Ev
libopal.so.3.10.11:_ZN10H224_FrameD2Ev
libopal.so.3.10.11:_ZN10H235_DHset6DecodeER11PASN_Stream
libopal.so.3.10.11:_ZN10H235_DHsetC1EjN11PASN_Object8TagClassE
libopal.so.3.10.11:_ZN10H235_DHsetC2EjN11PASN_Object8TagClassE
libopal.so.3.10.11:_ZN10H248_ValueC1EjN11PASN_Object8TagClassE
libopal.so.3.10.11:_ZN10H248_ValueC2EjN11PASN_Object8TagClassE
libopal.so.3.10.11:_ZN10H281_Frame10SetTimeoutEh
libopal.so.3.10.11:_ZN10H281_Frame12SetVideoModeENS_9VideoModeE
libopal.so.3.10.11:_ZN10H281_Frame14SetRequestTypeENS_11RequestTypeE
libopal.so.3.10.11:_ZN10H281_Frame15SetPanDirectionENS_12PanDirectionE
libopal.so.3.10.11:_ZN10H281_Frame15SetPresetNumberEh
libopal.so.3.10.11:_ZN10H281_Frame16SetTiltDirectionENS_13TiltDirectionE
libopal.so.3.10.11:_ZN10H281_Frame16SetZoomDirectionENS_13ZoomDirectionE
libopal.so.3.10.11:_ZN10H281_Frame17SetFocusDirectionENS_14FocusDirectionE
libopal.so.3.10.11:_ZN10H281_Frame20SetVideoSourceNumberEh
libopal.so.3.10.11:_ZN10H281_FrameC1Ev
libopal.so.3.10.11:_ZN10H281_FrameC2Ev
libopal.so.3.10.11:_ZN10H281_FrameD0Ev
libopal.so.3.10.11:_ZN10H281_FrameD1Ev
libopal.so.3.10.11:_ZN10H281_FrameD2Ev
libopal.so.3.10.11:_ZN10H323RasPDU16BuildInfoRequestEjjPK17PGloballyUniqueID
libopal.so.3.10.11:_ZN10H323RasPDU19BuildInfoRequestAckEj
libopal.so.3.10.11:_ZN10H323RasPDU19BuildInfoRequestNakEjj
libopal.so.3.10.11:_ZN10H323RasPDU19BuildLocationRejectEjj
libopal.so.3.10.11:_ZN10H323RasPDU20BuildAdmissionRejectEjj
libopal.so.3.10.11:_ZN10H323RasPDU20BuildBandwidthRejectEjj
libopal.so.3.10.11:_ZN10H323RasPDU20BuildDisengageRejectEjj
libopal.so.3.10.11:_ZN10H323RasPDU20BuildLocationConfirmEj
libopal.so.3.10.11:_ZN10H323RasPDU20BuildLocationRequestEj
libopal.so.3.10.11:_ZN10H323RasPDU21BuildAdmissionConfirmEj
libopal.so.3.10.11:_ZN10H323RasPDU21BuildAdmissionRequestEj
libopal.so.3.10.11:_ZN10H323RasPDU21BuildBandwidthConfirmEjj
libopal.so.3.10.11:_ZN10H323RasPDU21BuildBandwidthRequestEj
libopal.so.3.10.11:_ZN10H323RasPDU21BuildDisengageConfirmEj
libopal.so.3.10.11:_ZN10H323RasPDU21BuildDisengageRequestEj
libopal.so.3.10.11:_ZN10H323RasPDU21BuildGatekeeperRejectEjj
libopal.so.3.10.11:_ZN10H323RasPDU22BuildGatekeeperConfirmEj
libopal.so.3.10.11:_ZN10H323RasPDU22BuildGatekeeperRequestEj
libopal.so.3.10.11:_ZN10H323RasPDU22BuildRequestInProgressEjj
libopal.so.3.10.11:_ZN10H323RasPDU23BuildRegistrationRejectEjj
libopal.so.3.10.11:_ZN10H323RasPDU24BuildInfoRequestResponseEj
libopal.so.3.10.11:_ZN10H323RasPDU24BuildRegistrationConfirmEj
libopal.so.3.10.11:_ZN10H323RasPDU24BuildRegistrationRequestEj
libopal.so.3.10.11:_ZN10H323RasPDU25BuildUnregistrationRejectEjj
libopal.so.3.10.11:_ZN10H323RasPDU26BuildUnregistrationConfirmEj
libopal.so.3.10.11:_ZN10H323RasPDU26BuildUnregistrationRequestEj
libopal.so.3.10.11:_ZN10H323RasPDU27BuildServiceControlResponseEj
libopal.so.3.10.11:_ZN10H323RasPDU27BuildUnknownMessageResponseEj
libopal.so.3.10.11:_ZN10H323RasPDU29BuildServiceControlIndicationEjPK17PGloballyUniqueID
libopal.so.3.10.11:_ZN10H323RasPDU6GetPDUEv
libopal.so.3.10.11:_ZN10H323RasPDU9DeletePDUEv
libopal.so.3.10.11:_ZN10H323RasPDU9GetChoiceEv
libopal.so.3.10.11:_ZN10H323RasPDUC1ERK18H235Authenticators
libopal.so.3.10.11:_ZN10H323RasPDUC1Ev
libopal.so.3.10.11:_ZN10H323RasPDUC2ERK18H235Authenticators
libopal.so.3.10.11:_ZN10H323RasPDUC2Ev
libopal.so.3.10.11:_ZN10H4508_Name12CreateObjectEv
libopal.so.3.10.11:_ZN10H4508_NameC1EjN11PASN_Object8TagClassE
libopal.so.3.10.11:_ZN10H4508_NameC2EjN11PASN_Object8TagClassE
libopal.so.3.10.11:_ZN10H4508_NamecvR29H4508_NamePresentationAllowedEv
libopal.so.3.10.11:_ZN10H4508_NamecvR32H4508_NamePresentationRestrictedEv
libopal.so.3.10.11:_ZN10IAX2IeByteC1EhPh
libopal.so.3.10.11:_ZN10IAX2IeByteC2EhPh
libopal.so.3.10.11:_ZN10IAX2IeCharC1EhPh
libopal.so.3.10.11:_ZN10IAX2IeCharC2EhPh
libopal.so.3.10.11:_ZN10IAX2IeDataC1Ev
libopal.so.3.10.11:_ZN10IAX2IeDataC2Ev
libopal.so.3.10.11:_ZN10IAX2IeDataD0Ev
libopal.so.3.10.11:_ZN10IAX2IeDataD1Ev
libopal.so.3.10.11:_ZN10IAX2IeDataD2Ev
libopal.so.3.10.11:_ZN10IAX2IeList10RemoveIeAtEi
libopal.so.3.10.11:_ZN10IAX2IeList12RemoveLastIeEv
libopal.so.3.10.11:_ZN10IAX2IeList8DeleteAtEi
libopal.so.3.10.11:_ZN10IAX2IeListD0Ev
libopal.so.3.10.11:_ZN10IAX2IeListD1Ev
libopal.so.3.10.11:_ZN10IAX2IeListD2Ev
libopal.so.3.10.11:_ZN10IAX2IeNoneC1EhPh
libopal.so.3.10.11:_ZN10IAX2IeNoneC2EhPh
libopal.so.3.10.11:_ZN10IAX2IeUInt11WriteBinaryEPh
libopal.so.3.10.11:_ZN10IAX2IeUIntC1EhPh
libopal.so.3.10.11:_ZN10IAX2IeUIntC2EhPh
libopal.so.3.10.11:_ZN10IAX2Remote17SetDestCallNumberEi
libopal.so.3.10.11:_ZN10IAX2Remote20BuildConnectionTokenEv
libopal.so.3.10.11:_ZN10IAX2Remote23BuildOurConnectionTokenEv
libopal.so.3.10.11:_ZN10IAX2Remote6AssignERS_
libopal.so.3.10.11:_ZN10IAX2RemoteC1Ev
libopal.so.3.10.11:_ZN10IAX2RemoteC2Ev
libopal.so.3.10.11:_ZN10IAX2RemoteeqERS_
libopal.so.3.10.11:_ZN10IAX2RemotemLERS_
libopal.so.3.10.11:_ZN10IAX2RemoteneERS_
libopal.so.3.10.11:_ZN10Q922_Frame10DecodeHDLCEPKhi
libopal.so.3.10.11:_ZN10Q922_Frame12DecodeAnnexQEPKhi
libopal.so.3.10.11:_ZN10Q922_Frame23SetInformationFieldSizeEi
libopal.so.3.10.11:_ZN10Q922_FrameC1Ei
libopal.so.3.10.11:_ZN10Q922_FrameC2Ei
libopal.so.3.10.11:_ZN10Q922_FrameD0Ev
libopal.so.3.10.11:_ZN10Q922_FrameD1Ev
libopal.so.3.10.11:_ZN10Q922_FrameD2Ev
libopal.so.3.10.11:_ZN10SIPHandler10RetryLaterEj
libopal.so.3.10.11:_ZN10SIPHandler11SendRequestENS_5StateE
libopal.so.3.10.11:_ZN10SIPHandler12GetTransportEv
libopal.so.3.10.11:_ZN10SIPHandler12OnReceivedOKER14SIPTransactionR7SIP_PDU
libopal.so.3.10.11:_ZN10SIPHandler13ActivateStateENS_5StateE
libopal.so.3.10.11:_ZN10SIPHandler15OnExpireTimeoutER6PTimerl
libopal.so.3.10.11:_ZN10SIPHandler15WriteSIPHandlerER13OpalTransportPv
libopal.so.3.10.11:_ZN10SIPHandler15WriteSIPHandlerER13OpalTransportb
libopal.so.3.10.11:_ZN10SIPHandler16OnReceivedNOTIFYER7SIP_PDU
libopal.so.3.10.11:_ZN10SIPHandler18OnReceivedResponseER14SIPTransactionR7SIP_PDU
libopal.so.3.10.11:_ZN10SIPHandler19OnTransactionFailedER14SIPTransaction
libopal.so.3.10.11:_ZN10SIPHandler26OnReceivedIntervalTooBriefER14SIPTransactionR7SIP_PDU
libopal.so.3.10.11:_ZN10SIPHandler32OnReceivedAuthenticationRequiredER14SIPTransactionR7SIP_PDU
libopal.so.3.10.11:_ZN10SIPHandler32OnReceivedTemporarilyUnavailableER14SIPTransactionR7SIP_PDU
libopal.so.3.10.11:_ZN10SIPHandler8OnFailedEN7SIP_PDU11StatusCodesE
libopal.so.3.10.11:_ZN10SIPHandler8OnFailedERK7SIP_PDU
libopal.so.3.10.11:_ZN10SIPHandler8SetStateENS_5StateE
libopal.so.3.10.11:_ZN10SIPHandler8ShutDownEv
libopal.so.3.10.11:_ZN10SIPHandler9SetExpireEi
libopal.so.3.10.11:_ZN10SIPHandlerC1EN7SIP_PDU7MethodsER11SIPEndPointRK13SIPParameters
libopal.so.3.10.11:_ZN10SIPHandlerC2EN7SIP_PDU7MethodsER11SIPEndPointRK13SIPParameters
libopal.so.3.10.11:_ZN10SIPHandlerD0Ev
libopal.so.3.10.11:_ZN10SIPHandlerD1Ev
libopal.so.3.10.11:_ZN10SIPHandlerD2Ev
libopal.so.3.10.11:_ZN10SIPMessage9ConstructERKNS_6ParamsE
libopal.so.3.10.11:_ZN10SIPMessageC1ER11SIPEndPointR13OpalTransportRKNS_6ParamsE
libopal.so.3.10.11:_ZN10SIPMessageC1ER13SIPConnectionRKNS_6ParamsE
libopal.so.3.10.11:_ZN10SIPMessageC2ER11SIPEndPointR13OpalTransportRKNS_6ParamsE
libopal.so.3.10.11:_ZN10SIPMessageC2ER13SIPConnectionRKNS_6ParamsE
libopal.so.3.10.11:_ZN10SIPOptions9ConstructERKNS_6ParamsE
libopal.so.3.10.11:_ZN10SIPOptionsC1ER11SIPEndPointR13OpalTransportRK7PStringRKNS_6ParamsE
libopal.so.3.10.11:_ZN10SIPOptionsC1ER13SIPConnectionRKNS_6ParamsE
libopal.so.3.10.11:_ZN10SIPOptionsC2ER11SIPEndPointR13OpalTransportRK7PStringRKNS_6ParamsE
libopal.so.3.10.11:_ZN10SIPOptionsC2ER13SIPConnectionRKNS_6ParamsE
libopal.so.3.10.11:_ZN10SIPPublishC1ER11SIPEndPointR13OpalTransportRK7PStringS6_RKN12SIPSubscribe6ParamsES6_
libopal.so.3.10.11:_ZN10SIPPublishC2ER11SIPEndPointR13OpalTransportRK7PStringS6_RKN12SIPSubscribe6ParamsES6_
libopal.so.3.10.11:_ZN10SIPURLList10FromStringERK7PStringN6SIPURL12UsageContextEb
libopal.so.3.10.11:_ZN10SafeString12GetAndDeleteEv
libopal.so.3.10.11:_ZN10SafeStringaSE7PString
libopal.so.3.10.11:_ZN10SafeStringcv7PStringEv
libopal.so.3.10.11:_ZN10SafeStringpLE7PString
libopal.so.3.10.11:_ZN10T140String15AppendUnicode16Et
libopal.so.3.10.11:_ZN10T140String6GetUTFEPKhiRt
libopal.so.3.10.11:_ZN10T140String6GetUTFEiRt
libopal.so.3.10.11:_ZN10T140String6SetUTFEPht
libopal.so.3.10.11:_ZN10T140String8AsStringER7PString
libopal.so.3.10.11:_ZN10T140String9AppendUTFEPKhi
libopal.so.3.10.11:_ZN10T140String9GetUTFLenEt
libopal.so.3.10.11:_ZN10T140StringC1EPKc
libopal.so.3.10.11:_ZN10T140StringC1EPKhi
libopal.so.3.10.11:_ZN10T140StringC1ERK10PBYTEArray
libopal.so.3.10.11:_ZN10T140StringC1ERK7PString
libopal.so.3.10.11:_ZN10T140StringC1Ev
libopal.so.3.10.11:_ZN10T140StringC2EPKc
libopal.so.3.10.11:_ZN10T140StringC2EPKhi
libopal.so.3.10.11:_ZN10T140StringC2ERK10PBYTEArray
libopal.so.3.10.11:_ZN10T140StringC2ERK7PString
libopal.so.3.10.11:_ZN10T140StringC2Ev
libopal.so.3.10.11:_ZN10XCAPClient6GetXmlERK4PURLR4PXML
libopal.so.3.10.11:_ZN10XCAPClient6PutXmlERK4PURLRK4PXML
libopal.so.3.10.11:_ZN10XCAPClient8BuildURLEv
libopal.so.3.10.11:_ZN10XCAPClientC1Ev
libopal.so.3.10.11:_ZN10XCAPClientC2Ev
libopal.so.3.10.11:_ZN11H235AuthCAT12IsCapabilityERK28H235_AuthenticationMechanismRK13PASN_ObjectId
libopal.so.3.10.11:_ZN11H235AuthCAT13SetCapabilityER36H225_ArrayOf_AuthenticationMechanismR26H225_ArrayOf_PASN_ObjectId
libopal.so.3.10.11:_ZN11H235AuthCAT16CreateClearTokenEv
libopal.so.3.10.11:_ZN11H235AuthCAT18ValidateClearTokenERK15H235_ClearToken
libopal.so.3.10.11:_ZN11H235AuthCATC1Ev
libopal.so.3.10.11:_ZN11H235AuthCATC2Ev
libopal.so.3.10.11:_ZN11H235_Params6DecodeER11PASN_Stream
libopal.so.3.10.11:_ZN11H235_ParamsC1EjN11PASN_Object8TagClassE
libopal.so.3.10.11:_ZN11H235_ParamsC2EjN11PASN_Object8TagClassE
libopal.so.3.10.11:_ZN11H245_Params6DecodeER11PASN_Stream
libopal.so.3.10.11:_ZN11H245_ParamsC1EjN11PASN_Object8TagClassE
libopal.so.3.10.11:_ZN11H245_ParamsC2EjN11PASN_Object8TagClassE
libopal.so.3.10.11:_ZN11H245_V42bis6DecodeER11PASN_Stream
libopal.so.3.10.11:_ZN11H245_V42bisC1EjN11PASN_Object8TagClassE
libopal.so.3.10.11:_ZN11H245_V42bisC2EjN11PASN_Object8TagClassE
libopal.so.3.10.11:_ZN11H248_Signal6DecodeER11PASN_Stream
libopal.so.3.10.11:_ZN11H248_SignalC1EjN11PASN_Object8TagClassE
libopal.so.3.10.11:_ZN11H248_SignalC2EjN11PASN_Object8TagClassE
libopal.so.3.10.11:_ZN11H323Channel12SetSessionIDEj
libopal.so.3.10.11:_ZN11H323Channel13InternalCloseEv
libopal.so.3.10.11:_ZN11H323Channel13OnFlowControlEl
libopal.so.3.10.11:_ZN11H323Channel13OnReceivedPDUERK23H245_OpenLogicalChannelRj
libopal.so.3.10.11:_ZN11H323Channel14OnMediaCommandERK16OpalMediaCommand
libopal.so.3.10.11:_ZN11H323Channel16OnReceivedAckPDUERK26H245_OpenLogicalChannelAck
libopal.so.3.10.11:_ZN11H323Channel16SetBandwidthUsedEj
libopal.so.3.10.11:_ZN11H323Channel18OnJitterIndicationEjii
libopal.so.3.10.11:_ZN11H323Channel22OnMiscellaneousCommandERK30H245_MiscellaneousCommand_type
libopal.so.3.10.11:_ZN11H323Channel25OnMiscellaneousIndicationERK33H245_MiscellaneousIndication_type
libopal.so.3.10.11:_ZN11H323Channel4OpenEv
libopal.so.3.10.11:_ZN11H323Channel5CloseEv
libopal.so.3.10.11:_ZN11H323ChannelC1ER14H323ConnectionRK14H323Capability
libopal.so.3.10.11:_ZN11H323ChannelC2ER14H323ConnectionRK14H323Capability
libopal.so.3.10.11:_ZN11H323ChannelD0Ev
libopal.so.3.10.11:_ZN11H323ChannelD1Ev
libopal.so.3.10.11:_ZN11H323ChannelD2Ev
libopal.so.3.10.11:_ZN11H323_AnnexG12OnSendingPDUER11PASN_Object
libopal.so.3.10.11:_ZN11H323_AnnexG16OnReceiveUnknownERK7H501PDU
libopal.so.3.10.11:_ZN11H323_AnnexG17HandleTransactionERK11PASN_Object
libopal.so.3.10.11:_ZN11H323_AnnexG21OnReceiveUsageRequestERK7H501PDURK17H501_UsageRequest
libopal.so.3.10.11:_ZN11H323_AnnexG22OnReceiveAccessRequestERK7H501PDURK18H501_AccessRequest
libopal.so.3.10.11:_ZN11H323_AnnexG23OnReceiveServiceReleaseERK7H501PDURK19H501_ServiceRelease
libopal.so.3.10.11:_ZN11H323_AnnexG23OnReceiveServiceRequestERK7H501PDURK19H501_ServiceRequest
libopal.so.3.10.11:_ZN11H323_AnnexG23OnReceiveUsageRejectionERK7H501PDURK19H501_UsageRejection
libopal.so.3.10.11:_ZN11H323_AnnexG24OnReceiveAccessRejectionERK7H501PDURK20H501_AccessRejection
libopal.so.3.10.11:_ZN11H323_AnnexG25OnReceiveDescriptorUpdateERK7H501PDURK21H501_DescriptorUpdate
libopal.so.3.10.11:_ZN11H323_AnnexG25OnReceiveServiceRejectionERK7H501PDURK21H501_ServiceRejection
libopal.so.3.10.11:_ZN11H323_AnnexG26OnReceiveDescriptorRequestERK7H501PDURK22H501_DescriptorRequest
libopal.so.3.10.11:_ZN11H323_AnnexG26OnReceiveRequestInProgressERK7H501PDURK22H501_RequestInProgress
libopal.so.3.10.11:_ZN11H323_AnnexG26OnReceiveUsageConfirmationERK7H501PDURK22H501_UsageConfirmation
libopal.so.3.10.11:_ZN11H323_AnnexG26OnReceiveValidationRequestERK7H501PDURK22H501_ValidationRequest
libopal.so.3.10.11:_ZN11H323_AnnexG27OnReceiveAccessConfirmationERK7H501PDURK23H501_AccessConfirmation
libopal.so.3.10.11:_ZN11H323_AnnexG27OnReceiveNonStandardRequestERK7H501PDURK23H501_NonStandardRequest
libopal.so.3.10.11:_ZN11H323_AnnexG28OnReceiveDescriptorIDRequestERK7H501PDURK24H501_DescriptorIDRequest
libopal.so.3.10.11:_ZN11H323_AnnexG28OnReceiveDescriptorRejectionERK7H501PDURK24H501_DescriptorRejection
libopal.so.3.10.11:_ZN11H323_AnnexG28OnReceiveDescriptorUpdateACKERK7H501PDURK24H501_DescriptorUpdateAck
libopal.so.3.10.11:_ZN11H323_AnnexG28OnReceiveServiceConfirmationERK7H501PDURK24H501_ServiceConfirmation
libopal.so.3.10.11:_ZN11H323_AnnexG28OnReceiveValidationRejectionERK7H501PDURK24H501_ValidationRejection
libopal.so.3.10.11:_ZN11H323_AnnexG29OnReceiveNonStandardRejectionERK7H501PDURK25H501_NonStandardRejection
libopal.so.3.10.11:_ZN11H323_AnnexG30OnReceiveAuthenticationRequestERK7H501PDURK26H501_AuthenticationRequest
libopal.so.3.10.11:_ZN11H323_AnnexG30OnReceiveDescriptorIDRejectionERK7H501PDURK26H501_DescriptorIDRejection
libopal.so.3.10.11:_ZN11H323_AnnexG31OnReceiveDescriptorConfirmationERK7H501PDURK27H501_DescriptorConfirmation
libopal.so.3.10.11:_ZN11H323_AnnexG31OnReceiveUnknownMessageResponseERK7H501PDURK27H501_UnknownMessageResponse
libopal.so.3.10.11:_ZN11H323_AnnexG31OnReceiveValidationConfirmationERK7H501PDURK27H501_ValidationConfirmation
libopal.so.3.10.11:_ZN11H323_AnnexG32OnReceiveAuthenticationRejectionERK7H501PDURK28H501_AuthenticationRejection
libopal.so.3.10.11:_ZN11H323_AnnexG32OnReceiveNonStandardConfirmationERK7H501PDURK28H501_NonStandardConfirmation
libopal.so.3.10.11:_ZN11H323_AnnexG33OnReceiveDescriptorIDConfirmationERK7H501PDURK29H501_DescriptorIDConfirmation
libopal.so.3.10.11:_ZN11H323_AnnexG33OnReceiveUsageIndicationRejectionERK7H501PDURK29H501_UsageIndicationRejection
libopal.so.3.10.11:_ZN11H323_AnnexG35OnReceiveAuthenticationConfirmationERK7H501PDURK31H501_AuthenticationConfirmation
libopal.so.3.10.11:_ZN11H323_AnnexG36OnReceiveUsageIndicationConfirmationERK7H501PDURK32H501_UsageIndicationConfirmation
libopal.so.3.10.11:_ZN11H323_AnnexG9ConstructEv
libopal.so.3.10.11:_ZN11H323_AnnexGC1ER12H323EndPointP13OpalTransport
libopal.so.3.10.11:_ZN11H323_AnnexGC1ER12H323EndPointRK20H323TransportAddress
libopal.so.3.10.11:_ZN11H323_AnnexGC2ER12H323EndPointP13OpalTransport
libopal.so.3.10.11:_ZN11H323_AnnexGC2ER12H323EndPointRK20H323TransportAddress
libopal.so.3.10.11:_ZN11H323_AnnexGD0Ev
libopal.so.3.10.11:_ZN11H323_AnnexGD1Ev
libopal.so.3.10.11:_ZN11H323_AnnexGD2Ev
libopal.so.3.10.11:_ZN11H4509_CcArg12CreateObjectEv
libopal.so.3.10.11:_ZN11H4509_CcArgC1EjN11PASN_Object8TagClassE
libopal.so.3.10.11:_ZN11H4509_CcArgC2EjN11PASN_Object8TagClassE
libopal.so.3.10.11:_ZN11H4509_CcArgcvR15H4509_CcLongArgEv
libopal.so.3.10.11:_ZN11H4509_CcArgcvR16H4509_CcShortArgEv
libopal.so.3.10.11:_ZN11IAX2IeShort11WriteBinaryEPh
libopal.so.3.10.11:_ZN11IAX2IeShortC1EhPh
libopal.so.3.10.11:_ZN11IAX2IeShortC2EhPh
libopal.so.3.10.11:_ZN11OpalContext10AnswerCallEPKc
libopal.so.3.10.11:_ZN11OpalContext10GetMessageER14OpalMessagePtrj
libopal.so.3.10.11:_ZN11OpalContext10InitialiseEPKcj
libopal.so.3.10.11:_ZN11OpalContext11SendMessageERK14OpalMessagePtrRS0_
libopal.so.3.10.11:_ZN11OpalContext13SendUserInputEPKcS1_j
libopal.so.3.10.11:_ZN11OpalContext8ShutDownEv
libopal.so.3.10.11:_ZN11OpalContext9ClearCallEPKc17OpalCallEndReason
libopal.so.3.10.11:_ZN11OpalContext9SetUpCallER14OpalMessagePtrPKcS3_S3_
libopal.so.3.10.11:_ZN11OpalContextC1Ev
libopal.so.3.10.11:_ZN11OpalContextC2Ev
libopal.so.3.10.11:_ZN11OpalContextD0Ev
libopal.so.3.10.11:_ZN11OpalContextD1Ev
libopal.so.3.10.11:_ZN11OpalContextD2Ev
libopal.so.3.10.11:_ZN11OpalManager10CreateCallEPv
libopal.so.3.10.11:_ZN11OpalManager10OnAlertingER14OpalConnection
libopal.so.3.10.11:_ZN11OpalManager10OnReleasedER14OpalConnection
libopal.so.3.10.11:_ZN11OpalManager10RouteEntryC1ERK7PStringS3_
libopal.so.3.10.11:_ZN11OpalManager10RouteEntryC2ERK7PStringS3_
libopal.so.3.10.11:_ZN11OpalManager11DestroyCallEP8OpalCall
libopal.so.3.10.11:_ZN11OpalManager11GarbageMainER7PThreadl
libopal.so.3.10.11:_ZN11OpalManager11IsRecordingERK7PString
libopal.so.3.10.11:_ZN11OpalManager11OnConnectedER14OpalConnection
libopal.so.3.10.11:_ZN11OpalManager11OnForwardedER14OpalConnectionRK7PString
libopal.so.3.10.11:_ZN11OpalManager11SetTCPPortsEjj
libopal.so.3.10.11:_ZN11OpalManager11SetUDPPortsEjj
libopal.so.3.10.11:_ZN11OpalManager12FindEndPointERK7PString
libopal.so.3.10.11:_ZN11OpalManager12GetNextTokenEc
libopal.so.3.10.11:_ZN11OpalManager12OnAnswerCallER14OpalConnectionRK7PString
libopal.so.3.10.11:_ZN11OpalManager12OnProceedingER14OpalConnection
libopal.so.3.10.11:_ZN11OpalManager13AddPresentityERK7PString
libopal.so.3.10.11:_ZN11OpalManager13AddRouteEntryERK7PString
libopal.so.3.10.11:_ZN11OpalManager13ClearAllCallsEN14OpalConnection13CallEndReasonEb
libopal.so.3.10.11:_ZN11OpalManager13GetPresentityERK7PString11PSafetyMode
libopal.so.3.10.11:_ZN11OpalManager13OnClearedCallER8OpalCall
libopal.so.3.10.11:_ZN11OpalManager13OnEstablishedER14OpalConnection
libopal.so.3.10.11:_ZN11OpalManager13OnMWIReceivedERK7PStringNS_18MessageWaitingTypeES2_
libopal.so.3.10.11:_ZN11OpalManager13ReadUserInputER14OpalConnectionPKcjj
libopal.so.3.10.11:_ZN11OpalManager13SetRouteTableERK12PStringArray
libopal.so.3.10.11:_ZN11OpalManager13SetRouteTableERK6PArrayINS_10RouteEntryEE
libopal.so.3.10.11:_ZN11OpalManager13SetRtpIpPortsEjj
libopal.so.3.10.11:_ZN11OpalManager13SetSTUNServerERK7PString
libopal.so.3.10.11:_ZN11OpalManager13StopRecordingERK7PString
libopal.so.3.10.11:_ZN11OpalManager14AttachEndPointEP12OpalEndPointRK7PString
libopal.so.3.10.11:_ZN11OpalManager14DetachEndPointEP12OpalEndPoint
libopal.so.3.10.11:_ZN11OpalManager14DetachEndPointERK7PString
libopal.so.3.10.11:_ZN11OpalManager14GetNextTCPPortEv
libopal.so.3.10.11:_ZN11OpalManager14GetNextUDPPortEv
libopal.so.3.10.11:_ZN11OpalManager14MakeConnectionER8OpalCallRK7PStringPvjPN14OpalConnection13StringOptionsE
libopal.so.3.10.11:_ZN11OpalManager14SetProductInfoERK15OpalProductInfob
libopal.so.3.10.11:_ZN11OpalManager14StartRecordingERK7PStringRK9PFilePathRKN17OpalRecordManager7OptionsE
libopal.so.3.10.11:_ZN11OpalManager15ApplyRouteTableERK7PStringS2_Ri
libopal.so.3.10.11:_ZN11OpalManager15IsRTPNATEnabledER14OpalConnectionRKN9PIPSocket7AddressES5_S5_b
libopal.so.3.10.11:_ZN11OpalManager15OnNewConnectionER14OpalConnection
libopal.so.3.10.11:_ZN11OpalManager15OnRTPStatisticsERK14OpalConnectionRK11RTP_Session
libopal.so.3.10.11:_ZN11OpalManager15OnUserInputToneER14OpalConnectionci
libopal.so.3.10.11:_ZN11OpalManager16CreateMediaPatchER15OpalMediaStreamb
libopal.so.3.10.11:_ZN11OpalManager16CreateRTPSessionERKN11RTP_Session6ParamsE
libopal.so.3.10.11:_ZN11OpalManager16GetRtpIpPortPairEv
libopal.so.3.10.11:_ZN11OpalManager16InterfaceMonitor14OnAddInterfaceERKN9PIPSocket14InterfaceEntryE
libopal.so.3.10.11:_ZN11OpalManager16InterfaceMonitor17OnRemoveInterfaceERKN9PIPSocket14InterfaceEntryE
libopal.so.3.10.11:_ZN11OpalManager16InterfaceMonitorC1ERS_
libopal.so.3.10.11:_ZN11OpalManager16InterfaceMonitorC2ERS_
libopal.so.3.10.11:_ZN11OpalManager16OnStopMediaPatchER14OpalConnectionR14OpalMediaPatch
libopal.so.3.10.11:_ZN11OpalManager16OnTransferNotifyER14OpalConnectionRK15PStringToString
libopal.so.3.10.11:_ZN11OpalManager16RemovePresentityERK7PString
libopal.so.3.10.11:_ZN11OpalManager17GarbageCollectionEv
libopal.so.3.10.11:_ZN11OpalManager17IsCallEstablishedERK7PString
libopal.so.3.10.11:_ZN11OpalManager17OnEstablishedCallER8OpalCall
libopal.so.3.10.11:_ZN11OpalManager17OnMessageReceivedERK6OpalIM
libopal.so.3.10.11:_ZN11OpalManager17OnOpenMediaStreamER14OpalConnectionR15OpalMediaStream
libopal.so.3.10.11:_ZN11OpalManager17OnRouteConnectionER10PStringSetRK7PStringS4_R8OpalCalljPN14OpalConnection13StringOptionsE
libopal.so.3.10.11:_ZN11OpalManager17OnStartMediaPatchER14OpalConnectionR14OpalMediaPatch
libopal.so.3.10.11:_ZN11OpalManager17OnUserInputStringER14OpalConnectionRK7PString
libopal.so.3.10.11:_ZN11OpalManager17SetNoMediaTimeoutERK13PTimeInterval
libopal.so.3.10.11:_ZN11OpalManager17ShutDownEndpointsEv
libopal.so.3.10.11:_ZN11OpalManager18InternalCreateCallEv
libopal.so.3.10.11:_ZN11OpalManager18SetDefaultUserNameERK7PStringb
libopal.so.3.10.11:_ZN11OpalManager18SetMediaFormatMaskERK12PStringArray
libopal.so.3.10.11:_ZN11OpalManager18SetTranslationHostERK7PString
libopal.so.3.10.11:_ZN11OpalManager18TranslateIPAddressERN9PIPSocket7AddressERKS1_
libopal.so.3.10.11:_ZN11OpalManager19OnClosedMediaStreamERK15OpalMediaStream
libopal.so.3.10.11:_ZN11OpalManager19SetAudioJitterDelayEjj
libopal.so.3.10.11:_ZN11OpalManager19SetMediaFormatOrderERK12PStringArray
libopal.so.3.10.11:_ZN11OpalManager19SetMediaPassThroughER14OpalConnectionS1_bj
libopal.so.3.10.11:_ZN11OpalManager19SetMediaPassThroughERK7PStringS2_bjb
libopal.so.3.10.11:_ZN11OpalManager19SetVideoInputDeviceERKN12PVideoDevice8OpenArgsE
libopal.so.3.10.11:_ZN11OpalManager20ClearCallSynchronousERK7PStringN14OpalConnection13CallEndReasonE
libopal.so.3.10.11:_ZN11OpalManager20OnApplyStringOptionsER14OpalConnectionRNS0_13StringOptionsE
libopal.so.3.10.11:_ZN11OpalManager20OnIncomingConnectionER14OpalConnectionjPNS0_13StringOptionsE
libopal.so.3.10.11:_ZN11OpalManager20SetVideoOutputDeviceERKN12PVideoDevice8OpenArgsE
libopal.so.3.10.11:_ZN11OpalManager21InternalClearAllCallsEN14OpalConnection13CallEndReasonEbb
libopal.so.3.10.11:_ZN11OpalManager21SetDefaultDisplayNameERK7PStringb
libopal.so.3.10.11:_ZN11OpalManager21SetMediaTypeOfServiceERK13OpalMediaTypej
libopal.so.3.10.11:_ZN11OpalManager21SetTranslationAddressERKN9PIPSocket7AddressE
libopal.so.3.10.11:_ZN11OpalManager21SetVideoPreviewDeviceERKN12PVideoDevice8OpenArgsE
libopal.so.3.10.11:_ZN11OpalManager22CreateVideoInputDeviceERK14OpalConnectionRK15OpalMediaFormatRP17PVideoInputDeviceRb
libopal.so.3.10.11:_ZN11OpalManager23CreateVideoOutputDeviceERK14OpalConnectionRK15OpalMediaFormatbRP18PVideoOutputDeviceRb
libopal.so.3.10.11:_ZN11OpalManager6OnHoldER14OpalConnection
libopal.so.3.10.11:_ZN11OpalManager6OnHoldER14OpalConnectionbb
libopal.so.3.10.11:_ZN11OpalManager7MessageER6OpalIM
libopal.so.3.10.11:_ZN11OpalManager7MessageERK4PURLRK7PStringS5_RS0_RS3_
libopal.so.3.10.11:_ZN11OpalManager7MessageERK7PStringS2_
libopal.so.3.10.11:_ZN11OpalManager8PortInfo3SetEjjjj
libopal.so.3.10.11:_ZN11OpalManager8PortInfo7GetNextEj
libopal.so.3.10.11:_ZN11OpalManager9ClearCallERK7PStringN14OpalConnection13CallEndReasonEP10PSyncPoint
libopal.so.3.10.11:_ZN11OpalManager9SetUpCallERK7PStringS2_PvjPN14OpalConnection13StringOptionsE
libopal.so.3.10.11:_ZN11OpalManager9SetUpCallERK7PStringS2_RS0_PvjPN14OpalConnection13StringOptionsE
libopal.so.3.10.11:_ZN11OpalManagerC1Ev
libopal.so.3.10.11:_ZN11OpalManagerC2Ev
libopal.so.3.10.11:_ZN11OpalManagerD0Ev
libopal.so.3.10.11:_ZN11OpalManagerD1Ev
libopal.so.3.10.11:_ZN11OpalManagerD2Ev
libopal.so.3.10.11:_ZN11OpalWAVFile14AddMediaFormatERK15OpalMediaFormat
libopal.so.3.10.11:_ZN11OpalWAVFileC1EN5PFile8OpenModeEij
libopal.so.3.10.11:_ZN11OpalWAVFileC1ERK9PFilePathN5PFile8OpenModeEij
libopal.so.3.10.11:_ZN11OpalWAVFileC1Ej
libopal.so.3.10.11:_ZN11OpalWAVFileC2EN5PFile8OpenModeEij
libopal.so.3.10.11:_ZN11OpalWAVFileC2ERK9PFilePathN5PFile8OpenModeEij
libopal.so.3.10.11:_ZN11OpalWAVFileC2Ej
libopal.so.3.10.11:_ZN11RTP_IMFrame10SetContentERK10T140String
libopal.so.3.10.11:_ZN11RTP_IMFrame14SetContentTypeERK7PString
libopal.so.3.10.11:_ZN11RTP_IMFrameC1EPKhib
libopal.so.3.10.11:_ZN11RTP_IMFrameC1ERK7PString
libopal.so.3.10.11:_ZN11RTP_IMFrameC1ERK7PStringRK10T140String
libopal.so.3.10.11:_ZN11RTP_IMFrameC1Ev
libopal.so.3.10.11:_ZN11RTP_IMFrameC2EPKhib
libopal.so.3.10.11:_ZN11RTP_IMFrameC2ERK7PString
libopal.so.3.10.11:_ZN11RTP_IMFrameC2ERK7PStringRK10T140String
libopal.so.3.10.11:_ZN11RTP_IMFrameC2Ev
libopal.so.3.10.11:_ZN11RTP_Session10OnSendDataER13RTP_DataFrame
libopal.so.3.10.11:_ZN11RTP_Session10SendReportER6PTimerl
libopal.so.3.10.11:_ZN11RTP_Session11OnRxGoodbyeERK12PScalarArrayIjERK7PString
libopal.so.3.10.11:_ZN11RTP_Session11SetEncodingERK7PString
libopal.so.3.10.11:_ZN11RTP_Session11SetToolNameERK7PString
libopal.so.3.10.11:_ZN11RTP_Session11SetUserDataEP12RTP_UserDatab
libopal.so.3.10.11:_ZN11RTP_Session12EncodingLockC1ERS_
libopal.so.3.10.11:_ZN11RTP_Session12EncodingLockC2ERS_
libopal.so.3.10.11:_ZN11RTP_Session12EncodingLockD1Ev
libopal.so.3.10.11:_ZN11RTP_Session12EncodingLockD2Ev
libopal.so.3.10.11:_ZN11RTP_Session12WriteOOBDataER13RTP_DataFrameb
libopal.so.3.10.11:_ZN11RTP_Session13OnReceiveDataER13RTP_DataFrame
libopal.so.3.10.11:_ZN11RTP_Session13OnSendControlER16RTP_ControlFrameRi
libopal.so.3.10.11:_ZN11RTP_Session15ClearStatisticsEv
libopal.so.3.10.11:_ZN11RTP_Session15OnRxApplDefinedERK7PStringjjPKhi
libopal.so.3.10.11:_ZN11RTP_Session16OnReceiveControlER16RTP_ControlFrame
libopal.so.3.10.11:_ZN11RTP_Session16OnRxSenderReportERKNS_12SenderReportERK6PArrayINS_14ReceiverReportEE
libopal.so.3.10.11:_ZN11RTP_Session16ReadBufferedDataER13RTP_DataFrame
libopal.so.3.10.11:_ZN11RTP_Session16SetCanonicalNameERK7PString
libopal.so.3.10.11:_ZN11RTP_Session17AddReceiverReportERN16RTP_ControlFrame14ReceiverReportE
libopal.so.3.10.11:_ZN11RTP_Session17OnReceiverReportsERK6PArrayINS_14ReceiverReportEE
libopal.so.3.10.11:_ZN11RTP_Session18InsertReportPacketER16RTP_ControlFrame
libopal.so.3.10.11:_ZN11RTP_Session18OnRxExtendedReportEjRK6PArrayINS_14ExtendedReportEE
libopal.so.3.10.11:_ZN11RTP_Session18OnRxReceiverReportEjRK6PArrayINS_14ReceiverReportEE
libopal.so.3.10.11:_ZN11RTP_Session19Internal_OnSendDataER13RTP_DataFrame
libopal.so.3.10.11:_ZN11RTP_Session19SetJitterBufferSizeEjjji
libopal.so.3.10.11:_ZN11RTP_Session20SaveOutOfOrderPacketER13RTP_DataFrame
libopal.so.3.10.11:_ZN11RTP_Session21OnRxSourceDescriptionERK6PArrayINS_17SourceDescriptionEE
libopal.so.3.10.11:_ZN11RTP_Session21SendIntraFrameRequestEbb
libopal.so.3.10.11:_ZN11RTP_Session22Internal_OnReceiveDataER13RTP_DataFrame
libopal.so.3.10.11:_ZN11RTP_Session22Internal_OnSendControlER16RTP_ControlFrameRi
libopal.so.3.10.11:_ZN11RTP_Session23SetRxStatisticsIntervalEj
libopal.so.3.10.11:_ZN11RTP_Session23SetTxStatisticsIntervalEj
libopal.so.3.10.11:_ZN11RTP_Session24BuildReceiverReportArrayERK16RTP_ControlFramei
libopal.so.3.10.11:_ZN11RTP_Session27SendTemporalSpatialTradeOffEj
libopal.so.3.10.11:_ZN11RTP_Session7SendBYEEv
libopal.so.3.10.11:_ZN11RTP_Session9AddFilterERK17PNotifierTemplateIRNS_17SendReceiveStatusEE
libopal.so.3.10.11:_ZN11RTP_Session9FlushDataEv
libopal.so.3.10.11:_ZN11RTP_SessionC1ERKNS_6ParamsE
libopal.so.3.10.11:_ZN11RTP_SessionC2ERKNS_6ParamsE
libopal.so.3.10.11:_ZN11RTP_SessionD0Ev
libopal.so.3.10.11:_ZN11RTP_SessionD1Ev
libopal.so.3.10.11:_ZN11RTP_SessionD2Ev
libopal.so.3.10.11:_ZN11SIPEndPoint10OnReleasedER14OpalConnection
libopal.so.3.10.11:_ZN11SIPEndPoint10UnregisterERK7PString
libopal.so.3.10.11:_ZN11SIPEndPoint11GetLocalURLERK13OpalTransportRK7PString
libopal.so.3.10.11:_ZN11SIPEndPoint11SendMESSAGEERN10SIPMessage6ParamsE
libopal.so.3.10.11:_ZN11SIPEndPoint11SendOPTIONSERKN10SIPOptions6ParamsE
libopal.so.3.10.11:_ZN11SIPEndPoint11UnsubscribeEN12SIPSubscribe18PredefinedPackagesERK7PStringb
libopal.so.3.10.11:_ZN11SIPEndPoint11UnsubscribeERK7PStringS2_b
libopal.so.3.10.11:_ZN11SIPEndPoint11UnsubscribeERK7PStringb
libopal.so.3.10.11:_ZN11SIPEndPoint12IsRegisteredERK7PStringb
libopal.so.3.10.11:_ZN11SIPEndPoint12IsSubscribedERK7PStringS2_b
libopal.so.3.10.11:_ZN11SIPEndPoint12IsSubscribedERK7PStringb
libopal.so.3.10.11:_ZN11SIPEndPoint12OnRegisteredERK7PStringb
libopal.so.3.10.11:_ZN11SIPEndPoint13OnReceivedPDUER13OpalTransportP7SIP_PDU
libopal.so.3.10.11:_ZN11SIPEndPoint13SetupTransferERK7PStringS2_S2_Pv
libopal.so.3.10.11:_ZN11SIPEndPoint13UnregisterAllEv
libopal.so.3.10.11:_ZN11SIPEndPoint13UnsubcribeAllEN12SIPSubscribe18PredefinedPackagesE
libopal.so.3.10.11:_ZN11SIPEndPoint13UnsubcribeAllERK7PString
libopal.so.3.10.11:_ZN11SIPEndPoint14MakeConnectionER8OpalCallRK7PStringPvjPN14OpalConnection13StringOptionsE
libopal.so.3.10.11:_ZN11SIPEndPoint14WorkThreadPool18CreateWorkerThreadEv
libopal.so.3.10.11:_ZN11SIPEndPoint15CreateTransportERK6SIPURLRK7PString
libopal.so.3.10.11:_ZN11SIPEndPoint15PublishPresenceERK15SIPPresenceInfoj
libopal.so.3.10.11:_ZN11SIPEndPoint16CreateConnectionER8OpalCallRK7PStringPvRK6SIPURLP13OpalTransportP7SIP_PDUjPN14OpalConnection13StringOptionsE
libopal.so.3.10.11:_ZN11SIPEndPoint16InterfaceMonitor14OnAddInterfaceERKN9PIPSocket14InterfaceEntryE
libopal.so.3.10.11:_ZN11SIPEndPoint16InterfaceMonitor17OnRemoveInterfaceERKN9PIPSocket14InterfaceEntryE
libopal.so.3.10.11:_ZN11SIPEndPoint16InterfaceMonitorC1ERS_i
libopal.so.3.10.11:_ZN11SIPEndPoint16InterfaceMonitorC2ERS_i
libopal.so.3.10.11:_ZN11SIPEndPoint16OnReceivedINVITEER13OpalTransportP7SIP_PDU
libopal.so.3.10.11:_ZN11SIPEndPoint16OnReceivedNOTIFYER13OpalTransportR7SIP_PDU
libopal.so.3.10.11:_ZN11SIPEndPoint17ForwardConnectionER13SIPConnectionRK7PString
libopal.so.3.10.11:_ZN11SIPEndPoint17GarbageCollectionEv
libopal.so.3.10.11:_ZN11SIPEndPoint17IsAcceptedAddressERK6SIPURL
libopal.so.3.10.11:_ZN11SIPEndPoint17NATBindingRefreshER6PTimerl
libopal.so.3.10.11:_ZN11SIPEndPoint17OnReceivedMESSAGEER13OpalTransportR7SIP_PDU
libopal.so.3.10.11:_ZN11SIPEndPoint17OnReceivedOPTIONSER13OpalTransportR7SIP_PDU
libopal.so.3.10.11:_ZN11SIPEndPoint18ClearDialogContextER16SIPDialogContext
libopal.so.3.10.11:_ZN11SIPEndPoint18ClearDialogContextERK7PString
libopal.so.3.10.11:_ZN11SIPEndPoint18GetRegisteredProxyERK6SIPURL
libopal.so.3.10.11:_ZN11SIPEndPoint18OnMESSAGECompletedERKN10SIPMessage6ParamsEN7SIP_PDU11StatusCodesE
libopal.so.3.10.11:_ZN11SIPEndPoint18OnOptionsCompletedERKN10SIPOptions6ParamsERK7SIP_PDU
libopal.so.3.10.11:_ZN11SIPEndPoint18OnReceivedREGISTERER13OpalTransportR7SIP_PDU
libopal.so.3.10.11:_ZN11SIPEndPoint18OnReceivedResponseER14SIPTransactionR7SIP_PDU
libopal.so.3.10.11:_ZN11SIPEndPoint18OnStartTransactionER13SIPConnectionR14SIPTransaction
libopal.so.3.10.11:_ZN11SIPEndPoint19OnReceivedSUBSCRIBEER13OpalTransportR7SIP_PDU
libopal.so.3.10.11:_ZN11SIPEndPoint19OnTransactionFailedER14SIPTransaction
libopal.so.3.10.11:_ZN11SIPEndPoint19TransportThreadMainER7PThreadl
libopal.so.3.10.11:_ZN11SIPEndPoint20AdjustToRegistrationER7SIP_PDURK13OpalTransportPK13SIPConnection
libopal.so.3.10.11:_ZN11SIPEndPoint20HandleAuthenticationERP25PHTTPClientAuthenticationRjRK7SIP_PDURK6SIPURLRK7PStringSC_
libopal.so.3.10.11:_ZN11SIPEndPoint20OnDialogInfoReceivedERK21SIPDialogNotification
libopal.so.3.10.11:_ZN11SIPEndPoint20OnRegistrationFailedERK7PStringN7SIP_PDU11StatusCodesEb
libopal.so.3.10.11:_ZN11SIPEndPoint20OnRegistrationStatusERK7PStringbbN7SIP_PDU11StatusCodesE
libopal.so.3.10.11:_ZN11SIPEndPoint20OnRegistrationStatusERKNS_18RegistrationStatusE
libopal.so.3.10.11:_ZN11SIPEndPoint20OnSubscriptionStatusER19SIPSubscribeHandlerRK6SIPURLbbN7SIP_PDU11StatusCodesE
libopal.so.3.10.11:_ZN11SIPEndPoint20OnSubscriptionStatusERK7PStringRK6SIPURLbbN7SIP_PDU11StatusCodesE
libopal.so.3.10.11:_ZN11SIPEndPoint20OnSubscriptionStatusERKN12SIPSubscribe18SubscriptionStatusE
libopal.so.3.10.11:_ZN11SIPEndPoint20SendNotifyDialogInfoERK21SIPDialogNotification
libopal.so.3.10.11:_ZN11SIPEndPoint21CreateRegisterHandlerERKN11SIPRegister6ParamsE
libopal.so.3.10.11:_ZN11SIPEndPoint21NewIncomingConnectionEP13OpalTransport
libopal.so.3.10.11:_ZN11SIPEndPoint22GetRegisteredPartyNameERK6SIPURLRK13OpalTransport
libopal.so.3.10.11:_ZN11SIPEndPoint22OnPresenceInfoReceivedERK15SIPPresenceInfo
libopal.so.3.10.11:_ZN11SIPEndPoint22OnPresenceInfoReceivedERK7PStringS2_S2_
libopal.so.3.10.11:_ZN11SIPEndPoint24GetSIPConnectionWithLockERK7PString11PSafetyModePN7SIP_PDU11StatusCodesE
libopal.so.3.10.11:_ZN11SIPEndPoint27OnReceivedConnectionlessPDUER13OpalTransportP7SIP_PDU
libopal.so.3.10.11:_ZN11SIPEndPoint29GetDefaultRegisteredPartyNameERK13OpalTransport
libopal.so.3.10.11:_ZN11SIPEndPoint4PingERK4PURL
libopal.so.3.10.11:_ZN11SIPEndPoint6NotifyERK6SIPURLRK7PStringRK7PObject
libopal.so.3.10.11:_ZN11SIPEndPoint7MessageER6OpalIM
libopal.so.3.10.11:_ZN11SIPEndPoint7PublishERK7PStringS2_j
libopal.so.3.10.11:_ZN11SIPEndPoint7PublishERKN12SIPSubscribe6ParamsERK7PStringRS4_
libopal.so.3.10.11:_ZN11SIPEndPoint8RegisterERK7PStringS2_S2_S2_S2_jRK13PTimeIntervalS5_
libopal.so.3.10.11:_ZN11SIPEndPoint8RegisterERKN11SIPRegister6ParamsER7PStringPN7SIP_PDU11StatusCodesE
libopal.so.3.10.11:_ZN11SIPEndPoint8RegisterERKN11SIPRegister6ParamsER7PStringb
libopal.so.3.10.11:_ZN11SIPEndPoint8SIP_Work4WorkEv
libopal.so.3.10.11:_ZN11SIPEndPoint8SIP_WorkC1ERS_P7SIP_PDURK7PString
libopal.so.3.10.11:_ZN11SIPEndPoint8SIP_WorkC2ERS_P7SIP_PDURK7PString
libopal.so.3.10.11:_ZN11SIPEndPoint8SIP_WorkD0Ev
libopal.so.3.10.11:_ZN11SIPEndPoint8SIP_WorkD1Ev
libopal.so.3.10.11:_ZN11SIPEndPoint8SIP_WorkD2Ev
libopal.so.3.10.11:_ZN11SIPEndPoint8SetProxyERK6SIPURL
libopal.so.3.10.11:_ZN11SIPEndPoint8SetProxyERK7PStringS2_S2_
libopal.so.3.10.11:_ZN11SIPEndPoint8ShutDownEv
libopal.so.3.10.11:_ZN11SIPEndPoint9CanNotifyERK7PString
libopal.so.3.10.11:_ZN11SIPEndPoint9HandlePDUER13OpalTransport
libopal.so.3.10.11:_ZN11SIPEndPoint9SubscribeEN12SIPSubscribe18PredefinedPackagesEjRK7PString
libopal.so.3.10.11:_ZN11SIPEndPoint9SubscribeERKN12SIPSubscribe6ParamsER7PStringb
libopal.so.3.10.11:_ZN11SIPEndPointC1ER11OpalManagerjj
libopal.so.3.10.11:_ZN11SIPEndPointC2ER11OpalManagerjj
libopal.so.3.10.11:_ZN11SIPEndPointD0Ev
libopal.so.3.10.11:_ZN11SIPEndPointD1Ev
libopal.so.3.10.11:_ZN11SIPEndPointD2Ev
libopal.so.3.10.11:_ZN11SIPMIMEInfo10AddRequireERK7PString
libopal.so.3.10.11:_ZN11SIPMIMEInfo10SetContactERK7PString
libopal.so.3.10.11:_ZN11SIPMIMEInfo10SetExpiresEj
libopal.so.3.10.11:_ZN11SIPMIMEInfo10SetReferToERK7PString
libopal.so.3.10.11:_ZN11SIPMIMEInfo10SetRequireERK10PStringSet
libopal.so.3.10.11:_ZN11SIPMIMEInfo10SetSIPETagERK7PString
libopal.so.3.10.11:_ZN11SIPMIMEInfo10SetSubjectERK7PString
libopal.so.3.10.11:_ZN11SIPMIMEInfo10SetViaListERK11PStringList
libopal.so.3.10.11:_ZN11SIPMIMEInfo11AddTokenSetEPKcRK7PString
libopal.so.3.10.11:_ZN11SIPMIMEInfo11SetTokenSetEPKcRK10PStringSet
libopal.so.3.10.11:_ZN11SIPMIMEInfo12AddSupportedERK7PString
libopal.so.3.10.11:_ZN11SIPMIMEInfo12GetAlertInfoER7PStringRi
libopal.so.3.10.11:_ZN11SIPMIMEInfo12SetAlertInfoERK7PStringi
libopal.so.3.10.11:_ZN11SIPMIMEInfo12SetSupportedERK10PStringSet
libopal.so.3.10.11:_ZN11SIPMIMEInfo12SetUserAgentERK7PString
libopal.so.3.10.11:_ZN11SIPMIMEInfo13SetMinExpiresEi
libopal.so.3.10.11:_ZN11SIPMIMEInfo13SetReferredByERK7PString
libopal.so.3.10.11:_ZN11SIPMIMEInfo13SetSIPIfMatchERK7PString
libopal.so.3.10.11:_ZN11SIPMIMEInfo14AddUnsupportedERK7PString
libopal.so.3.10.11:_ZN11SIPMIMEInfo14SetAllowEventsERK7PString
libopal.so.3.10.11:_ZN11SIPMIMEInfo14SetContentTypeERK7PString
libopal.so.3.10.11:_ZN11SIPMIMEInfo14SetMaxForwardsEi
libopal.so.3.10.11:_ZN11SIPMIMEInfo14SetProductInfoERK7PStringRK15OpalProductInfo
libopal.so.3.10.11:_ZN11SIPMIMEInfo14SetRecordRouteERK10SIPURLList
libopal.so.3.10.11:_ZN11SIPMIMEInfo14SetRecordRouteERK7PString
libopal.so.3.10.11:_ZN11SIPMIMEInfo14SetUnsupportedERK10PStringSet
libopal.so.3.10.11:_ZN11SIPMIMEInfo15InternalAddMIMEERK7PStringS2_
libopal.so.3.10.11:_ZN11SIPMIMEInfo15SetOrganizationERK7PString
libopal.so.3.10.11:_ZN11SIPMIMEInfo16SetContentLengthEi
libopal.so.3.10.11:_ZN11SIPMIMEInfo17SetAcceptEncodingERK7PString
libopal.so.3.10.11:_ZN11SIPMIMEInfo17SetAcceptLanguageERK7PString
libopal.so.3.10.11:_ZN11SIPMIMEInfo18SetContentEncodingERK7PString
libopal.so.3.10.11:_ZN11SIPMIMEInfo18SetWWWAuthenticateERK7PString
libopal.so.3.10.11:_ZN11SIPMIMEInfo20InsertFieldParameterERK7PStringS2_S2_
libopal.so.3.10.11:_ZN11SIPMIMEInfo20SetPAssertedIdentityERK7PString
libopal.so.3.10.11:_ZN11SIPMIMEInfo20SetProxyAuthenticateERK7PString
libopal.so.3.10.11:_ZN11SIPMIMEInfo20SetSubscriptionStateERK7PString
libopal.so.3.10.11:_ZN11SIPMIMEInfo21ExtractFieldParameterERK7PStringS2_S2_
libopal.so.3.10.11:_ZN11SIPMIMEInfo21SetPPreferredIdentityERK7PString
libopal.so.3.10.11:_ZN11SIPMIMEInfo5SetToERK7PString
libopal.so.3.10.11:_ZN11SIPMIMEInfo6SetViaERK7PString
libopal.so.3.10.11:_ZN11SIPMIMEInfo7SetCSeqERK7PString
libopal.so.3.10.11:_ZN11SIPMIMEInfo7SetDateERK5PTime
libopal.so.3.10.11:_ZN11SIPMIMEInfo7SetDateERK7PString
libopal.so.3.10.11:_ZN11SIPMIMEInfo7SetDateEv
libopal.so.3.10.11:_ZN11SIPMIMEInfo7SetFromERK7PString
libopal.so.3.10.11:_ZN11SIPMIMEInfo8SetAllowERK7PString
libopal.so.3.10.11:_ZN11SIPMIMEInfo8SetEventERK7PString
libopal.so.3.10.11:_ZN11SIPMIMEInfo8SetRouteERK10SIPURLList
libopal.so.3.10.11:_ZN11SIPMIMEInfo8SetRouteERK7PString
libopal.so.3.10.11:_ZN11SIPMIMEInfo9SetAcceptERK7PString
libopal.so.3.10.11:_ZN11SIPMIMEInfo9SetCallIDERK7PString
libopal.so.3.10.11:_ZN11SIPMIMEInfoC1Eb
libopal.so.3.10.11:_ZN11SIPMIMEInfoC2Eb
libopal.so.3.10.11:_ZN11SIPRegisterC1ER11SIPEndPointR13OpalTransportRK7PStringjRKNS_6ParamsE
libopal.so.3.10.11:_ZN11SIPRegisterC2ER11SIPEndPointR13OpalTransportRK7PStringjRKNS_6ParamsE
libopal.so.3.10.11:_ZN11SIPResponse4SendER13OpalTransportRK7SIP_PDU
libopal.so.3.10.11:_ZN11SIPResponseC1ER11SIPEndPointN7SIP_PDU11StatusCodesE
libopal.so.3.10.11:_ZN11SIPResponseC2ER11SIPEndPointN7SIP_PDU11StatusCodesE
libopal.so.3.10.11:_ZN11SafeStrings12AppendStringERK7PStringb
libopal.so.3.10.11:_ZN11SafeStrings13GetNextStringER7PString
libopal.so.3.10.11:_ZN11SafeStrings15GetAllDeleteAllER12PStringArray
libopal.so.3.10.11:_ZN11SafeStrings17GetFirstDeleteAllEv
libopal.so.3.10.11:_ZN11SafeStrings7IsEmptyEv
libopal.so.3.10.11:_ZN11SafeStringsC1Ev
libopal.so.3.10.11:_ZN11SafeStringsC2Ev
libopal.so.3.10.11:_ZN11SafeStringsD0Ev
libopal.so.3.10.11:_ZN11SafeStringsD1Ev
libopal.so.3.10.11:_ZN11SafeStringsD2Ev
libopal.so.3.10.11:_ZN11X880_Invoke6DecodeER11PASN_Stream
libopal.so.3.10.11:_ZN11X880_InvokeC1EjN11PASN_Object8TagClassE
libopal.so.3.10.11:_ZN11X880_InvokeC2EjN11PASN_Object8TagClassE
libopal.so.3.10.11:_ZN11X880_Reject6DecodeER11PASN_Stream
libopal.so.3.10.11:_ZN11X880_RejectC1EjN11PASN_Object8TagClassE
libopal.so.3.10.11:_ZN11X880_RejectC2EjN11PASN_Object8TagClassE
libopal.so.3.10.11:_ZN12H225_CicInfo6DecodeER11PASN_Stream
libopal.so.3.10.11:_ZN12H225_CicInfoC1EjN11PASN_Object8TagClassE
libopal.so.3.10.11:_ZN12H225_CicInfoC2EjN11PASN_Object8TagClassE
libopal.so.3.10.11:_ZN12H225_Content12CreateObjectEv
libopal.so.3.10.11:_ZN12H225_ContentC1EjN11PASN_Object8TagClassE
libopal.so.3.10.11:_ZN12H225_ContentC2EjN11PASN_Object8TagClassE
libopal.so.3.10.11:_ZN12H225_ContentcvR17H225_AliasAddressEv
libopal.so.3.10.11:_ZN12H225_ContentcvR21H225_TransportAddressEv
libopal.so.3.10.11:_ZN12H225_ContentcvR22H225_GenericIdentifierEv
libopal.so.3.10.11:_ZN12H225_ContentcvR24H225_ArrayOf_GenericDataEv
libopal.so.3.10.11:_ZN12H225_ContentcvR32H225_ArrayOf_EnumeratedParameterEv
libopal.so.3.10.11:_ZN12H225_GSM_UIM6DecodeER11PASN_Stream
libopal.so.3.10.11:_ZN12H225_GSM_UIMC1EjN11PASN_Object8TagClassE
libopal.so.3.10.11:_ZN12H225_GSM_UIMC2EjN11PASN_Object8TagClassE
libopal.so.3.10.11:_ZN12H225_GroupID6DecodeER11PASN_Stream
libopal.so.3.10.11:_ZN12H225_GroupIDC1EjN11PASN_Object8TagClassE
libopal.so.3.10.11:_ZN12H225_GroupIDC2EjN11PASN_Object8TagClassE
libopal.so.3.10.11:_ZN12H225_McuInfo6DecodeER11PASN_Stream
libopal.so.3.10.11:_ZN12H225_McuInfoC1EjN11PASN_Object8TagClassE
libopal.so.3.10.11:_ZN12H225_McuInfoC2EjN11PASN_Object8TagClassE
libopal.so.3.10.11:_ZN12H225_SIPCaps6DecodeER11PASN_Stream
libopal.so.3.10.11:_ZN12H225_SIPCapsC1EjN11PASN_Object8TagClassE
libopal.so.3.10.11:_ZN12H225_SIPCapsC2EjN11PASN_Object8TagClassE
libopal.so.3.10.11:_ZN12H235_ECKASDH12CreateObjectEv
libopal.so.3.10.11:_ZN12H235_ECKASDHC1EjN11PASN_Object8TagClassE
libopal.so.3.10.11:_ZN12H235_ECKASDHC2EjN11PASN_Object8TagClassE
libopal.so.3.10.11:_ZN12H235_ECKASDHcvR21H235_ECKASDH_eckasdh2Ev
libopal.so.3.10.11:_ZN12H235_ECKASDHcvR21H235_ECKASDH_eckasdhpEv
libopal.so.3.10.11:_ZN12H235_ECpoint6DecodeER11PASN_Stream
libopal.so.3.10.11:_ZN12H235_ECpointC1EjN11PASN_Object8TagClassE
libopal.so.3.10.11:_ZN12H235_ECpointC2EjN11PASN_Object8TagClassE
libopal.so.3.10.11:_ZN12H235_Element12CreateObjectEv
libopal.so.3.10.11:_ZN12H235_ElementC1EjN11PASN_Object8TagClassE
libopal.so.3.10.11:_ZN12H235_ElementC2EjN11PASN_Object8TagClassE
libopal.so.3.10.11:_ZN12H235_H235Key12CreateObjectEv
libopal.so.3.10.11:_ZN12H235_H235KeyC1EjN11PASN_Object8TagClassE
libopal.so.3.10.11:_ZN12H235_H235KeyC2EjN11PASN_Object8TagClassE
libopal.so.3.10.11:_ZN12H235_H235KeycvR11H235_SIGNEDI29H235_EncodedKeySignedMaterialEEv
libopal.so.3.10.11:_ZN12H235_H235KeycvR14H235_ENCRYPTEDI27H235_EncodedKeySyncMaterialEEv
libopal.so.3.10.11:_ZN12H235_H235KeycvR16H235_KeyMaterialEv
libopal.so.3.10.11:_ZN12H235_H235KeycvR22H235_V3KeySyncMaterialEv
libopal.so.3.10.11:_ZN12H245_FECData12CreateObjectEv
libopal.so.3.10.11:_ZN12H245_FECDataC1EjN11PASN_Object8TagClassE
libopal.so.3.10.11:_ZN12H245_FECDataC2EjN11PASN_Object8TagClassE
libopal.so.3.10.11:_ZN12H245_FECDatacvR20H245_FECData_rfc2733Ev
libopal.so.3.10.11:_ZN12H245_FECMode6DecodeER11PASN_Stream
libopal.so.3.10.11:_ZN12H245_FECModeC1EjN11PASN_Object8TagClassE
libopal.so.3.10.11:_ZN12H245_FECModeC2EjN11PASN_Object8TagClassE
libopal.so.3.10.11:_ZN12H245_QOSMode12CreateObjectEv
libopal.so.3.10.11:_ZN12H245_QOSModeC1EjN11PASN_Object8TagClassE
libopal.so.3.10.11:_ZN12H245_QOSModeC2EjN11PASN_Object8TagClassE
libopal.so.3.10.11:_ZN12H245_QOSType12CreateObjectEv
libopal.so.3.10.11:_ZN12H245_QOSTypeC1EjN11PASN_Object8TagClassE
libopal.so.3.10.11:_ZN12H245_QOSTypeC2EjN11PASN_Object8TagClassE
libopal.so.3.10.11:_ZN12H245_VBDMode6DecodeER11PASN_Stream
libopal.so.3.10.11:_ZN12H245_VBDModeC1EjN11PASN_Object8TagClassE
libopal.so.3.10.11:_ZN12H245_VBDModeC2EjN11PASN_Object8TagClassE
libopal.so.3.10.11:_ZN12H248_Command12CreateObjectEv
libopal.so.3.10.11:_ZN12H248_CommandC1EjN11PASN_Object8TagClassE
libopal.so.3.10.11:_ZN12H248_CommandC2EjN11PASN_Object8TagClassE
libopal.so.3.10.11:_ZN12H248_CommandcvR15H248_AmmRequestEv
libopal.so.3.10.11:_ZN12H248_CommandcvR17H248_AuditRequestEv
libopal.so.3.10.11:_ZN12H248_CommandcvR18H248_NotifyRequestEv
libopal.so.3.10.11:_ZN12H248_CommandcvR20H248_SubtractRequestEv
libopal.so.3.10.11:_ZN12H248_CommandcvR25H248_ServiceChangeRequestEv
libopal.so.3.10.11:_ZN12H248_EventDM12CreateObjectEv
libopal.so.3.10.11:_ZN12H248_EventDMC1EjN11PASN_Object8TagClassE
libopal.so.3.10.11:_ZN12H248_EventDMC2EjN11PASN_Object8TagClassE
libopal.so.3.10.11:_ZN12H248_EventDMcvR17H248_DigitMapNameEv
libopal.so.3.10.11:_ZN12H248_EventDMcvR18H248_DigitMapValueEv
libopal.so.3.10.11:_ZN12H248_Message6DecodeER11PASN_Stream
libopal.so.3.10.11:_ZN12H248_MessageC1EjN11PASN_Object8TagClassE
libopal.so.3.10.11:_ZN12H248_MessageC2EjN11PASN_Object8TagClassE
libopal.so.3.10.11:_ZN12H248_MuxTypeC1EjN11PASN_Object8TagClassE
libopal.so.3.10.11:_ZN12H248_MuxTypeC2EjN11PASN_Object8TagClassE
libopal.so.3.10.11:_ZN12H248_MuxTypeaSEj
libopal.so.3.10.11:_ZN12H323EndPoint10OnAlertingER14H323ConnectionRK13H323SignalPDURK7PString
libopal.so.3.10.11:_ZN12H323EndPoint11IntrudeCallERK7PStringjPv
libopal.so.3.10.11:_ZN12H323EndPoint12AddAliasNameERK7PString
libopal.so.3.10.11:_ZN12H323EndPoint12OnAnswerCallER14H323ConnectionRK7PStringRK13H323SignalPDURS5_S8_
libopal.so.3.10.11:_ZN12H323EndPoint12OnAnswerCallER14OpalConnectionRK7PString
libopal.so.3.10.11:_ZN12H323EndPoint12TransferCallERK7PStringS2_S2_
libopal.so.3.10.11:_ZN12H323EndPoint13AddCapabilityEP14H323Capability
libopal.so.3.10.11:_ZN12H323EndPoint13OnSendConnectER14H323ConnectionR13H323SignalPDU
libopal.so.3.10.11:_ZN12H323EndPoint13SetCapabilityEiiP14H323Capability
libopal.so.3.10.11:_ZN12H323EndPoint13SetGatekeeperERK7PStringP13OpalTransport
libopal.so.3.10.11:_ZN12H323EndPoint13SetupTransferERK7PStringS2_S2_Pv
libopal.so.3.10.11:_ZN12H323EndPoint13UseGatekeeperERK7PStringS2_S2_
libopal.so.3.10.11:_ZN12H323EndPoint14MakeConnectionER8OpalCallRK7PStringPvjPN14OpalConnection13StringOptionsE
libopal.so.3.10.11:_ZN12H323EndPoint14OnIncomingCallER14H323ConnectionRK13H323SignalPDURS2_
libopal.so.3.10.11:_ZN12H323EndPoint14OnOutgoingCallER14H323ConnectionRK13H323SignalPDU
libopal.so.3.10.11:_ZN12H323EndPoint14OnSendAlertingER14H323ConnectionR13H323SignalPDURK7PStringb
libopal.so.3.10.11:_ZN12H323EndPoint14OnSentAlertingER14H323Connection
libopal.so.3.10.11:_ZN12H323EndPoint14ParsePartyNameERK7PStringRS0_R20H323TransportAddressPN14OpalConnection13StringOptionsE
libopal.so.3.10.11:_ZN12H323EndPoint15RemoveAliasNameERK7PString
libopal.so.3.10.11:_ZN12H323EndPoint16CreateConnectionER8OpalCallRK7PStringPvR13OpalTransportS4_RK20H323TransportAddressP13H323SignalPDUjPN14OpalConnection13StringOptionsE
libopal.so.3.10.11:_ZN12H323EndPoint16CreateGatekeeperEP13OpalTransport
libopal.so.3.10.11:_ZN12H323EndPoint16InternalMakeCallER8OpalCallRK7PStringS4_jS4_PvjPN14OpalConnection13StringOptionsE
libopal.so.3.10.11:_ZN12H323EndPoint16LocateGatekeeperERK7PStringP13OpalTransport
libopal.so.3.10.11:_ZN12H323EndPoint16OnSendFeatureSetEjR15H225_FeatureSet
libopal.so.3.10.11:_ZN12H323EndPoint16RemoveGatekeeperEi
libopal.so.3.10.11:_ZN12H323EndPoint16SetLocalUserNameERK7PString
libopal.so.3.10.11:_ZN12H323EndPoint17ForwardConnectionER14H323ConnectionRK7PStringRK13H323SignalPDU
libopal.so.3.10.11:_ZN12H323EndPoint17OnFeatureInstanceEiRK7PString
libopal.so.3.10.11:_ZN12H323EndPoint17OnSendSignalSetupER14H323ConnectionR13H323SignalPDU
libopal.so.3.10.11:_ZN12H323EndPoint17SetGatekeeperZoneERK7PStringS2_P13OpalTransport
libopal.so.3.10.11:_ZN12H323EndPoint18AddAllCapabilitiesEiiRK7PString
libopal.so.3.10.11:_ZN12H323EndPoint18DiscoverGatekeeperEP13OpalTransport
libopal.so.3.10.11:_ZN12H323EndPoint18LoadBaseFeatureSetEv
libopal.so.3.10.11:_ZN12H323EndPoint18OnConferenceInviteERK13H323SignalPDU
libopal.so.3.10.11:_ZN12H323EndPoint18OnGatekeeperRejectEv
libopal.so.3.10.11:_ZN12H323EndPoint18RemoveCapabilitiesERK12PStringArray
libopal.so.3.10.11:_ZN12H323EndPoint19AddAliasNamePatternERK7PString
libopal.so.3.10.11:_ZN12H323EndPoint19OnGatekeeperConfirmEv
libopal.so.3.10.11:_ZN12H323EndPoint19OnReceiveFeatureSetEjRK15H225_FeatureSet
libopal.so.3.10.11:_ZN12H323EndPoint19ReorderCapabilitiesERK12PStringArray
libopal.so.3.10.11:_ZN12H323EndPoint19TranslateTCPAddressERN9PIPSocket7AddressERKS1_
libopal.so.3.10.11:_ZN12H323EndPoint20ConsultationTransferERK7PStringS2_
libopal.so.3.10.11:_ZN12H323EndPoint20CreateAuthenticatorsEv
libopal.so.3.10.11:_ZN12H323EndPoint20OnHTTPServiceControlEjjRK7PString
libopal.so.3.10.11:_ZN12H323EndPoint20OnRegistrationRejectEv
libopal.so.3.10.11:_ZN12H323EndPoint20OnSendCallProceedingER14H323ConnectionR13H323SignalPDU
libopal.so.3.10.11:_ZN12H323EndPoint21NewIncomingConnectionEP13OpalTransport
libopal.so.3.10.11:_ZN12H323EndPoint21OnConnectionForwardedER14H323ConnectionRK7PStringRK13H323SignalPDU
libopal.so.3.10.11:_ZN12H323EndPoint21OnGatekeeperNATDetectEN9PIPSocket7AddressER7PStringR20H323TransportAddress
libopal.so.3.10.11:_ZN12H323EndPoint21OnRegistrationConfirmEv
libopal.so.3.10.11:_ZN12H323EndPoint21OnStartLogicalChannelER14H323ConnectionR11H323Channel
libopal.so.3.10.11:_ZN12H323EndPoint21SetGatekeeperPasswordERK7PStringS2_
libopal.so.3.10.11:_ZN12H323EndPoint22FindConnectionWithLockERK7PString11PSafetyMode
libopal.so.3.10.11:_ZN12H323EndPoint22OnCallTransferIdentifyER14H323Connection
libopal.so.3.10.11:_ZN12H323EndPoint22OnCallTransferInitiateER14H323ConnectionRK7PString
libopal.so.3.10.11:_ZN12H323EndPoint22OnClosedLogicalChannelER14H323ConnectionRK11H323Channel
libopal.so.3.10.11:_ZN12H323EndPoint23IsConnectionEstablishedERK7PString
libopal.so.3.10.11:_ZN12H323EndPoint23OnConnectionEstablishedER14H323ConnectionRK7PString
libopal.so.3.10.11:_ZN12H323EndPoint23OnServiceControlSessionEjjRK25H323ServiceControlSessionP14H323Connection
libopal.so.3.10.11:_ZN12H323EndPoint24InternalCreateGatekeeperEP13OpalTransport
libopal.so.3.10.11:_ZN12H323EndPoint24SetDefaultLocalPartyNameERK7PString
libopal.so.3.10.11:_ZN12H323EndPoint26OnCallCreditServiceControlERK7PStringb
libopal.so.3.10.11:_ZN12H323EndPoint27AddAllUserInputCapabilitiesEii
libopal.so.3.10.11:_ZN12H323EndPoint27CreateServiceControlSessionERK29H225_ServiceControlDescriptor
libopal.so.3.10.11:_ZN12H323EndPoint29OnReceivedInitiateReturnErrorEv
libopal.so.3.10.11:_ZN12H323EndPoint33OnNegotiateConferenceCapabilitiesERK13H323SignalPDU
libopal.so.3.10.11:_ZN12H323EndPoint37OnCallIndependentSupplementaryServiceERK13H323SignalPDU
libopal.so.3.10.11:_ZN12H323EndPoint8ShutDownEv
libopal.so.3.10.11:_ZN12H323EndPoint9OnSendARQER14H323ConnectionR21H225_AdmissionRequest
libopal.so.3.10.11:_ZN12H323EndPointC1ER11OpalManager
libopal.so.3.10.11:_ZN12H323EndPointC2ER11OpalManager
libopal.so.3.10.11:_ZN12H323EndPointD0Ev
libopal.so.3.10.11:_ZN12H323EndPointD1Ev
libopal.so.3.10.11:_ZN12H323EndPointD2Ev
libopal.so.3.10.11:_ZN12H323_RTP_UDP13OnReceivedPDUER15H323_RTPChannelRK34H245_H2250LogicalChannelParametersRj
libopal.so.3.10.11:_ZN12H323_RTP_UDP13OnSendRasInfoER15H225_RTPSession
libopal.so.3.10.11:_ZN12H323_RTP_UDP16ExtractTransportERK21H245_TransportAddressbRj
libopal.so.3.10.11:_ZN12H323_RTP_UDP16OnReceivedAckPDUER15H323_RTPChannelRK37H245_H2250LogicalChannelAckParameters
libopal.so.3.10.11:_ZN12H323_RTP_UDPC1ERK14H323ConnectionR7RTP_UDP
libopal.so.3.10.11:_ZN12H323_RTP_UDPC2ERK14H323ConnectionR7RTP_UDP
libopal.so.3.10.11:_ZN12H4502Handler11StopctTimerEv
libopal.so.3.10.11:_ZN12H4502Handler12TransferCallERK7PStringS2_
libopal.so.3.10.11:_ZN12H4502Handler13AttachToSetupER13H323SignalPDU
libopal.so.3.10.11:_ZN12H4502Handler15AttachToConnectER13H323SignalPDU
libopal.so.3.10.11:_ZN12H4502Handler16AttachToAlertingER13H323SignalPDU
libopal.so.3.10.11:_ZN12H4502Handler16OnReceivedInvokeEiiiP16PASN_OctetString
libopal.so.3.10.11:_ZN12H4502Handler18AwaitSetupResponseERK7PStringS2_
libopal.so.3.10.11:_ZN12H4502Handler20ConsultationTransferERK7PString
libopal.so.3.10.11:_ZN12H4502Handler21OnCallTransferTimeOutER6PTimerl
libopal.so.3.10.11:_ZN12H4502Handler21OnReceivedReturnErrorEiR16X880_ReturnError
libopal.so.3.10.11:_ZN12H4502Handler22OnReceivedReturnResultER17X880_ReturnResult
libopal.so.3.10.11:_ZN12H4502Handler23AttachToReleaseCompleteER13H323SignalPDU
libopal.so.3.10.11:_ZN12H4502Handler25HandleCallTransferFailureEi
libopal.so.3.10.11:_ZN12H4502Handler25onReceivedAdmissionRejectEi
libopal.so.3.10.11:_ZN12H4502Handler26HandleConsultationTransferERK7PStringR14H323Connection
libopal.so.3.10.11:_ZN12H4502Handler26OnReceivedSetupReturnErrorEib
libopal.so.3.10.11:_ZN12H4502Handler27OnReceivedCallTransferSetupEiP16PASN_OctetString
libopal.so.3.10.11:_ZN12H4502Handler27OnReceivedSetupReturnResultEv
libopal.so.3.10.11:_ZN12H4502Handler28OnReceivedCallTransferActiveEiP16PASN_OctetString
libopal.so.3.10.11:_ZN12H4502Handler28OnReceivedCallTransferUpdateEiP16PASN_OctetString
libopal.so.3.10.11:_ZN12H4502Handler28OnReceivedSubaddressTransferEiP16PASN_OctetString
libopal.so.3.10.11:_ZN12H4502Handler29OnReceivedCallTransferAbandonEi
libopal.so.3.10.11:_ZN12H4502Handler29OnReceivedIdentifyReturnErrorEb
libopal.so.3.10.11:_ZN12H4502Handler29OnReceivedInitiateReturnErrorEb
libopal.so.3.10.11:_ZN12H4502Handler30OnReceivedCallTransferCompleteEiP16PASN_OctetString
libopal.so.3.10.11:_ZN12H4502Handler30OnReceivedCallTransferIdentifyEi
libopal.so.3.10.11:_ZN12H4502Handler30OnReceivedCallTransferInitiateEiP16PASN_OctetString
libopal.so.3.10.11:_ZN12H4502Handler30OnReceivedIdentifyReturnResultER17X880_ReturnResult
libopal.so.3.10.11:_ZN12H4502Handler30OnReceivedInitiateReturnResultEv
libopal.so.3.10.11:_ZN12H4502HandlerC1ER14H323ConnectionR15H450xDispatcher
libopal.so.3.10.11:_ZN12H4502HandlerC2ER14H323ConnectionR15H450xDispatcher
libopal.so.3.10.11:_ZN12H4504Handler12RetrieveCallEv
libopal.so.3.10.11:_ZN12H4504Handler16OnReceivedInvokeEiiiP16PASN_OctetString
libopal.so.3.10.11:_ZN12H4504Handler23OnReceivedLocalCallHoldEi
libopal.so.3.10.11:_ZN12H4504Handler24OnReceivedRemoteCallHoldEi
libopal.so.3.10.11:_ZN12H4504Handler27OnReceivedLocalCallRetrieveEi
libopal.so.3.10.11:_ZN12H4504Handler28OnReceivedRemoteCallRetrieveEi
libopal.so.3.10.11:_ZN12H4504Handler8HoldCallEb
libopal.so.3.10.11:_ZN12H4504HandlerC1ER14H323ConnectionR15H450xDispatcher
libopal.so.3.10.11:_ZN12H4504HandlerC2ER14H323ConnectionR15H450xDispatcher
libopal.so.3.10.11:_ZN12H4506Handler16AttachToAlertingER13H323SignalPDUj
libopal.so.3.10.11:_ZN12H4506Handler16OnReceivedInvokeEiiiP16PASN_OctetString
libopal.so.3.10.11:_ZN12H4506Handler31OnReceivedCallWaitingIndicationEiP16PASN_OctetString
libopal.so.3.10.11:_ZN12H4506HandlerC1ER14H323ConnectionR15H450xDispatcher
libopal.so.3.10.11:_ZN12H4506HandlerC2ER14H323ConnectionR15H450xDispatcher
libopal.so.3.10.11:_ZN12H4507Handler13AttachToSetupER13H323SignalPDUR25H4507_H323_MWI_OperationsR13PASN_Sequence
libopal.so.3.10.11:_ZN12H4507Handler16AttachErrorToPduER13H323SignalPDU36H4507_MessageWaitingIndicationErrors
libopal.so.3.10.11:_ZN12H4507Handler16OnReceivedInvokeEiiiP16PASN_OctetString
libopal.so.3.10.11:_ZN12H4507Handler28AttachInterrogateResultToPduER13H323SignalPDUR23H4507_MWIInterrogateRes
libopal.so.3.10.11:_ZN12H4507HandlerC1ER14H323ConnectionR15H450xDispatcher
libopal.so.3.10.11:_ZN12H4507HandlerC2ER14H323ConnectionR15H450xDispatcher
libopal.so.3.10.11:_ZN12H450xHandler13AttachToSetupER13H323SignalPDU
libopal.so.3.10.11:_ZN12H450xHandler15AttachToConnectER13H323SignalPDU
libopal.so.3.10.11:_ZN12H450xHandler15DecodeArgumentsEP16PASN_OctetStringR11PASN_Objecti
libopal.so.3.10.11:_ZN12H450xHandler15SendReturnErrorEi
libopal.so.3.10.11:_ZN12H450xHandler16AttachToAlertingER13H323SignalPDU
libopal.so.3.10.11:_ZN12H450xHandler16OnReceivedRejectEii
libopal.so.3.10.11:_ZN12H450xHandler16SendInvokeRejectEi
libopal.so.3.10.11:_ZN12H450xHandler17SendGeneralRejectEi
libopal.so.3.10.11:_ZN12H450xHandler21OnReceivedReturnErrorEiR16X880_ReturnError
libopal.so.3.10.11:_ZN12H450xHandler21SendReturnErrorRejectEi
libopal.so.3.10.11:_ZN12H450xHandler22OnReceivedReturnResultER17X880_ReturnResult
libopal.so.3.10.11:_ZN12H450xHandler22SendReturnResultRejectEi
libopal.so.3.10.11:_ZN12H450xHandler23AttachToReleaseCompleteER13H323SignalPDU
libopal.so.3.10.11:_ZN12H450xHandlerC1ER14H323ConnectionR15H450xDispatcher
libopal.so.3.10.11:_ZN12H450xHandlerC2ER14H323ConnectionR15H450xDispatcher
libopal.so.3.10.11:_ZN12H460_Feature12AddParameterEP14H460_FeatureID
libopal.so.3.10.11:_ZN12H460_Feature12AddParameterEP14H460_FeatureIDRK19H460_FeatureContent
libopal.so.3.10.11:_ZN12H460_Feature12AddParameterEP21H460_FeatureParameter
libopal.so.3.10.11:_ZN12H460_Feature13CreateFeatureERK7PStringiP14PPluginManager
libopal.so.3.10.11:_ZN12H460_Feature14AttachEndPointEP12H323EndPoint
libopal.so.3.10.11:_ZN12H460_Feature15GetCurrentTableEv
libopal.so.3.10.11:_ZN12H460_Feature15GetFeatureNamesEP14PPluginManager
libopal.so.3.10.11:_ZN12H460_Feature15RemoveParameterEi
libopal.so.3.10.11:_ZN12H460_Feature15SetCurrentTableER17H460_FeatureTable
libopal.so.3.10.11:_ZN12H460_Feature15SetCurrentTableER21H460_FeatureParameter
libopal.so.3.10.11:_ZN12H460_Feature15SetDefaultTableEv
libopal.so.3.10.11:_ZN12H460_Feature16AttachConnectionEP14H323Connection
libopal.so.3.10.11:_ZN12H460_Feature16ReplaceParameterE14H460_FeatureIDRK19H460_FeatureContent
libopal.so.3.10.11:_ZN12H460_Feature19GetFeatureParameterERK14H460_FeatureID
libopal.so.3.10.11:_ZN12H460_Feature19GetFeatureParameterEi
libopal.so.3.10.11:_ZN12H460_Feature19HasFeatureParameterERK14H460_FeatureID
libopal.so.3.10.11:_ZN12H460_Feature20GetFeatureIDAsStringEv
libopal.so.3.10.11:_ZN12H460_Feature23GetFeatureFriendlyNamesERK7PStringP14PPluginManager
libopal.so.3.10.11:_ZN12H460_Feature5ValueERK14H460_FeatureID
libopal.so.3.10.11:_ZN12H460_Feature8ContainsERK14H460_FeatureID
libopal.so.3.10.11:_ZN12H460_FeatureC1E7OpalOID
libopal.so.3.10.11:_ZN12H460_FeatureC1E7PString
libopal.so.3.10.11:_ZN12H460_FeatureC1ERK22H225_FeatureDescriptor
libopal.so.3.10.11:_ZN12H460_FeatureC1Ej
libopal.so.3.10.11:_ZN12H460_FeatureC1Ev
libopal.so.3.10.11:_ZN12H460_FeatureC2E7OpalOID
libopal.so.3.10.11:_ZN12H460_FeatureC2E7PString
libopal.so.3.10.11:_ZN12H460_FeatureC2ERK22H225_FeatureDescriptor
libopal.so.3.10.11:_ZN12H460_FeatureC2Ej
libopal.so.3.10.11:_ZN12H460_FeatureC2Ev
libopal.so.3.10.11:_ZN12H460_FeatureclERK14H460_FeatureID
libopal.so.3.10.11:_ZN12H460_FeatureclEi
libopal.so.3.10.11:_ZN12H501_Message6DecodeER11PASN_Stream
libopal.so.3.10.11:_ZN12H501_MessageC1EjN11PASN_Object8TagClassE
libopal.so.3.10.11:_ZN12H501_MessageC2EjN11PASN_Object8TagClassE
libopal.so.3.10.11:_ZN12H501_Pattern12CreateObjectEv
libopal.so.3.10.11:_ZN12H501_PatternC1EjN11PASN_Object8TagClassE
libopal.so.3.10.11:_ZN12H501_PatternC2EjN11PASN_Object8TagClassE
libopal.so.3.10.11:_ZN12H501_PatterncvR17H225_AliasAddressEv
libopal.so.3.10.11:_ZN12H501_PatterncvR18H501_Pattern_rangeEv
libopal.so.3.10.11:_ZN12IAX2EndPoint10InitialiseEv
libopal.so.3.10.11:_ZN12IAX2EndPoint10OnReleasedER14OpalConnection
libopal.so.3.10.11:_ZN12IAX2EndPoint10UnregisterERK7PStringS2_
libopal.so.3.10.11:_ZN12IAX2EndPoint11SetPasswordE7PString
libopal.so.3.10.11:_ZN12IAX2EndPoint12IsRegisteredERK7PStringS2_
libopal.so.3.10.11:_ZN12IAX2EndPoint12OnRegisteredERK7PStringS2_bNS_15RegisteredErrorE
libopal.so.3.10.11:_ZN12IAX2EndPoint13OnEstablishedER14OpalConnection
libopal.so.3.10.11:_ZN12IAX2EndPoint14MakeConnectionER8OpalCallRK7PStringPvjPN14OpalConnection13StringOptionsE
libopal.so.3.10.11:_ZN12IAX2EndPoint14OnUnregisteredERK7PStringS2_bNS_17UnregisteredErrorE
libopal.so.3.10.11:_ZN12IAX2EndPoint14SetLocalNumberE7PString
libopal.so.3.10.11:_ZN12IAX2EndPoint15GetCodecLengthsEiRiS0_
libopal.so.3.10.11:_ZN12IAX2EndPoint16CreateConnectionER8OpalCallRK7PStringPvS4_S4_
libopal.so.3.10.11:_ZN12IAX2EndPoint16SetLocalUserNameE7PString
libopal.so.3.10.11:_ZN12IAX2EndPoint17GetPreferredCodecER19OpalMediaFormatList
libopal.so.3.10.11:_ZN12IAX2EndPoint17NextSrcCallNumberEP13IAX2Processor
libopal.so.3.10.11:_ZN12IAX2EndPoint18DissectRemotePartyERK7PString
libopal.so.3.10.11:_ZN12IAX2EndPoint18GetSupportedCodecsER19OpalMediaFormatList
libopal.so.3.10.11:_ZN12IAX2EndPoint21CopyLocalMediaFormatsER19OpalMediaFormatList
libopal.so.3.10.11:_ZN12IAX2EndPoint21GetRegistrationsCountEv
libopal.so.3.10.11:_ZN12IAX2EndPoint21IncomingEthernetFrameEP9IAX2Frame
libopal.so.3.10.11:_ZN12IAX2EndPoint21NewIncomingConnectionEP13OpalTransport
libopal.so.3.10.11:_ZN12IAX2EndPoint21NewIncomingConnectionEP9IAX2Frame
libopal.so.3.10.11:_ZN12IAX2EndPoint22ReportTransmitterListsER7PStringb
libopal.so.3.10.11:_ZN12IAX2EndPoint23ReportStoredConnectionsEv
libopal.so.3.10.11:_ZN12IAX2EndPoint24ProcessFrameInConnectionEP9IAX2FrameRK7PString
libopal.so.3.10.11:_ZN12IAX2EndPoint25ConnectionForFrameIsAliveEP9IAX2Frame
libopal.so.3.10.11:_ZN12IAX2EndPoint26ProcessInConnectionTestAllEP9IAX2Frame
libopal.so.3.10.11:_ZN12IAX2EndPoint27ProcessInMatchingConnectionEP9IAX2Frame
libopal.so.3.10.11:_ZN12IAX2EndPoint29ProcessReceivedEthernetFramesEv
libopal.so.3.10.11:_ZN12IAX2EndPoint34GetOutSequenceNumberForStatusQueryEv
libopal.so.3.10.11:_ZN12IAX2EndPoint8BuildUrlERK7PStringS2_S2_S2_S2_
libopal.so.3.10.11:_ZN12IAX2EndPoint8RegisterERK7PStringS2_S2_i
libopal.so.3.10.11:_ZN12IAX2EndPointC1ER11OpalManagert
libopal.so.3.10.11:_ZN12IAX2EndPointC2ER11OpalManagert
libopal.so.3.10.11:_ZN12IAX2EndPointD0Ev
libopal.so.3.10.11:_ZN12IAX2EndPointD1Ev
libopal.so.3.10.11:_ZN12IAX2EndPointD2Ev
libopal.so.3.10.11:_ZN12IAX2IeBinary11WriteBinaryEPh
libopal.so.3.10.11:_ZN12IAX2IeBinary7GetDataER10PBYTEArray
libopal.so.3.10.11:_ZN12IAX2IeBinary7SetDataERK10PBYTEArray
libopal.so.3.10.11:_ZN12IAX2IeBinary8CopyDataEPS_
libopal.so.3.10.11:_ZN12IAX2IeBinaryC1EhPh
libopal.so.3.10.11:_ZN12IAX2IeBinaryC2EhPh
libopal.so.3.10.11:_ZN12IAX2IeString11WriteBinaryEPh
libopal.so.3.10.11:_ZN12IAX2IeString15GetLengthOfDataEv
libopal.so.3.10.11:_ZN12IAX2IeString7SetDataEPKc
libopal.so.3.10.11:_ZN12IAX2IeString7SetDataERK7PString
libopal.so.3.10.11:_ZN12IAX2IeStringC1EhPh
libopal.so.3.10.11:_ZN12IAX2IeStringC2EhPh
libopal.so.3.10.11:_ZN12IAX2IeUShort11WriteBinaryEPh
libopal.so.3.10.11:_ZN12IAX2IeUShortC1EhPh
libopal.so.3.10.11:_ZN12IAX2IeUShortC2EhPh
libopal.so.3.10.11:_ZN12IAX2Receiver17ReadNetworkSocketEv
libopal.so.3.10.11:_ZN12IAX2Receiver19AddNewReceivedFrameEP9IAX2Frame
libopal.so.3.10.11:_ZN12IAX2Receiver4MainEv
libopal.so.3.10.11:_ZN12IAX2Receiver9TerminateEv
libopal.so.3.10.11:_ZN12IAX2ReceiverC1ER12IAX2EndPointR10PUDPSocket
libopal.so.3.10.11:_ZN12IAX2ReceiverC2ER12IAX2EndPointR10PUDPSocket
libopal.so.3.10.11:_ZN12IAX2ReceiverD0Ev
libopal.so.3.10.11:_ZN12IAX2ReceiverD1Ev
libopal.so.3.10.11:_ZN12IAX2ReceiverD2Ev
libopal.so.3.10.11:_ZN12IAX2Transmit11ReportListsER7PStringb
libopal.so.3.10.11:_ZN12IAX2Transmit15ProcessSendListEv
libopal.so.3.10.11:_ZN12IAX2Transmit17ProcessAckingListEv
libopal.so.3.10.11:_ZN12IAX2Transmit23PurgeMatchingFullFramesEP9IAX2Frame
libopal.so.3.10.11:_ZN12IAX2Transmit23SendVnakRequestedFramesER21IAX2FullFrameProtocol
libopal.so.3.10.11:_ZN12IAX2Transmit4MainEv
libopal.so.3.10.11:_ZN12IAX2Transmit9SendFrameEP9IAX2Frame
libopal.so.3.10.11:_ZN12IAX2Transmit9TerminateEv
libopal.so.3.10.11:_ZN12IAX2TransmitC1ER12IAX2EndPointR10PUDPSocket
libopal.so.3.10.11:_ZN12IAX2TransmitC2ER12IAX2EndPointR10PUDPSocket
libopal.so.3.10.11:_ZN12IAX2TransmitD0Ev
libopal.so.3.10.11:_ZN12IAX2TransmitD1Ev
libopal.so.3.10.11:_ZN12IAX2TransmitD2Ev
libopal.so.3.10.11:_ZN12MSRPProtocol10SendREPORTERK7PStringS2_S2_RK9PMIMEInfo
libopal.so.3.10.11:_ZN12MSRPProtocol11ReadMessageERiR7PStringR9PMIMEInfoS2_
libopal.so.3.10.11:_ZN12MSRPProtocol12SendResponseERK7PStringjS2_S2_S2_
libopal.so.3.10.11:_ZN12MSRPProtocol8SendSENDERK4PURLS2_RK7PStringS5_RS3_
libopal.so.3.10.11:_ZN12MSRPProtocol9SendChunkERK7PStringS0_S0_RK9PMIMEInfoS2_
libopal.so.3.10.11:_ZN12MSRPProtocolC1Ev
libopal.so.3.10.11:_ZN12MSRPProtocolC2Ev
libopal.so.3.10.11:_ZN12OpalEndPoint10OnAlertingER14OpalConnection
libopal.so.3.10.11:_ZN12OpalEndPoint10OnReleasedER14OpalConnection
libopal.so.3.10.11:_ZN12OpalEndPoint11OnConnectedER14OpalConnection
libopal.so.3.10.11:_ZN12OpalEndPoint11OnForwardedER14OpalConnectionRK7PString
libopal.so.3.10.11:_ZN12OpalEndPoint12FindListenerERK20OpalTransportAddress
libopal.so.3.10.11:_ZN12OpalEndPoint12OnAnswerCallER14OpalConnectionRK7PString
libopal.so.3.10.11:_ZN12OpalEndPoint12OnProceedingER14OpalConnection
libopal.so.3.10.11:_ZN12OpalEndPoint12StopListenerERK20OpalTransportAddress
libopal.so.3.10.11:_ZN12OpalEndPoint13AddConnectionEP14OpalConnection
libopal.so.3.10.11:_ZN12OpalEndPoint13ClearAllCallsEN14OpalConnection13CallEndReasonEb
libopal.so.3.10.11:_ZN12OpalEndPoint13HasConnectionERK7PString
libopal.so.3.10.11:_ZN12OpalEndPoint13OnEstablishedER14OpalConnection
libopal.so.3.10.11:_ZN12OpalEndPoint13OnMWIReceivedERK7PStringN11OpalManager18MessageWaitingTypeES2_
libopal.so.3.10.11:_ZN12OpalEndPoint13ReadUserInputER14OpalConnectionPKcjj
libopal.so.3.10.11:_ZN12OpalEndPoint13StartListenerEP12OpalListener
libopal.so.3.10.11:_ZN12OpalEndPoint13StartListenerERK20OpalTransportAddress
libopal.so.3.10.11:_ZN12OpalEndPoint14RemoveListenerEP12OpalListener
libopal.so.3.10.11:_ZN12OpalEndPoint14StartListenersERK12PStringArray
libopal.so.3.10.11:_ZN12OpalEndPoint15OnNewConnectionER8OpalCallR14OpalConnection
libopal.so.3.10.11:_ZN12OpalEndPoint15OnUserInputToneER14OpalConnectionci
libopal.so.3.10.11:_ZN12OpalEndPoint16ListenerCallbackER7PThreadl
libopal.so.3.10.11:_ZN12OpalEndPoint16OnTransferNotifyER14OpalConnectionRK15PStringToString
libopal.so.3.10.11:_ZN12OpalEndPoint17DestroyConnectionEP14OpalConnection
libopal.so.3.10.11:_ZN12OpalEndPoint17GarbageCollectionEv
libopal.so.3.10.11:_ZN12OpalEndPoint17GetAllConnectionsEv
libopal.so.3.10.11:_ZN12OpalEndPoint17OnMessageReceivedERK6OpalIM
libopal.so.3.10.11:_ZN12OpalEndPoint17OnOpenMediaStreamER14OpalConnectionR15OpalMediaStream
libopal.so.3.10.11:_ZN12OpalEndPoint17OnSetUpConnectionER14OpalConnection
libopal.so.3.10.11:_ZN12OpalEndPoint17OnUserInputStringER14OpalConnectionRK7PString
libopal.so.3.10.11:_ZN12OpalEndPoint19OnClosedMediaStreamERK15OpalMediaStream
libopal.so.3.10.11:_ZN12OpalEndPoint20ClearCallSynchronousERK7PStringN14OpalConnection13CallEndReasonEP10PSyncPoint
libopal.so.3.10.11:_ZN12OpalEndPoint20OnIncomingConnectionER14OpalConnectionjPNS0_13StringOptionsE
libopal.so.3.10.11:_ZN12OpalEndPoint21GetInterfaceAddressesEbPK13OpalTransport
libopal.so.3.10.11:_ZN12OpalEndPoint21NewIncomingConnectionEP13OpalTransport
libopal.so.3.10.11:_ZN12OpalEndPoint22CreateVideoInputDeviceERK14OpalConnectionRK15OpalMediaFormatRP17PVideoInputDeviceRb
libopal.so.3.10.11:_ZN12OpalEndPoint23CreateVideoOutputDeviceERK14OpalConnectionRK15OpalMediaFormatbRP18PVideoOutputDeviceRb
libopal.so.3.10.11:_ZN12OpalEndPoint23FindListenerForProtocolEPKcR20OpalTransportAddress
libopal.so.3.10.11:_ZN12OpalEndPoint6OnHoldER14OpalConnection
libopal.so.3.10.11:_ZN12OpalEndPoint6OnHoldER14OpalConnectionbb
libopal.so.3.10.11:_ZN12OpalEndPoint7MessageER6OpalIM
libopal.so.3.10.11:_ZN12OpalEndPoint7MessageERK4PURLRK7PStringS5_RS0_RS3_
libopal.so.3.10.11:_ZN12OpalEndPoint7MessageERK7PStringS2_
libopal.so.3.10.11:_ZN12OpalEndPoint8ShutDownEv
libopal.so.3.10.11:_ZN12OpalEndPoint9ClearCallERK7PStringN14OpalConnection13CallEndReasonEP10PSyncPoint
libopal.so.3.10.11:_ZN12OpalEndPointC1ER11OpalManagerRK15PCaselessStringj
libopal.so.3.10.11:_ZN12OpalEndPointC2ER11OpalManagerRK15PCaselessStringj
libopal.so.3.10.11:_ZN12OpalEndPointD0Ev
libopal.so.3.10.11:_ZN12OpalEndPointD1Ev
libopal.so.3.10.11:_ZN12OpalEndPointD2Ev
libopal.so.3.10.11:_ZN12OpalG711_PLC11dofe_partlyEPsii
libopal.so.3.10.11:_ZN12OpalG711_PLC11getfespeechEPsii
libopal.so.3.10.11:_ZN12OpalG711_PLC12addtohistoryEPsi
libopal.so.3.10.11:_ZN12OpalG711_PLC15hist_savespeechEPsi
libopal.so.3.10.11:_ZN12OpalG711_PLC4dofeEPsi
libopal.so.3.10.11:_ZN12OpalG711_PLC4dropEPsi
libopal.so.3.10.11:_ZN12OpalG711_PLC9findpitchEi
libopal.so.3.10.11:_ZN12OpalG711_PLCC1Eiidd
libopal.so.3.10.11:_ZN12OpalG711_PLCC2Eiidd
libopal.so.3.10.11:_ZN12OpalG711_PLCD1Ev
libopal.so.3.10.11:_ZN12OpalG711_PLCD2Ev
libopal.so.3.10.11:_ZN12OpalListener11StartThreadERK17PNotifierTemplateIlENS_10ThreadModeE
libopal.so.3.10.11:_ZN12OpalListener20ListenForConnectionsER7PThreadl
libopal.so.3.10.11:_ZN12OpalListener9CloseWaitEv
libopal.so.3.10.11:_ZN12OpalListenerC1ER12OpalEndPoint
libopal.so.3.10.11:_ZN12OpalListenerC2ER12OpalEndPoint
libopal.so.3.10.11:_ZN12OpalPCAPFile10SetFiltersERKNS_16DiscoveredRTPMapEm
libopal.so.3.10.11:_ZN12OpalPCAPFile10SetFiltersERKNS_17DiscoveredRTPInfoEi
libopal.so.3.10.11:_ZN12OpalPCAPFile11DiscoverRTPERNS_16DiscoveredRTPMapE
libopal.so.3.10.11:_ZN12OpalPCAPFile11GetDataLinkER10PBYTEArray
libopal.so.3.10.11:_ZN12OpalPCAPFile13ReadRawPacketER10PBYTEArray
libopal.so.3.10.11:_ZN12OpalPCAPFile13SetPayloadMapEN13RTP_DataFrame12PayloadTypesERK15OpalMediaFormat
libopal.so.3.10.11:_ZN12OpalPCAPFile17DiscoveredRTPInfoC1Ev
libopal.so.3.10.11:_ZN12OpalPCAPFile17DiscoveredRTPInfoC2Ev
libopal.so.3.10.11:_ZN12OpalPCAPFile25GetNetworkLayerHeaderSizeEv
libopal.so.3.10.11:_ZN12OpalPCAPFile4OpenERK9PFilePath
libopal.so.3.10.11:_ZN12OpalPCAPFile5GetIPER10PBYTEArray
libopal.so.3.10.11:_ZN12OpalPCAPFile6GetRTPER13RTP_DataFrame
libopal.so.3.10.11:_ZN12OpalPCAPFile6GetUDPER10PBYTEArray
libopal.so.3.10.11:_ZN12OpalPCAPFile7RestartEv
libopal.so.3.10.11:_ZN12OpalPCAPFileC1Ev
libopal.so.3.10.11:_ZN12OpalPCAPFileC2Ev
libopal.so.3.10.11:_ZN12RTP_Encoding10OnSendDataER13RTP_DataFrame
libopal.so.3.10.11:_ZN12RTP_Encoding10WaitForPDUER10PUDPSocketS1_RK13PTimeInterval
libopal.so.3.10.11:_ZN12RTP_Encoding11ReadDataPDUER13RTP_DataFrame
libopal.so.3.10.11:_ZN12RTP_Encoding12WriteDataPDUER13RTP_DataFrame
libopal.so.3.10.11:_ZN12RTP_Encoding13OnReadTimeoutER13RTP_DataFrame
libopal.so.3.10.11:_ZN12RTP_Encoding13OnReceiveDataER13RTP_DataFrame
libopal.so.3.10.11:_ZN12RTP_Encoding13OnSendControlER16RTP_ControlFrameRi
libopal.so.3.10.11:_ZN12RTP_Encoding7OnStartER11RTP_Session
libopal.so.3.10.11:_ZN12RTP_Encoding8OnFinishEv
libopal.so.3.10.11:_ZN12RTP_Encoding8ReadDataER13RTP_DataFrame
libopal.so.3.10.11:_ZN12RTP_Encoding9WriteDataER13RTP_DataFrameb
libopal.so.3.10.11:_ZN12RTP_EncodingC1Ev
libopal.so.3.10.11:_ZN12RTP_EncodingC2Ev
libopal.so.3.10.11:_ZN12RTP_EncodingD0Ev
libopal.so.3.10.11:_ZN12RTP_EncodingD1Ev
libopal.so.3.10.11:_ZN12RTP_EncodingD2Ev
libopal.so.3.10.11:_ZN12RTP_UserData14SessionFailingER11RTP_Session
libopal.so.3.10.11:_ZN12SDPBandwidth5ParseERK7PString
libopal.so.3.10.11:_ZN12SDPBandwidth6SetMaxERK15PCaselessStringj
libopal.so.3.10.11:_ZN12SDPBandwidthixERK15PCaselessString
libopal.so.3.10.11:_ZN12SIPSubscribe12EventPackageC1ENS_18PredefinedPackagesE
libopal.so.3.10.11:_ZN12SIPSubscribe12EventPackageC2ENS_18PredefinedPackagesE
libopal.so.3.10.11:_ZN12SIPSubscribe12EventPackageaSENS_18PredefinedPackagesE
libopal.so.3.10.11:_ZN12SIPSubscribe18NotifyCallbackInfo12SendResponseEN7SIP_PDU11StatusCodesEPKc
libopal.so.3.10.11:_ZN12SIPSubscribe18NotifyCallbackInfoC1ER11SIPEndPointR13OpalTransportR7SIP_PDUS6_
libopal.so.3.10.11:_ZN12SIPSubscribe18NotifyCallbackInfoC2ER11SIPEndPointR13OpalTransportR7SIP_PDUS6_
libopal.so.3.10.11:_ZN12SIPSubscribeC1ER11SIPEndPointR13OpalTransportR16SIPDialogContextRKNS_6ParamsE
libopal.so.3.10.11:_ZN12SIPSubscribeC2ER11SIPEndPointR13OpalTransportR16SIPDialogContextRKNS_6ParamsE
libopal.so.3.10.11:_ZN13H225_CallType12CreateObjectEv
libopal.so.3.10.11:_ZN13H225_CallTypeC1EjN11PASN_Object8TagClassE
libopal.so.3.10.11:_ZN13H225_CallTypeC2EjN11PASN_Object8TagClassE
libopal.so.3.10.11:_ZN13H225_DataRate6DecodeER11PASN_Stream
libopal.so.3.10.11:_ZN13H225_DataRateC1EjN11PASN_Object8TagClassE
libopal.so.3.10.11:_ZN13H225_DataRateC2EjN11PASN_Object8TagClassE
libopal.so.3.10.11:_ZN13H225_Endpoint6DecodeER11PASN_Stream
libopal.so.3.10.11:_ZN13H225_EndpointC1EjN11PASN_Object8TagClassE
libopal.so.3.10.11:_ZN13H225_EndpointC2EjN11PASN_Object8TagClassE
libopal.so.3.10.11:_ZN13H225_H310Caps6DecodeER11PASN_Stream
libopal.so.3.10.11:_ZN13H225_H310CapsC1EjN11PASN_Object8TagClassE
libopal.so.3.10.11:_ZN13H225_H310CapsC2EjN11PASN_Object8TagClassE
libopal.so.3.10.11:_ZN13H225_H320Caps6DecodeER11PASN_Stream
libopal.so.3.10.11:_ZN13H225_H320CapsC1EjN11PASN_Object8TagClassE
libopal.so.3.10.11:_ZN13H225_H320CapsC2EjN11PASN_Object8TagClassE
libopal.so.3.10.11:_ZN13H225_H321Caps6DecodeER11PASN_Stream
libopal.so.3.10.11:_ZN13H225_H321CapsC1EjN11PASN_Object8TagClassE
libopal.so.3.10.11:_ZN13H225_H321CapsC2EjN11PASN_Object8TagClassE
libopal.so.3.10.11:_ZN13H225_H322Caps6DecodeER11PASN_Stream
libopal.so.3.10.11:_ZN13H225_H322CapsC1EjN11PASN_Object8TagClassE
libopal.so.3.10.11:_ZN13H225_H322CapsC2EjN11PASN_Object8TagClassE
libopal.so.3.10.11:_ZN13H225_H323Caps6DecodeER11PASN_Stream
libopal.so.3.10.11:_ZN13H225_H323CapsC1EjN11PASN_Object8TagClassE
libopal.so.3.10.11:_ZN13H225_H323CapsC2EjN11PASN_Object8TagClassE
libopal.so.3.10.11:_ZN13H225_H324Caps6DecodeER11PASN_Stream
libopal.so.3.10.11:_ZN13H225_H324CapsC1EjN11PASN_Object8TagClassE
libopal.so.3.10.11:_ZN13H225_H324CapsC2EjN11PASN_Object8TagClassE
libopal.so.3.10.11:_ZN13H235_PasswordC1EjN11PASN_Object8TagClassE
libopal.so.3.10.11:_ZN13H235_PasswordC2EjN11PASN_Object8TagClassE
libopal.so.3.10.11:_ZN13H235_PasswordaSEPKc
libopal.so.3.10.11:_ZN13H235_PasswordaSERK10PBaseArrayIwE
libopal.so.3.10.11:_ZN13H235_PasswordaSERK14PASN_BMPString
libopal.so.3.10.11:_ZN13H235_PasswordaSERK7PString
libopal.so.3.10.11:_ZN13H245_Criteria6DecodeER11PASN_Stream
libopal.so.3.10.11:_ZN13H245_CriteriaC1EjN11PASN_Object8TagClassE
libopal.so.3.10.11:_ZN13H245_CriteriaC2EjN11PASN_Object8TagClassE
libopal.so.3.10.11:_ZN13H245_DataMode6DecodeER11PASN_Stream
libopal.so.3.10.11:_ZN13H245_DataModeC1EjN11PASN_Object8TagClassE
libopal.so.3.10.11:_ZN13H245_DataModeC2EjN11PASN_Object8TagClassE
libopal.so.3.10.11:_ZN13H245_DataType12CreateObjectEv
libopal.so.3.10.11:_ZN13H245_DataTypeC1EjN11PASN_Object8TagClassE
libopal.so.3.10.11:_ZN13H245_DataTypeC2EjN11PASN_Object8TagClassE
libopal.so.3.10.11:_ZN13H245_DataTypecvR12H245_FECDataEv
libopal.so.3.10.11:_ZN13H245_DataTypecvR14H245_H235MediaEv
libopal.so.3.10.11:_ZN13H245_DataTypecvR15H245_DepFECDataEv
libopal.so.3.10.11:_ZN13H245_DataTypecvR19H245_EncryptionModeEv
libopal.so.3.10.11:_ZN13H245_DataTypecvR20H245_AudioCapabilityEv
libopal.so.3.10.11:_ZN13H245_DataTypecvR20H245_VideoCapabilityEv
libopal.so.3.10.11:_ZN13H245_DataTypecvR23H245_RedundancyEncodingEv
libopal.so.3.10.11:_ZN13H245_DataTypecvR25H245_NonStandardParameterEv
libopal.so.3.10.11:_ZN13H245_DataTypecvR26H245_MultiplePayloadStreamEv
libopal.so.3.10.11:_ZN13H245_DataTypecvR30H245_DataApplicationCapabilityEv
libopal.so.3.10.11:_ZN13H245_DataTypecvR31H245_MultiplexedStreamParameterEv
libopal.so.3.10.11:_ZN13H245_H235Mode6DecodeER11PASN_Stream
libopal.so.3.10.11:_ZN13H245_H235ModeC1EjN11PASN_Object8TagClassE
libopal.so.3.10.11:_ZN13H245_H235ModeC2EjN11PASN_Object8TagClassE
libopal.so.3.10.11:_ZN13H245_PasswordC1EPKc
libopal.so.3.10.11:_ZN13H245_PasswordC1ERK10PBYTEArray
libopal.so.3.10.11:_ZN13H245_PasswordC1ERK7PString
libopal.so.3.10.11:_ZN13H245_PasswordC1EjN11PASN_Object8TagClassE
libopal.so.3.10.11:_ZN13H245_PasswordC2EPKc
libopal.so.3.10.11:_ZN13H245_PasswordC2ERK10PBYTEArray
libopal.so.3.10.11:_ZN13H245_PasswordC2ERK7PString
libopal.so.3.10.11:_ZN13H245_PasswordC2EjN11PASN_Object8TagClassE
libopal.so.3.10.11:_ZN13H245_PasswordaSEPKc
libopal.so.3.10.11:_ZN13H245_PasswordaSERK10PBYTEArray
libopal.so.3.10.11:_ZN13H245_PasswordaSERK7PString
libopal.so.3.10.11:_ZN13H245_QOSClass12CreateObjectEv
libopal.so.3.10.11:_ZN13H245_QOSClassC1EjN11PASN_Object8TagClassE
libopal.so.3.10.11:_ZN13H245_QOSClassC2EjN11PASN_Object8TagClassE
libopal.so.3.10.11:_ZN13H248_AuthDataC1EPKc
libopal.so.3.10.11:_ZN13H248_AuthDataC1ERK10PBYTEArray
libopal.so.3.10.11:_ZN13H248_AuthDataC1ERK7PString
libopal.so.3.10.11:_ZN13H248_AuthDataC1EjN11PASN_Object8TagClassE
libopal.so.3.10.11:_ZN13H248_AuthDataC2EPKc
libopal.so.3.10.11:_ZN13H248_AuthDataC2ERK10PBYTEArray
libopal.so.3.10.11:_ZN13H248_AuthDataC2ERK7PString
libopal.so.3.10.11:_ZN13H248_AuthDataC2EjN11PASN_Object8TagClassE
libopal.so.3.10.11:_ZN13H248_AuthDataaSEPKc
libopal.so.3.10.11:_ZN13H248_AuthDataaSERK10PBYTEArray
libopal.so.3.10.11:_ZN13H248_AuthDataaSERK7PString
libopal.so.3.10.11:_ZN13H248_PathNameC1EjN11PASN_Object8TagClassE
libopal.so.3.10.11:_ZN13H248_PathNameC2EjN11PASN_Object8TagClassE
libopal.so.3.10.11:_ZN13H248_PathNameaSEPKc
libopal.so.3.10.11:_ZN13H248_PathNameaSERK7PString
libopal.so.3.10.11:_ZN13H248_PkgdNameC1EPKc
libopal.so.3.10.11:_ZN13H248_PkgdNameC1ERK10PBYTEArray
libopal.so.3.10.11:_ZN13H248_PkgdNameC1ERK7PString
libopal.so.3.10.11:_ZN13H248_PkgdNameC1EjN11PASN_Object8TagClassE
libopal.so.3.10.11:_ZN13H248_PkgdNameC2EPKc
libopal.so.3.10.11:_ZN13H248_PkgdNameC2ERK10PBYTEArray
libopal.so.3.10.11:_ZN13H248_PkgdNameC2ERK7PString
libopal.so.3.10.11:_ZN13H248_PkgdNameC2EjN11PASN_Object8TagClassE
libopal.so.3.10.11:_ZN13H248_PkgdNameaSEPKc
libopal.so.3.10.11:_ZN13H248_PkgdNameaSERK10PBYTEArray
libopal.so.3.10.11:_ZN13H248_PkgdNameaSERK7PString
libopal.so.3.10.11:_ZN13H248_RelationC1EjN11PASN_Object8TagClassE
libopal.so.3.10.11:_ZN13H248_RelationC2EjN11PASN_Object8TagClassE
libopal.so.3.10.11:_ZN13H248_RelationaSEj
libopal.so.3.10.11:_ZN13H248_StreamIDC1EjN11PASN_Object8TagClassE
libopal.so.3.10.11:_ZN13H248_StreamIDC2EjN11PASN_Object8TagClassE
libopal.so.3.10.11:_ZN13H248_StreamIDaSEi
libopal.so.3.10.11:_ZN13H248_StreamIDaSEj
libopal.so.3.10.11:_ZN13H323SignalPDU10BuildSetupERK14H323ConnectionRK20H323TransportAddress
libopal.so.3.10.11:_ZN13H323SignalPDU11BuildNotifyERK14H323Connection
libopal.so.3.10.11:_ZN13H323SignalPDU11BuildStatusERK14H323Connection
libopal.so.3.10.11:_ZN13H323SignalPDU12BuildConnectERK14H323Connection
libopal.so.3.10.11:_ZN13H323SignalPDU12BuildConnectERK14H323ConnectionRKN9PIPSocket7AddressEt
libopal.so.3.10.11:_ZN13H323SignalPDU13BuildAlertingERK14H323Connection
libopal.so.3.10.11:_ZN13H323SignalPDU13BuildFacilityERK14H323Connectionbj
libopal.so.3.10.11:_ZN13H323SignalPDU13BuildProgressERK14H323Connection
libopal.so.3.10.11:_ZN13H323SignalPDU13SetQ931FieldsERK14H323Connectionb
libopal.so.3.10.11:_ZN13H323SignalPDU15InsertH460SetupERK14H323ConnectionR15H225_Setup_UUIE
libopal.so.3.10.11:_ZN13H323SignalPDU16BuildInformationERK14H323Connection
libopal.so.3.10.11:_ZN13H323SignalPDU18BuildStatusInquiryERK14H323Connection
libopal.so.3.10.11:_ZN13H323SignalPDU19BuildCallProceedingERK14H323Connection
libopal.so.3.10.11:_ZN13H323SignalPDU20BuildReleaseCompleteERK14H323Connection
libopal.so.3.10.11:_ZN13H323SignalPDU21BuildSetupAcknowledgeERK14H323Connection
libopal.so.3.10.11:_ZN13H323SignalPDU4ReadER13OpalTransport
libopal.so.3.10.11:_ZN13H323SignalPDU5WriteER13OpalTransport
libopal.so.3.10.11:_ZN13H323SignalPDU9BuildQ931Ev
libopal.so.3.10.11:_ZN13H323SignalPDUC1Ev
libopal.so.3.10.11:_ZN13H323SignalPDUC2Ev
libopal.so.3.10.11:_ZN13H45011Handler11IntrudeCallEi
libopal.so.3.10.11:_ZN13H45011Handler11StopciTimerEv
libopal.so.3.10.11:_ZN13H45011Handler13AttachToSetupER13H323SignalPDU
libopal.so.3.10.11:_ZN13H45011Handler15AttachToConnectER13H323SignalPDU
libopal.so.3.10.11:_ZN13H45011Handler16AttachToAlertingER13H323SignalPDU
libopal.so.3.10.11:_ZN13H45011Handler16OnReceivedInvokeEiiiP16PASN_OctetString
libopal.so.3.10.11:_ZN13H45011Handler16OnReceivedRejectEii
libopal.so.3.10.11:_ZN13H45011Handler18AwaitSetupResponseERK7PStringS2_
libopal.so.3.10.11:_ZN13H45011Handler20OnCallIntrudeTimeOutER6PTimerl
libopal.so.3.10.11:_ZN13H45011Handler21OnReceivedCallWaitingEiP16PASN_OctetString
libopal.so.3.10.11:_ZN13H45011Handler21OnReceivedCfbOverrideEiP16PASN_OctetString
libopal.so.3.10.11:_ZN13H45011Handler21OnReceivedReturnErrorEiR16X880_ReturnError
libopal.so.3.10.11:_ZN13H45011Handler21SetIntrusionImpendingEv
libopal.so.3.10.11:_ZN13H45011Handler22OnReceivedReturnResultER17X880_ReturnResult
libopal.so.3.10.11:_ZN13H45011Handler23AttachToReleaseCompleteER13H323SignalPDU
libopal.so.3.10.11:_ZN13H45011Handler24SetForcedReleaseAcceptedEv
libopal.so.3.10.11:_ZN13H45011Handler25OnReceivedCIGetCIPLResultER17X880_ReturnResult
libopal.so.3.10.11:_ZN13H45011Handler25OnReceivedCIRequestResultEv
libopal.so.3.10.11:_ZN13H45011Handler25SetIntrusionNotAuthorizedEv
libopal.so.3.10.11:_ZN13H45011Handler27OnReceivedInvokeReturnErrorEib
libopal.so.3.10.11:_ZN13H45011Handler28OnReceivedGetCIPLReturnErrorEib
libopal.so.3.10.11:_ZN13H45011Handler28OnReceivedRemoteUserAlertingEiP16PASN_OctetString
libopal.so.3.10.11:_ZN13H45011Handler30OnReceivedCallIntrusionGetCIPLEiP16PASN_OctetString
libopal.so.3.10.11:_ZN13H45011Handler30OnReceivedCallIntrusionIsolateEiP16PASN_OctetString
libopal.so.3.10.11:_ZN13H45011Handler30OnReceivedCallIntrusionRequestEiP16PASN_OctetString
libopal.so.3.10.11:_ZN13H45011Handler33OnReceivedCallIntrusionWOBRequestEiP16PASN_OctetString
libopal.so.3.10.11:_ZN13H45011Handler35OnReceivedCallIntrusionNotificationEiP16PASN_OctetString
libopal.so.3.10.11:_ZN13H45011Handler36OnReceivedCallIntrusionForcedReleaseEiP16PASN_OctetString
libopal.so.3.10.11:_ZN13H45011Handler36OnReceivedCallIntrusionSilentMonitorEiP16PASN_OctetString
libopal.so.3.10.11:_ZN13H45011Handler37GetRemoteCallIntrusionProtectionLevelERK7PStringj
libopal.so.3.10.11:_ZN13H45011HandlerC1ER14H323ConnectionR15H450xDispatcher
libopal.so.3.10.11:_ZN13H45011HandlerC2ER14H323ConnectionR15H450xDispatcher
libopal.so.3.10.11:_ZN13H4501_Address6DecodeER11PASN_Stream
libopal.so.3.10.11:_ZN13H4501_AddressC1EjN11PASN_Object8TagClassE
libopal.so.3.10.11:_ZN13H4501_AddressC2EjN11PASN_Object8TagClassE
libopal.so.3.10.11:_ZN13H460TM_TMmodeC1EjN11PASN_Object8TagClassE
libopal.so.3.10.11:_ZN13H460TM_TMmodeC2EjN11PASN_Object8TagClassE
libopal.so.3.10.11:_ZN13H460TM_TMmodeaSEj
libopal.so.3.10.11:_ZN13H501_TimeZoneC1EjN11PASN_Object8TagClassE
libopal.so.3.10.11:_ZN13H501_TimeZoneC2EjN11PASN_Object8TagClassE
libopal.so.3.10.11:_ZN13H501_TimeZoneaSEi
libopal.so.3.10.11:_ZN13H501_TimeZoneaSEj
libopal.so.3.10.11:_ZN13IAX2FrameList10InitialiseEv
libopal.so.3.10.11:_ZN13IAX2FrameList10ReportListER7PString
libopal.so.3.10.11:_ZN13IAX2FrameList11AddNewFrameEP9IAX2Frame
libopal.so.3.10.11:_ZN13IAX2FrameList12GetLastFrameEv
libopal.so.3.10.11:_ZN13IAX2FrameList12GrabContentsERS_
libopal.so.3.10.11:_ZN13IAX2FrameList15MarkAllAsResentEv
libopal.so.3.10.11:_ZN13IAX2FrameList23DeleteMatchingSendFrameEP13IAX2FullFrame
libopal.so.3.10.11:_ZN13IAX2FrameList23SendVnakRequestedFramesER21IAX2FullFrameProtocol
libopal.so.3.10.11:_ZN13IAX2FrameList30GetResendFramesDeleteOldFramesERS_
libopal.so.3.10.11:_ZN13IAX2FrameListD0Ev
libopal.so.3.10.11:_ZN13IAX2FrameListD1Ev
libopal.so.3.10.11:_ZN13IAX2FrameListD2Ev
libopal.so.3.10.11:_ZN13IAX2FullFrame10IsNewFrameEv
libopal.so.3.10.11:_ZN13IAX2FullFrame11IsPingFrameEv
libopal.so.3.10.11:_ZN13IAX2FullFrame11IsPongFrameEv
libopal.so.3.10.11:_ZN13IAX2FullFrame11IsVnakFrameEv
libopal.so.3.10.11:_ZN13IAX2FullFrame11WriteHeaderEv
libopal.so.3.10.11:_ZN13IAX2FullFrame12IsLagRpFrameEv
libopal.so.3.10.11:_ZN13IAX2FullFrame12IsLagRqFrameEv
libopal.so.3.10.11:_ZN13IAX2FullFrame12MarkAsResentEv
libopal.so.3.10.11:_ZN13IAX2FullFrame13IsHangupFrameEv
libopal.so.3.10.11:_ZN13IAX2FullFrame13IsRegAckFrameEv
libopal.so.3.10.11:_ZN13IAX2FullFrame13IsRegRejFrameEv
libopal.so.3.10.11:_ZN13IAX2FullFrame13IsRegRelFrameEv
libopal.so.3.10.11:_ZN13IAX2FullFrame13IsRegReqFrameEv
libopal.so.3.10.11:_ZN13IAX2FullFrame13MarkDeleteNowEv
libopal.so.3.10.11:_ZN13IAX2FullFrame13ZeroAllValuesEv
libopal.so.3.10.11:_ZN13IAX2FullFrame14ClearListFlagsEv
libopal.so.3.10.11:_ZN13IAX2FullFrame14IsAuthReqFrameEv
libopal.so.3.10.11:_ZN13IAX2FullFrame14IsRegAuthFrameEv
libopal.so.3.10.11:_ZN13IAX2FullFrame14TransmitPacketER10PUDPSocket
libopal.so.3.10.11:_ZN13IAX2FullFrame15MarkVnakSendNowEv
libopal.so.3.10.11:_ZN13IAX2FullFrame16CompressSubClassEv
libopal.so.3.10.11:_ZN13IAX2FullFrame16GetMediaDataSizeEv
libopal.so.3.10.11:_ZN13IAX2FullFrame16InitialiseHeaderEP13IAX2Processor
libopal.so.3.10.11:_ZN13IAX2FullFrame16IsCallTokenFrameEv
libopal.so.3.10.11:_ZN13IAX2FullFrame18UnCompressSubClassEh
libopal.so.3.10.11:_ZN13IAX2FullFrame19GetMediaDataPointerEv
libopal.so.3.10.11:_ZN13IAX2FullFrame20ModifyFrameTimeStampEi
libopal.so.3.10.11:_ZN13IAX2FullFrame20ProcessNetworkPacketEv
libopal.so.3.10.11:_ZN13IAX2FullFrame21OnTransmissionTimeoutER6PTimerl
libopal.so.3.10.11:_ZN13IAX2FullFrame22FrameIncrementsInSeqNoEv
libopal.so.3.10.11:_ZN13IAX2FullFrame32ModifyFrameHeaderSequenceNumbersEii
libopal.so.3.10.11:_ZN13IAX2FullFrameC1ER12IAX2EndPoint
libopal.so.3.10.11:_ZN13IAX2FullFrameC1ERK9IAX2Frame
libopal.so.3.10.11:_ZN13IAX2FullFrameC2ER12IAX2EndPoint
libopal.so.3.10.11:_ZN13IAX2FullFrameC2ERK9IAX2Frame
libopal.so.3.10.11:_ZN13IAX2FullFrameD0Ev
libopal.so.3.10.11:_ZN13IAX2FullFrameD1Ev
libopal.so.3.10.11:_ZN13IAX2FullFrameD2Ev
libopal.so.3.10.11:_ZN13IAX2FullFramemLERS_
libopal.so.3.10.11:_ZN13IAX2MiniFrame11WriteHeaderEv
libopal.so.3.10.11:_ZN13IAX2MiniFrame13ZeroAllValuesEv
libopal.so.3.10.11:_ZN13IAX2MiniFrame14AlterTimeStampEi
libopal.so.3.10.11:_ZN13IAX2MiniFrame16GetMediaDataSizeEv
libopal.so.3.10.11:_ZN13IAX2MiniFrame16InitialiseHeaderEP13IAX2Processor
libopal.so.3.10.11:_ZN13IAX2MiniFrame19GetEncryptionOffsetEv
libopal.so.3.10.11:_ZN13IAX2MiniFrame19GetMediaDataPointerEv
libopal.so.3.10.11:_ZN13IAX2MiniFrame20ProcessNetworkPacketEv
libopal.so.3.10.11:_ZN13IAX2MiniFrameC1EP13IAX2ProcessorR10PBYTEArraybj
libopal.so.3.10.11:_ZN13IAX2MiniFrameC1ER12IAX2EndPoint
libopal.so.3.10.11:_ZN13IAX2MiniFrameC1ERK9IAX2Frame
libopal.so.3.10.11:_ZN13IAX2MiniFrameC2EP13IAX2ProcessorR10PBYTEArraybj
libopal.so.3.10.11:_ZN13IAX2MiniFrameC2ER12IAX2EndPoint
libopal.so.3.10.11:_ZN13IAX2MiniFrameC2ERK9IAX2Frame
libopal.so.3.10.11:_ZN13IAX2MiniFrameD0Ev
libopal.so.3.10.11:_ZN13IAX2MiniFrameD1Ev
libopal.so.3.10.11:_ZN13IAX2MiniFrameD2Ev
libopal.so.3.10.11:_ZN13IAX2Processor11ReportListsER7PString
libopal.so.3.10.11:_ZN13IAX2Processor12AuthenticateEP21IAX2FullFrameProtocolR7PString
libopal.so.3.10.11:_ZN13IAX2Processor12GetCallTokenEv
libopal.so.3.10.11:_ZN13IAX2Processor12SendAckFrameEP13IAX2FullFrame
libopal.so.3.10.11:_ZN13IAX2Processor12SetCallTokenERK7PString
libopal.so.3.10.11:_ZN13IAX2Processor13SendVnakFrameEP13IAX2FullFrame
libopal.so.3.10.11:_ZN13IAX2Processor16TransmitFrameNowEP9IAX2Frame
libopal.so.3.10.11:_ZN13IAX2Processor17ProcessIaxCmdPingEP21IAX2FullFrameProtocol
libopal.so.3.10.11:_ZN13IAX2Processor17ProcessIaxCmdPongEP21IAX2FullFrameProtocol
libopal.so.3.10.11:_ZN13IAX2Processor17ProcessIaxCmdVnakEP21IAX2FullFrameProtocol
libopal.so.3.10.11:_ZN13IAX2Processor18ProcessIaxCmdLagRpEP21IAX2FullFrameProtocol
libopal.so.3.10.11:_ZN13IAX2Processor18ProcessIaxCmdLagRqEP21IAX2FullFrameProtocol
libopal.so.3.10.11:_ZN13IAX2Processor19ProcessNetworkFrameEP21IAX2FullFrameProtocol
libopal.so.3.10.11:_ZN13IAX2Processor20SendUnsupportedFrameEP13IAX2FullFrame
libopal.so.3.10.11:_ZN13IAX2Processor20StartNoResponseTimerEi
libopal.so.3.10.11:_ZN13IAX2Processor21IncomingEthernetFrameEP9IAX2Frame
libopal.so.3.10.11:_ZN13IAX2Processor24OnNoResponseTimeoutStartER6PTimerl
libopal.so.3.10.11:_ZN13IAX2Processor26IsStatusQueryEthernetFrameEP9IAX2Frame
libopal.so.3.10.11:_ZN13IAX2Processor29TransmitFrameToRemoteEndpointEP13IAX2FullFrameN17IAX2WaitingForAck13ResponseToAckE
libopal.so.3.10.11:_ZN13IAX2Processor29TransmitFrameToRemoteEndpointEP21IAX2FullFrameProtocol
libopal.so.3.10.11:_ZN13IAX2Processor29TransmitFrameToRemoteEndpointEP9IAX2Frame
libopal.so.3.10.11:_ZN13IAX2Processor31ProcessOneIncomingEthernetFrameEv
libopal.so.3.10.11:_ZN13IAX2Processor4MainEv
libopal.so.3.10.11:_ZN13IAX2Processor8ActivateEv
libopal.so.3.10.11:_ZN13IAX2Processor9TerminateEv
libopal.so.3.10.11:_ZN13IAX2ProcessorC1ER12IAX2EndPoint
libopal.so.3.10.11:_ZN13IAX2ProcessorC2ER12IAX2EndPoint
libopal.so.3.10.11:_ZN13IAX2ProcessorD0Ev
libopal.so.3.10.11:_ZN13IAX2ProcessorD1Ev
libopal.so.3.10.11:_ZN13IAX2ProcessorD2Ev
libopal.so.3.10.11:_ZN13IAX2SoundList11AddNewEntryEP10PBYTEArray
libopal.so.3.10.11:_ZN13IAX2SoundList12GetLastEntryEv
libopal.so.3.10.11:_ZN13IAX2SoundList15GetAllDeleteAllERS_
libopal.so.3.10.11:_ZN13IAX2SoundListD0Ev
libopal.so.3.10.11:_ZN13IAX2SoundListD1Ev
libopal.so.3.10.11:_ZN13IAX2SoundListD2Ev
libopal.so.3.10.11:_ZN13OpalBaseMixer11WriteStreamERK7PStringRK13RTP_DataFrame
libopal.so.3.10.11:_ZN13OpalBaseMixer12RemoveStreamERK7PString
libopal.so.3.10.11:_ZN13OpalBaseMixer14PushThreadMainEv
libopal.so.3.10.11:_ZN13OpalBaseMixer14StopPushThreadEb
libopal.so.3.10.11:_ZN13OpalBaseMixer15StartPushThreadEv
libopal.so.3.10.11:_ZN13OpalBaseMixer16RemoveAllStreamsEv
libopal.so.3.10.11:_ZN13OpalBaseMixer6OnPushEv
libopal.so.3.10.11:_ZN13OpalBaseMixer7OnMixedERP13RTP_DataFrame
libopal.so.3.10.11:_ZN13OpalBaseMixer9AddStreamERK7PString
libopal.so.3.10.11:_ZN13OpalBaseMixer9ReadMixedER13RTP_DataFrame
libopal.so.3.10.11:_ZN13OpalBaseMixer9ReadMixedEv
libopal.so.3.10.11:_ZN13OpalBaseMixerC1Ebjj
libopal.so.3.10.11:_ZN13OpalBaseMixerC2Ebjj
libopal.so.3.10.11:_ZN13OpalBaseMixerD0Ev
libopal.so.3.10.11:_ZN13OpalBaseMixerD1Ev
libopal.so.3.10.11:_ZN13OpalBaseMixerD2Ev
libopal.so.3.10.11:_ZN13OpalIMContext12InternalSendEv
libopal.so.3.10.11:_ZN13OpalIMContext12OnIncomingIMER6OpalIM
libopal.so.3.10.11:_ZN13OpalIMContext13AddIncomingIMEP6OpalIM
libopal.so.3.10.11:_ZN13OpalIMContext13OnMessageSentERKNS_15MessageSentInfoE
libopal.so.3.10.11:_ZN13OpalIMContext13ResetLastUsedEv
libopal.so.3.10.11:_ZN13OpalIMContext15OnNewIncomingIMEv
libopal.so.3.10.11:_ZN13OpalIMContext18GetIncomingMessageEv
libopal.so.3.10.11:_ZN13OpalIMContext21InternalOnMessageSentERKNS_15MessageSentInfoE
libopal.so.3.10.11:_ZN13OpalIMContext21SetIncomingIMNotifierERK17PNotifierTemplateIRK6OpalIME
libopal.so.3.10.11:_ZN13OpalIMContext22InternalSendInsideCallEP6OpalIM
libopal.so.3.10.11:_ZN13OpalIMContext22SetMessageSentNotifierERK17PNotifierTemplateIRKNS_15MessageSentInfoEE
libopal.so.3.10.11:_ZN13OpalIMContext23InternalSendOutsideCallEP6OpalIM
libopal.so.3.10.11:_ZN13OpalIMContext25SendCompositionIndicationEb
libopal.so.3.10.11:_ZN13OpalIMContext30OnCompositionIndicationChangedERK7PString
libopal.so.3.10.11:_ZN13OpalIMContext30OnCompositionIndicationTimeoutEv
libopal.so.3.10.11:_ZN13OpalIMContext39SetCompositionIndicationChangedNotifierERK17PNotifierTemplateIRK7PStringE
libopal.so.3.10.11:_ZN13OpalIMContext4SendEP6OpalIM
libopal.so.3.10.11:_ZN13OpalIMContext6CreateER11OpalManager8PSafePtrI14OpalConnection12PSafePtrBaseE
libopal.so.3.10.11:_ZN13OpalIMContext6CreateER11OpalManager8PSafePtrI14OpalPresentity12PSafePtrBaseERK4PURL
libopal.so.3.10.11:_ZN13OpalIMContext6CreateER11OpalManagerRK4PURLS4_
libopal.so.3.10.11:_ZN13OpalIMContext9CreateKeyERK7PStringS2_
libopal.so.3.10.11:_ZN13OpalIMContextC1Ev
libopal.so.3.10.11:_ZN13OpalIMContextC2Ev
libopal.so.3.10.11:_ZN13OpalIMContextD0Ev
libopal.so.3.10.11:_ZN13OpalIMContextD1Ev
libopal.so.3.10.11:_ZN13OpalIMContextD2Ev
libopal.so.3.10.11:_ZN13OpalIMManager10AddContextE8PSafePtrI13OpalIMContext12PSafePtrBaseE
libopal.so.3.10.11:_ZN13OpalIMManager11AddNotifierERK17PNotifierTemplateIR13OpalIMContextERK7PString
libopal.so.3.10.11:_ZN13OpalIMManager13RemoveContextEP13OpalIMContext
libopal.so.3.10.11:_ZN13OpalIMManager14RemoveNotifierERK17PNotifierTemplateIR13OpalIMContextERK7PString
libopal.so.3.10.11:_ZN13OpalIMManager17GarbageCollectionEv
libopal.so.3.10.11:_ZN13OpalIMManager17OnIncomingMessageEP6OpalIMR7PString8PSafePtrI14OpalConnection12PSafePtrBaseE
libopal.so.3.10.11:_ZN13OpalIMManager21InternalOnMessageSentERK7PStringRKN13OpalIMContext15MessageSentInfoE
libopal.so.3.10.11:_ZN13OpalIMManager23FindContextByIdWithLockERK7PString11PSafetyMode
libopal.so.3.10.11:_ZN13OpalIMManager23InternalOnNewIncomingIMERK7PString
libopal.so.3.10.11:_ZN13OpalIMManager25InternalOnNewConversationERK7PString
libopal.so.3.10.11:_ZN13OpalIMManager26FindContextByNamesWithLockERK7PStringS2_11PSafetyMode
libopal.so.3.10.11:_ZN13OpalIMManager29FindContextForMessageWithLockER6OpalIMP14OpalConnection
libopal.so.3.10.11:_ZN13OpalIMManager30OnCompositionIndicationTimeoutERK7PString
libopal.so.3.10.11:_ZN13OpalIMManager38InternalOnCompositionIndicationTimeoutERK7PString
libopal.so.3.10.11:_ZN13OpalIMManager7AddWorkEPNS_7IM_WorkE
libopal.so.3.10.11:_ZN13OpalIMManager7IM_WorkC1ERS_RK7PString
libopal.so.3.10.11:_ZN13OpalIMManager7IM_WorkC2ERS_RK7PString
libopal.so.3.10.11:_ZN13OpalIMManager7IM_WorkD0Ev
libopal.so.3.10.11:_ZN13OpalIMManager7IM_WorkD1Ev
libopal.so.3.10.11:_ZN13OpalIMManager7IM_WorkD2Ev
libopal.so.3.10.11:_ZN13OpalIMManagerC1ER11OpalManager
libopal.so.3.10.11:_ZN13OpalIMManagerC2ER11OpalManager
libopal.so.3.10.11:_ZN13OpalIMManagerD0Ev
libopal.so.3.10.11:_ZN13OpalIMManagerD1Ev
libopal.so.3.10.11:_ZN13OpalIMManagerD2Ev
libopal.so.3.10.11:_ZN13OpalManager_C10GetMessageEj
libopal.so.3.10.11:_ZN13OpalManager_C10InitialiseERK15PCaselessString
libopal.so.3.10.11:_ZN13OpalManager_C11PostMessageER17OpalMessageBuffer
libopal.so.3.10.11:_ZN13OpalManager_C11SendMessageEPK11OpalMessage
libopal.so.3.10.11:_ZN13OpalManager_C12OnProceedingER14OpalConnection
libopal.so.3.10.11:_ZN13OpalManager_C13OnClearedCallER8OpalCall
libopal.so.3.10.11:_ZN13OpalManager_C13OnMWIReceivedERK7PStringN11OpalManager18MessageWaitingTypeES2_
libopal.so.3.10.11:_ZN13OpalManager_C14HandleAlertingERK11OpalMessageR17OpalMessageBuffer
libopal.so.3.10.11:_ZN13OpalManager_C14HandleHoldCallERK11OpalMessageR17OpalMessageBuffer
libopal.so.3.10.11:_ZN13OpalManager_C15HandleClearCallERK11OpalMessageR17OpalMessageBuffer
libopal.so.3.10.11:_ZN13OpalManager_C15HandleSetUpCallERK11OpalMessageR17OpalMessageBuffer
libopal.so.3.10.11:_ZN13OpalManager_C15HandleUserInputERK11OpalMessageR17OpalMessageBuffer
libopal.so.3.10.11:_ZN13OpalManager_C15OnUserInputToneER14OpalConnectionci
libopal.so.3.10.11:_ZN13OpalManager_C16HandleAnswerCallERK11OpalMessageR17OpalMessageBuffer
libopal.so.3.10.11:_ZN13OpalManager_C16HandleSetGeneralERK11OpalMessageR17OpalMessageBuffer
libopal.so.3.10.11:_ZN13OpalManager_C16OnIndMediaStreamERK15OpalMediaStream15OpalMediaStates
libopal.so.3.10.11:_ZN13OpalManager_C16OnTransferNotifyER14OpalConnectionRK15PStringToString
libopal.so.3.10.11:_ZN13OpalManager_C17HandleMediaStreamERK11OpalMessageR17OpalMessageBuffer
libopal.so.3.10.11:_ZN13OpalManager_C17HandleSetProtocolERK11OpalMessageR17OpalMessageBuffer
libopal.so.3.10.11:_ZN13OpalManager_C17HandleSetUserDataERK11OpalMessageR17OpalMessageBuffer
libopal.so.3.10.11:_ZN13OpalManager_C17OnEstablishedCallER8OpalCall
libopal.so.3.10.11:_ZN13OpalManager_C17OnOpenMediaStreamER14OpalConnectionR15OpalMediaStream
libopal.so.3.10.11:_ZN13OpalManager_C17OnUserInputStringER14OpalConnectionRK7PString
libopal.so.3.10.11:_ZN13OpalManager_C18HandleRegistrationERK11OpalMessageR17OpalMessageBuffer
libopal.so.3.10.11:_ZN13OpalManager_C18HandleRetrieveCallERK11OpalMessageR17OpalMessageBuffer
libopal.so.3.10.11:_ZN13OpalManager_C18HandleTransferCallERK11OpalMessageR17OpalMessageBuffer
libopal.so.3.10.11:_ZN13OpalManager_C19HandleStopRecordingERK11OpalMessageR17OpalMessageBuffer
libopal.so.3.10.11:_ZN13OpalManager_C19OnClosedMediaStreamERK15OpalMediaStream
libopal.so.3.10.11:_ZN13OpalManager_C20HandleStartRecordingERK11OpalMessageR17OpalMessageBuffer
libopal.so.3.10.11:_ZN13OpalManager_C20SendIncomingCallInfoERK14OpalConnection
libopal.so.3.10.11:_ZN13OpalManager_C6OnHoldER14OpalConnectionbb
libopal.so.3.10.11:_ZN13OpalManager_C8FindCallEPKcR17OpalMessageBufferR8PSafePtrI8OpalCall12PSafePtrBaseE
libopal.so.3.10.11:_ZN13OpalMediaType13GetDefinitionERKS_
libopal.so.3.10.11:_ZN13OpalMediaType13GetDefinitionEj
libopal.so.3.10.11:_ZN13OpalMediaType19GetMediaTypeFromSDPERKNSt7__cxx1112basic_stringIcSt11char_traitsIcESaIcEEES7_
libopal.so.3.10.11:_ZN13OpalMediaType3FaxEv
libopal.so.3.10.11:_ZN13OpalMediaType5AudioEv
libopal.so.3.10.11:_ZN13OpalMediaType5VideoEv
libopal.so.3.10.11:_ZN13OpalMediaType9UserInputEv
libopal.so.3.10.11:_ZN13OpalMixerNode10AudioMixer11CachedAudioC1Ev
libopal.so.3.10.11:_ZN13OpalMixerNode10AudioMixer11CachedAudioC2Ev
libopal.so.3.10.11:_ZN13OpalMixerNode10AudioMixer11CachedAudioD1Ev
libopal.so.3.10.11:_ZN13OpalMixerNode10AudioMixer11CachedAudioD2Ev
libopal.so.3.10.11:_ZN13OpalMixerNode10AudioMixer6OnPushEv
libopal.so.3.10.11:_ZN13OpalMixerNode10AudioMixer7PushOneER8PSafePtrI20OpalMixerMediaStream12PSafePtrBaseERNS0_11CachedAudioEPKs
libopal.so.3.10.11:_ZN13OpalMixerNode10AudioMixerC1ERK17OpalMixerNodeInfo
libopal.so.3.10.11:_ZN13OpalMixerNode10AudioMixerC2ERK17OpalMixerNodeInfo
libopal.so.3.10.11:_ZN13OpalMixerNode10AudioMixerD0Ev
libopal.so.3.10.11:_ZN13OpalMixerNode10AudioMixerD1Ev
libopal.so.3.10.11:_ZN13OpalMixerNode10AudioMixerD2Ev
libopal.so.3.10.11:_ZN13OpalMixerNode10MediaMixerC1Ev
libopal.so.3.10.11:_ZN13OpalMixerNode10MediaMixerC2Ev
libopal.so.3.10.11:_ZN13OpalMixerNode10RemoveNameERK7PString
libopal.so.3.10.11:_ZN13OpalMixerNode10VideoMixer7OnMixedERP13RTP_DataFrame
libopal.so.3.10.11:_ZN13OpalMixerNode10VideoMixerC1ERK17OpalMixerNodeInfo
libopal.so.3.10.11:_ZN13OpalMixerNode10VideoMixerC2ERK17OpalMixerNodeInfo
libopal.so.3.10.11:_ZN13OpalMixerNode10VideoMixerD0Ev
libopal.so.3.10.11:_ZN13OpalMixerNode10VideoMixerD1Ev
libopal.so.3.10.11:_ZN13OpalMixerNode10VideoMixerD2Ev
libopal.so.3.10.11:_ZN13OpalMixerNode12AttachStreamEP20OpalMixerMediaStream
libopal.so.3.10.11:_ZN13OpalMixerNode12DetachStreamEP20OpalMixerMediaStream
libopal.so.3.10.11:_ZN13OpalMixerNode16AttachConnectionEP14OpalConnection
libopal.so.3.10.11:_ZN13OpalMixerNode16DetachConnectionEP14OpalConnection
libopal.so.3.10.11:_ZN13OpalMixerNode18BroadcastUserInputEPK14OpalConnectionRK7PString
libopal.so.3.10.11:_ZN13OpalMixerNode19UseMediaPassThroughEjP14OpalConnection
libopal.so.3.10.11:_ZN13OpalMixerNode7AddNameERK7PString
libopal.so.3.10.11:_ZN13OpalMixerNode8ShutDownEv
libopal.so.3.10.11:_ZN13OpalMixerNode9ConstructEv
libopal.so.3.10.11:_ZN13OpalMixerNodeC1ER17OpalMixerEndPointP17OpalMixerNodeInfo
libopal.so.3.10.11:_ZN13OpalMixerNodeC1ER20OpalMixerNodeManagerP17OpalMixerNodeInfo
libopal.so.3.10.11:_ZN13OpalMixerNodeC2ER17OpalMixerEndPointP17OpalMixerNodeInfo
libopal.so.3.10.11:_ZN13OpalMixerNodeC2ER20OpalMixerNodeManagerP17OpalMixerNodeInfo
libopal.so.3.10.11:_ZN13OpalMixerNodeD0Ev
libopal.so.3.10.11:_ZN13OpalMixerNodeD1Ev
libopal.so.3.10.11:_ZN13OpalMixerNodeD2Ev
libopal.so.3.10.11:_ZN13OpalPluginLID10TonePlayerER7PThreadl
libopal.so.3.10.11:_ZN13OpalPluginLID10WriteFrameEjPKviRi
libopal.so.3.10.11:_ZN13OpalPluginLID11EnableAudioEjb
libopal.so.3.10.11:_ZN13OpalPluginLID11GetCallerIDEjR7PStringb
libopal.so.3.10.11:_ZN13OpalPluginLID11SetCallerIDEjRK7PString
libopal.so.3.10.11:_ZN13OpalPluginLID11StopReadingEj
libopal.so.3.10.11:_ZN13OpalPluginLID11StopWritingEj
libopal.so.3.10.11:_ZN13OpalPluginLID11WaitForToneEjN23OpalLineInterfaceDevice17CallProgressTonesEj
libopal.so.3.10.11:_ZN13OpalPluginLID12HasHookFlashEj
libopal.so.3.10.11:_ZN13OpalPluginLID13GetPlayVolumeEjRj
libopal.so.3.10.11:_ZN13OpalPluginLID13GetReadFormatEj
libopal.so.3.10.11:_ZN13OpalPluginLID13GetRemoveDTMFEj
libopal.so.3.10.11:_ZN13OpalPluginLID13IsLineOffHookEj
libopal.so.3.10.11:_ZN13OpalPluginLID13IsLinePresentEjb
libopal.so.3.10.11:_ZN13OpalPluginLID13IsLineRingingEjPj
libopal.so.3.10.11:_ZN13OpalPluginLID13IsTonePlayingEj
libopal.so.3.10.11:_ZN13OpalPluginLID13SetPlayVolumeEjj
libopal.so.3.10.11:_ZN13OpalPluginLID13SetReadFormatEjRK15OpalMediaFormat
libopal.so.3.10.11:_ZN13OpalPluginLID13SetRemoveDTMFEjb
libopal.so.3.10.11:_ZN13OpalPluginLID14GetWriteFormatEj
libopal.so.3.10.11:_ZN13OpalPluginLID14IsLineTerminalEj
libopal.so.3.10.11:_ZN13OpalPluginLID14IsToneDetectedEj
libopal.so.3.10.11:_ZN13OpalPluginLID14SetCountryCodeEN23OpalLineInterfaceDevice15T35CountryCodesE
libopal.so.3.10.11:_ZN13OpalPluginLID14SetLineOffHookEjb
libopal.so.3.10.11:_ZN13OpalPluginLID14SetWriteFormatEjRK15OpalMediaFormat
libopal.so.3.10.11:_ZN13OpalPluginLID15GetRecordVolumeEjRj
libopal.so.3.10.11:_ZN13OpalPluginLID15GetWinkDurationEj
libopal.so.3.10.11:_ZN13OpalPluginLID15IsLineConnectedEj
libopal.so.3.10.11:_ZN13OpalPluginLID15SetRecordVolumeEjj
libopal.so.3.10.11:_ZN13OpalPluginLID15SetWinkDurationEjj
libopal.so.3.10.11:_ZN13OpalPluginLID16GetReadFrameSizeEj
libopal.so.3.10.11:_ZN13OpalPluginLID16SetLineConnectedEj
libopal.so.3.10.11:_ZN13OpalPluginLID16SetReadFrameSizeEji
libopal.so.3.10.11:_ZN13OpalPluginLID17GetWriteFrameSizeEj
libopal.so.3.10.11:_ZN13OpalPluginLID17SetToneParametersEjN23OpalLineInterfaceDevice17CallProgressTonesEjjNS0_15ToneMixingModesEiPKjS4_
libopal.so.3.10.11:_ZN13OpalPluginLID17SetWriteFrameSizeEji
libopal.so.3.10.11:_ZN13OpalPluginLID17WaitForToneDetectEjj
libopal.so.3.10.11:_ZN13OpalPluginLID18IsLineDisconnectedEjb
libopal.so.3.10.11:_ZN13OpalPluginLID18IsLineToLineDirectEjj
libopal.so.3.10.11:_ZN13OpalPluginLID19SetLineToLineDirectEjjb
libopal.so.3.10.11:_ZN13OpalPluginLID20StopTonePlayerThreadEv
libopal.so.3.10.11:_ZN13OpalPluginLID21GetAverageSignalLevelEjb
libopal.so.3.10.11:_ZN13OpalPluginLID21StartTonePlayerThreadEi
libopal.so.3.10.11:_ZN13OpalPluginLID33SendVisualMessageWaitingIndicatorEjb
libopal.so.3.10.11:_ZN13OpalPluginLID4OpenERK7PString
libopal.so.3.10.11:_ZN13OpalPluginLID5CloseEv
libopal.so.3.10.11:_ZN13OpalPluginLID6SetAECEjN23OpalLineInterfaceDevice9AECLevelsE
libopal.so.3.10.11:_ZN13OpalPluginLID6SetVADEjb
libopal.so.3.10.11:_ZN13OpalPluginLID7DialOutEjRK7PStringRKN23OpalLineInterfaceDevice10DialParamsE
libopal.so.3.10.11:_ZN13OpalPluginLID8PlayDTMFEjPKcjj
libopal.so.3.10.11:_ZN13OpalPluginLID8PlayToneEjN23OpalLineInterfaceDevice17CallProgressTonesE
libopal.so.3.10.11:_ZN13OpalPluginLID8ReadDTMFEj
libopal.so.3.10.11:_ZN13OpalPluginLID8RingLineEjiPKjj
libopal.so.3.10.11:_ZN13OpalPluginLID8StopToneEj
libopal.so.3.10.11:_ZN13OpalPluginLID9HookFlashEjj
libopal.so.3.10.11:_ZN13OpalPluginLID9ReadFrameEjPvRi
libopal.so.3.10.11:_ZN13OpalPluginLIDC1ERK20PluginLID_Definition
libopal.so.3.10.11:_ZN13OpalPluginLIDC2ERK20PluginLID_Definition
libopal.so.3.10.11:_ZN13OpalPluginLIDD0Ev
libopal.so.3.10.11:_ZN13OpalPluginLIDD1Ev
libopal.so.3.10.11:_ZN13OpalPluginLIDD2Ev
libopal.so.3.10.11:_ZN13OpalTransport12AttachThreadEP7PThread
libopal.so.3.10.11:_ZN13OpalTransport12SetInterfaceERK7PString
libopal.so.3.10.11:_ZN13OpalTransport12WriteConnectEPFbRS_PvES1_
libopal.so.3.10.11:_ZN13OpalTransport14SetPromiscuousENS_16PromisciousModesE
libopal.so.3.10.11:_ZN13OpalTransport5CloseEv
libopal.so.3.10.11:_ZN13OpalTransport9CloseWaitEv
libopal.so.3.10.11:_ZN13OpalTransportC1ER12OpalEndPoint
libopal.so.3.10.11:_ZN13OpalTransportC2ER12OpalEndPoint
libopal.so.3.10.11:_ZN13OpalTransportD0Ev
libopal.so.3.10.11:_ZN13OpalTransportD1Ev
libopal.so.3.10.11:_ZN13OpalTransportD2Ev
libopal.so.3.10.11:_ZN13Opal_G711_PCM7ConvertERK13RTP_DataFrameRS0_
libopal.so.3.10.11:_ZN13Opal_G711_PCMC1ERK15OpalMediaFormat
libopal.so.3.10.11:_ZN13Opal_G711_PCMC2ERK15OpalMediaFormat
libopal.so.3.10.11:_ZN13RTP_DataFrame12SetExtensionEb
libopal.so.3.10.11:_ZN13RTP_DataFrame13SetPacketSizeEi
libopal.so.3.10.11:_ZN13RTP_DataFrame14SetPaddingSizeEi
libopal.so.3.10.11:_ZN13RTP_DataFrame14SetPayloadSizeEi
libopal.so.3.10.11:_ZN13RTP_DataFrame14SetPayloadTypeENS_12PayloadTypesE
libopal.so.3.10.11:_ZN13RTP_DataFrame16SetContribSourceEij
libopal.so.3.10.11:_ZN13RTP_DataFrame16SetExtensionTypeEi
libopal.so.3.10.11:_ZN13RTP_DataFrame22SetExtensionSizeDWORDsEi
libopal.so.3.10.11:_ZN13RTP_DataFrame9SetMarkerEb
libopal.so.3.10.11:_ZN13RTP_DataFrameC1EPKhib
libopal.so.3.10.11:_ZN13RTP_DataFrameC1Eii
libopal.so.3.10.11:_ZN13RTP_DataFrameC2EPKhib
libopal.so.3.10.11:_ZN13RTP_DataFrameC2Eii
libopal.so.3.10.11:_ZN13SIPConnection10OnReleasedEv
libopal.so.3.10.11:_ZN13SIPConnection11ForwardCallERK7PString
libopal.so.3.10.11:_ZN13SIPConnection11SendOPTIONSERKN10SIPOptions6ParamsEP7SIP_PDU
libopal.so.3.10.11:_ZN13SIPConnection11SetAlertingERK7PStringb
libopal.so.3.10.11:_ZN13SIPConnection11WriteINVITEER13OpalTransportPv
libopal.so.3.10.11:_ZN13SIPConnection11WriteINVITEEv
libopal.so.3.10.11:_ZN13SIPConnection12OnReceivedOKER14SIPTransactionR7SIP_PDU
libopal.so.3.10.11:_ZN13SIPConnection12SendInviteOKEv
libopal.so.3.10.11:_ZN13SIPConnection12SendReINVITEEPKc
libopal.so.3.10.11:_ZN13SIPConnection12SetConnectedEv
libopal.so.3.10.11:_ZN13SIPConnection12SetTransportERK6SIPURL
libopal.so.3.10.11:_ZN13SIPConnection13OnReceivedACKER7SIP_PDU
libopal.so.3.10.11:_ZN13SIPConnection13OnReceivedBYEER7SIP_PDU
libopal.so.3.10.11:_ZN13SIPConnection13OnReceivedPDUER7SIP_PDU
libopal.so.3.10.11:_ZN13SIPConnection14OnMediaCommandER15OpalMediaStreamRK16OpalMediaCommand
libopal.so.3.10.11:_ZN13SIPConnection14OnReceivedINFOER7SIP_PDU
libopal.so.3.10.11:_ZN13SIPConnection14OnReceivedPINGER7SIP_PDU
libopal.so.3.10.11:_ZN13SIPConnection14OnSendOfferSDPER21OpalRTPSessionManagerR21SDPSessionDescriptionb
libopal.so.3.10.11:_ZN13SIPConnection15OnReceivedPRACKER7SIP_PDU
libopal.so.3.10.11:_ZN13SIPConnection15OnReceivedREFERER7SIP_PDU
libopal.so.3.10.11:_ZN13SIPConnection15OnSendAnswerSDPER21OpalRTPSessionManagerR21SDPSessionDescription
libopal.so.3.10.11:_ZN13SIPConnection15OpenMediaStreamERK15OpalMediaFormatjb
libopal.so.3.10.11:_ZN13SIPConnection15SetAlertingTypeERK7PString
libopal.so.3.10.11:_ZN13SIPConnection15SetUpConnectionEv
libopal.so.3.10.11:_ZN13SIPConnection16CloseMediaStreamER15OpalMediaStream
libopal.so.3.10.11:_ZN13SIPConnection16OnCreatingINVITEER9SIPInvite
libopal.so.3.10.11:_ZN13SIPConnection16OnReceivedCANCELER7SIP_PDU
libopal.so.3.10.11:_ZN13SIPConnection16OnReceivedINVITEER7SIP_PDU
libopal.so.3.10.11:_ZN13SIPConnection16OnReceivedNOTIFYER7SIP_PDU
libopal.so.3.10.11:_ZN13SIPConnection16OnReceivedTryingER14SIPTransactionR7SIP_PDU
libopal.so.3.10.11:_ZN13SIPConnection16OnSessionTimeoutER6PTimerl
libopal.so.3.10.11:_ZN13SIPConnection17GarbageCollectionEv
libopal.so.3.10.11:_ZN13SIPConnection17GetCalledPartyURLEv
libopal.so.3.10.11:_ZN13SIPConnection17NotifyDialogStateEN21SIPDialogNotification6StatesENS0_6EventsEj
libopal.so.3.10.11:_ZN13SIPConnection17OnMediaControlXMLER7SIP_PDU
libopal.so.3.10.11:_ZN13SIPConnection17OnReceivedMESSAGEER7SIP_PDU
libopal.so.3.10.11:_ZN13SIPConnection17OnReceivedOPTIONSER7SIP_PDU
libopal.so.3.10.11:_ZN13SIPConnection17OnReceivedRingingER7SIP_PDU
libopal.so.3.10.11:_ZN13SIPConnection17SendUserInputToneEcj
libopal.so.3.10.11:_ZN13SIPConnection17SetUpMediaSessionEjRK13OpalMediaTypeRK19SDPMediaDescriptionR20OpalTransportAddressRb
libopal.so.3.10.11:_ZN13SIPConnection18OnPauseMediaStreamER15OpalMediaStreamb
libopal.so.3.10.11:_ZN13SIPConnection18OnReceivedReINVITEER7SIP_PDU
libopal.so.3.10.11:_ZN13SIPConnection18OnReceivedResponseER14SIPTransactionR7SIP_PDU
libopal.so.3.10.11:_ZN13SIPConnection18OnStartTransactionER14SIPTransaction
libopal.so.3.10.11:_ZN13SIPConnection18SendInviteResponseEN7SIP_PDU11StatusCodesEPK21SDPSessionDescription
libopal.so.3.10.11:_ZN13SIPConnection18TransferConnectionERK7PString
libopal.so.3.10.11:_ZN13SIPConnection19OnReceivedAnswerSDPER7SIP_PDU
libopal.so.3.10.11:_ZN13SIPConnection19OnTransactionFailedER14SIPTransaction
libopal.so.3.10.11:_ZN13SIPConnection19SendUserInputStringERK7PString
libopal.so.3.10.11:_ZN13SIPConnection20AdjustInviteResponseER7SIP_PDU
libopal.so.3.10.11:_ZN13SIPConnection20OnAllowedEventNotifyERK7PString
libopal.so.3.10.11:_ZN13SIPConnection20OnApplyStringOptionsEv
libopal.so.3.10.11:_ZN13SIPConnection20StartPendingReINVITEEv
libopal.so.3.10.11:_ZN13SIPConnection21GetDestinationAddressEv
libopal.so.3.10.11:_ZN13SIPConnection21OnInviteResponseRetryER6PTimerl
libopal.so.3.10.11:_ZN13SIPConnection21OnReceivedRedirectionER7SIP_PDU
libopal.so.3.10.11:_ZN13SIPConnection21OnSendOfferSDPSessionERK13OpalMediaTypejR21OpalRTPSessionManagerR21SDPSessionDescriptionb
libopal.so.3.10.11:_ZN13SIPConnection21SetRemoteMediaFormatsEP21SDPSessionDescription
libopal.so.3.10.11:_ZN13SIPConnection21UpdateRemoteAddressesEv
libopal.so.3.10.11:_ZN13SIPConnection22OnSendAnswerSDPSessionERK21SDPSessionDescriptionjRS0_
libopal.so.3.10.11:_ZN13SIPConnection23OnInviteResponseTimeoutER6PTimerl
libopal.so.3.10.11:_ZN13SIPConnection24OnUserInputInlineRFC2833ER15OpalRFC2833Infol
libopal.so.3.10.11:_ZN13SIPConnection25OnReceivedSessionProgressER7SIP_PDU
libopal.so.3.10.11:_ZN13SIPConnection26OnReceivedAnswerSDPSessionER21SDPSessionDescriptionjRb
libopal.so.3.10.11:_ZN13SIPConnection26OnReceivedResponseToINVITEER14SIPTransactionR7SIP_PDU
libopal.so.3.10.11:_ZN13SIPConnection32OnReceivedAuthenticationRequiredER14SIPTransactionR7SIP_PDU
libopal.so.3.10.11:_ZN13SIPConnection4HoldEbb
libopal.so.3.10.11:_ZN13SIPConnection8IsOnHoldEb
libopal.so.3.10.11:_ZN13SIPConnection8SendINFOERKN7SIPInfo6ParamsEP7SIP_PDU
libopal.so.3.10.11:_ZN13SIPConnectionC1ER8OpalCallR11SIPEndPointRK7PStringRK6SIPURLP13OpalTransportjPN14OpalConnection13StringOptionsE
libopal.so.3.10.11:_ZN13SIPConnectionC2ER8OpalCallR11SIPEndPointRK7PStringRK6SIPURLP13OpalTransportjPN14OpalConnection13StringOptionsE
libopal.so.3.10.11:_ZN13SIPConnectionD0Ev
libopal.so.3.10.11:_ZN13SIPConnectionD1Ev
libopal.so.3.10.11:_ZN13SIPConnectionD2Ev
libopal.so.3.10.11:_ZN13SIPEndPoint_C20OnDialogInfoReceivedERK21SIPDialogNotification
libopal.so.3.10.11:_ZN13SIPEndPoint_C20OnRegistrationStatusERKN11SIPEndPoint18RegistrationStatusE
libopal.so.3.10.11:_ZN13SIPEndPoint_C20OnSubscriptionStatusERK7PStringRK6SIPURLbbN7SIP_PDU11StatusCodesE
libopal.so.3.10.11:_ZN13SIPEndPoint_CC1ER13OpalManager_C
libopal.so.3.10.11:_ZN13SIPEndPoint_CC2ER13OpalManager_C
libopal.so.3.10.11:_ZN13SIPParameters9NormaliseERK7PStringRK13PTimeInterval
libopal.so.3.10.11:_ZN13SIPParametersC1ERK7PStringS2_
libopal.so.3.10.11:_ZN13SIPParametersC2ERK7PStringS2_
libopal.so.3.10.11:_ZN13SecureRTP_UDP15SetSecurityModeEP16OpalSecurityMode
libopal.so.3.10.11:_ZN13SecureRTP_UDPC1ERKN11RTP_Session6ParamsE
libopal.so.3.10.11:_ZN13SecureRTP_UDPC2ERKN11RTP_Session6ParamsE
libopal.so.3.10.11:_ZN13SecureRTP_UDPD0Ev
libopal.so.3.10.11:_ZN13SecureRTP_UDPD1Ev
libopal.so.3.10.11:_ZN13SecureRTP_UDPD2Ev
libopal.so.3.10.11:_ZN13T38_IFPPacket6DecodeER11PASN_Stream
libopal.so.3.10.11:_ZN13T38_IFPPacketC1EjN11PASN_Object8TagClassE
libopal.so.3.10.11:_ZN13T38_IFPPacketC2EjN11PASN_Object8TagClassE
libopal.so.3.10.11:_ZN13X880_InvokeIdC1EjN11PASN_Object8TagClassE
libopal.so.3.10.11:_ZN13X880_InvokeIdC2EjN11PASN_Object8TagClassE
libopal.so.3.10.11:_ZN13X880_InvokeIdaSEi
libopal.so.3.10.11:_ZN13X880_InvokeIdaSEj
libopal.so.3.10.11:_ZN14H225_AltGKInfo6DecodeER11PASN_Stream
libopal.so.3.10.11:_ZN14H225_AltGKInfoC1EjN11PASN_Object8TagClassE
libopal.so.3.10.11:_ZN14H225_AltGKInfoC2EjN11PASN_Object8TagClassE
libopal.so.3.10.11:_ZN14H225_BandWidthC1EjN11PASN_Object8TagClassE
libopal.so.3.10.11:_ZN14H225_BandWidthC2EjN11PASN_Object8TagClassE
libopal.so.3.10.11:_ZN14H225_BandWidthaSEi
libopal.so.3.10.11:_ZN14H225_BandWidthaSEj
libopal.so.3.10.11:_ZN14H225_CallModel12CreateObjectEv
libopal.so.3.10.11:_ZN14H225_CallModelC1EjN11PASN_Object8TagClassE
libopal.so.3.10.11:_ZN14H225_CallModelC2EjN11PASN_Object8TagClassE
libopal.so.3.10.11:_ZN14H225_MobileUIM12CreateObjectEv
libopal.so.3.10.11:_ZN14H225_MobileUIMC1EjN11PASN_Object8TagClassE
libopal.so.3.10.11:_ZN14H225_MobileUIMC2EjN11PASN_Object8TagClassE
libopal.so.3.10.11:_ZN14H225_MobileUIMcvR12H225_GSM_UIMEv
libopal.so.3.10.11:_ZN14H225_MobileUIMcvR16H225_ANSI_41_UIMEv
libopal.so.3.10.11:_ZN14H225_VoiceCaps6DecodeER11PASN_Stream
libopal.so.3.10.11:_ZN14H225_VoiceCapsC1EjN11PASN_Object8TagClassE
libopal.so.3.10.11:_ZN14H225_VoiceCapsC2EjN11PASN_Object8TagClassE
libopal.so.3.10.11:_ZN14H235_RandomValC1EjN11PASN_Object8TagClassE
libopal.so.3.10.11:_ZN14H235_RandomValC2EjN11PASN_Object8TagClassE
libopal.so.3.10.11:_ZN14H235_RandomValaSEi
libopal.so.3.10.11:_ZN14H235_RandomValaSEj
libopal.so.3.10.11:_ZN14H235_ReturnSig6DecodeER11PASN_Stream
libopal.so.3.10.11:_ZN14H235_ReturnSigC1EjN11PASN_Object8TagClassE
libopal.so.3.10.11:_ZN14H235_ReturnSigC2EjN11PASN_Object8TagClassE
libopal.so.3.10.11:_ZN14H235_TimeStampC1EjN11PASN_Object8TagClassE
libopal.so.3.10.11:_ZN14H235_TimeStampC2EjN11PASN_Object8TagClassE
libopal.so.3.10.11:_ZN14H235_TimeStampaSEi
libopal.so.3.10.11:_ZN14H235_TimeStampaSEj
libopal.so.3.10.11:_ZN14H245Negotiator13HandleTimeoutEv
libopal.so.3.10.11:_ZN14H245Negotiator21HandleTimeoutUnlockedER6PTimerl
libopal.so.3.10.11:_ZN14H245NegotiatorC1ER12H323EndPointR14H323Connection
libopal.so.3.10.11:_ZN14H245NegotiatorC2ER12H323EndPointR14H323Connection
libopal.so.3.10.11:_ZN14H245_AudioMode12CreateObjectEv
libopal.so.3.10.11:_ZN14H245_AudioModeC1EjN11PASN_Object8TagClassE
libopal.so.3.10.11:_ZN14H245_AudioModeC2EjN11PASN_Object8TagClassE
libopal.so.3.10.11:_ZN14H245_AudioModecvR12H245_VBDModeEv
libopal.so.3.10.11:_ZN14H245_AudioModecvR19H245_G729ExtensionsEv
libopal.so.3.10.11:_ZN14H245_AudioModecvR20H245_AudioMode_g7231Ev
libopal.so.3.10.11:_ZN14H245_AudioModecvR20H245_G7231AnnexCModeEv
libopal.so.3.10.11:_ZN14H245_AudioModecvR21H245_IS11172AudioModeEv
libopal.so.3.10.11:_ZN14H245_AudioModecvR21H245_IS13818AudioModeEv
libopal.so.3.10.11:_ZN14H245_AudioModecvR22H245_GenericCapabilityEv
libopal.so.3.10.11:_ZN14H245_AudioModecvR23H245_GSMAudioCapabilityEv
libopal.so.3.10.11:_ZN14H245_AudioModecvR25H245_NonStandardParameterEv
libopal.so.3.10.11:_ZN14H245_CRCLength12CreateObjectEv
libopal.so.3.10.11:_ZN14H245_CRCLengthC1EjN11PASN_Object8TagClassE
libopal.so.3.10.11:_ZN14H245_CRCLengthC2EjN11PASN_Object8TagClassE
libopal.so.3.10.11:_ZN14H245_H235Media6DecodeER11PASN_Stream
libopal.so.3.10.11:_ZN14H245_H235MediaC1EjN11PASN_Object8TagClassE
libopal.so.3.10.11:_ZN14H245_H235MediaC2EjN11PASN_Object8TagClassE
libopal.so.3.10.11:_ZN14H245_McuNumberC1EjN11PASN_Object8TagClassE
libopal.so.3.10.11:_ZN14H245_McuNumberC2EjN11PASN_Object8TagClassE
libopal.so.3.10.11:_ZN14H245_McuNumberaSEi
libopal.so.3.10.11:_ZN14H245_McuNumberaSEj
libopal.so.3.10.11:_ZN14H245_VideoMode12CreateObjectEv
libopal.so.3.10.11:_ZN14H245_VideoModeC1EjN11PASN_Object8TagClassE
libopal.so.3.10.11:_ZN14H245_VideoModeC2EjN11PASN_Object8TagClassE
libopal.so.3.10.11:_ZN14H245_VideoModecvR18H245_H261VideoModeEv
libopal.so.3.10.11:_ZN14H245_VideoModecvR18H245_H262VideoModeEv
libopal.so.3.10.11:_ZN14H245_VideoModecvR18H245_H263VideoModeEv
libopal.so.3.10.11:_ZN14H245_VideoModecvR21H245_IS11172VideoModeEv
libopal.so.3.10.11:_ZN14H245_VideoModecvR22H245_GenericCapabilityEv
libopal.so.3.10.11:_ZN14H245_VideoModecvR25H245_NonStandardParameterEv
libopal.so.3.10.11:_ZN14H248_AmmsReply6DecodeER11PASN_Stream
libopal.so.3.10.11:_ZN14H248_AmmsReplyC1EjN11PASN_Object8TagClassE
libopal.so.3.10.11:_ZN14H248_AmmsReplyC2EjN11PASN_Object8TagClassE
libopal.so.3.10.11:_ZN14H248_ContextIDC1EjN11PASN_Object8TagClassE
libopal.so.3.10.11:_ZN14H248_ContextIDC2EjN11PASN_Object8TagClassE
libopal.so.3.10.11:_ZN14H248_ContextIDaSEi
libopal.so.3.10.11:_ZN14H248_ContextIDaSEj
libopal.so.3.10.11:_ZN14H248_ErrorCodeC1EjN11PASN_Object8TagClassE
libopal.so.3.10.11:_ZN14H248_ErrorCodeC2EjN11PASN_Object8TagClassE
libopal.so.3.10.11:_ZN14H248_ErrorCodeaSEi
libopal.so.3.10.11:_ZN14H248_ErrorCodeaSEj
libopal.so.3.10.11:_ZN14H248_ErrorTextC1EjN11PASN_Object8TagClassE
libopal.so.3.10.11:_ZN14H248_ErrorTextC2EjN11PASN_Object8TagClassE
libopal.so.3.10.11:_ZN14H248_ErrorTextaSEPKc
libopal.so.3.10.11:_ZN14H248_ErrorTextaSERK7PString
libopal.so.3.10.11:_ZN14H248_EventNameC1EPKc
libopal.so.3.10.11:_ZN14H248_EventNameC1ERK10PBYTEArray
libopal.so.3.10.11:_ZN14H248_EventNameC1ERK7PString
libopal.so.3.10.11:_ZN14H248_EventNameC1EjN11PASN_Object8TagClassE
libopal.so.3.10.11:_ZN14H248_EventNameC2EPKc
libopal.so.3.10.11:_ZN14H248_EventNameC2ERK10PBYTEArray
libopal.so.3.10.11:_ZN14H248_EventNameC2ERK7PString
libopal.so.3.10.11:_ZN14H248_EventNameC2EjN11PASN_Object8TagClassE
libopal.so.3.10.11:_ZN14H248_EventNameaSEPKc
libopal.so.3.10.11:_ZN14H248_EventNameaSERK10PBYTEArray
libopal.so.3.10.11:_ZN14H248_EventNameaSERK7PString
libopal.so.3.10.11:_ZN14H248_EventSpec6DecodeER11PASN_Stream
libopal.so.3.10.11:_ZN14H248_EventSpecC1EjN11PASN_Object8TagClassE
libopal.so.3.10.11:_ZN14H248_EventSpecC2EjN11PASN_Object8TagClassE
libopal.so.3.10.11:_ZN14H248_ModemTypeC1EjN11PASN_Object8TagClassE
libopal.so.3.10.11:_ZN14H248_ModemTypeC2EjN11PASN_Object8TagClassE
libopal.so.3.10.11:_ZN14H248_ModemTypeaSEj
libopal.so.3.10.11:_ZN14H248_RequestIDC1EjN11PASN_Object8TagClassE
libopal.so.3.10.11:_ZN14H248_RequestIDC2EjN11PASN_Object8TagClassE
libopal.so.3.10.11:_ZN14H248_RequestIDaSEi
libopal.so.3.10.11:_ZN14H248_RequestIDaSEj
libopal.so.3.10.11:_ZN14H323Capability13OnReceivedPDUERK13H245_DataTypeb
libopal.so.3.10.11:_ZN14H323Capability13OnReceivedPDUERK15H245_Capability
libopal.so.3.10.11:_ZN14H323Capability17UpdateMediaFormatERK15OpalMediaFormat
libopal.so.3.10.11:_ZN14H323Capability19SetTxFramesInPacketEj
libopal.so.3.10.11:_ZN14H323Capability6CreateERK7PString
libopal.so.3.10.11:_ZN14H323CapabilityC1Ev
libopal.so.3.10.11:_ZN14H323CapabilityC2Ev
libopal.so.3.10.11:_ZN14H323Connection10OnAlertingERK13H323SignalPDURK7PString
libopal.so.3.10.11:_ZN14H323Connection10OnReleasedEv
libopal.so.3.10.11:_ZN14H323Connection10UseSessionERK13OpalTransportjRK13OpalMediaTypeP7RTP_QOS
libopal.so.3.10.11:_ZN14H323Connection11ForwardCallERK7PString
libopal.so.3.10.11:_ZN14H323Connection11IntrudeCallEj
libopal.so.3.10.11:_ZN14H323Connection11SetAlertingERK7PStringb
libopal.so.3.10.11:_ZN14H323Connection12OnAnswerCallERK7PString
libopal.so.3.10.11:_ZN14H323Connection12OnAnswerCallERK7PStringRK13H323SignalPDURS3_S6_
libopal.so.3.10.11:_ZN14H323Connection12SetConnectedEv
libopal.so.3.10.11:_ZN14H323Connection12TransferCallERK7PStringS2_
libopal.so.3.10.11:_ZN14H323Connection13AnsweringCallEN14OpalConnection18AnswerCallResponseE
libopal.so.3.10.11:_ZN14H323Connection13GetFeatureSetEv
libopal.so.3.10.11:_ZN14H323Connection13OnEstablishedEv
libopal.so.3.10.11:_ZN14H323Connection13OnH239MessageEjRK29H245_ArrayOf_GenericParameter
libopal.so.3.10.11:_ZN14H323Connection13OnH245CommandERK14H323ControlPDU
libopal.so.3.10.11:_ZN14H323Connection13OnH245RequestERK14H323ControlPDU
libopal.so.3.10.11:_ZN14H323Connection13OnModeChangedERK20H245_ModeDescription
libopal.so.3.10.11:_ZN14H323Connection13OnReceivedACFERK21H225_AdmissionConfirm
libopal.so.3.10.11:_ZN14H323Connection13OnReceivedARJERK20H225_AdmissionReject
libopal.so.3.10.11:_ZN14H323Connection13SetProgressedEv
libopal.so.3.10.11:_ZN14H323Connection13StartOutgoingER7PThreadl
libopal.so.3.10.11:_ZN14H323Connection14OnH245ResponseERK14H323ControlPDU
libopal.so.3.10.11:_ZN14H323Connection14OnIncomingCallERK13H323SignalPDURS0_
libopal.so.3.10.11:_ZN14H323Connection14OnMediaCommandER15OpalMediaStreamRK16OpalMediaCommand
libopal.so.3.10.11:_ZN14H323Connection14OnOutgoingCallERK13H323SignalPDU
libopal.so.3.10.11:_ZN14H323Connection14SendMoreDigitsERK7PString
libopal.so.3.10.11:_ZN14H323Connection14WriteSignalPDUER13H323SignalPDU
libopal.so.3.10.11:_ZN14H323Connection15HandleSignalPDUER13H323SignalPDU
libopal.so.3.10.11:_ZN14H323Connection15HandleTunnelPDUEP13H323SignalPDU
libopal.so.3.10.11:_ZN14H323Connection15OpenMediaStreamERK15OpalMediaFormatjb
libopal.so.3.10.11:_ZN14H323Connection15SendSignalSetupERK7PStringRK20H323TransportAddress
libopal.so.3.10.11:_ZN14H323Connection15SetAlertingTypeERK7PString
libopal.so.3.10.11:_ZN14H323Connection15SetUpConnectionEv
libopal.so.3.10.11:_ZN14H323Connection15WriteControlPDUERK14H323ControlPDU
libopal.so.3.10.11:_ZN14H323Connection16CloseMediaStreamER15OpalMediaStream
libopal.so.3.10.11:_ZN14H323Connection16CreateRTPChannelERK14H323CapabilityN11H323Channel10DirectionsER11RTP_Session
libopal.so.3.10.11:_ZN14H323Connection16GetNextSessionIDERK13OpalMediaTypeb
libopal.so.3.10.11:_ZN14H323Connection16HandleControlPDUERK14H323ControlPDU
libopal.so.3.10.11:_ZN14H323Connection16OnH245IndicationERK14H323ControlPDU
libopal.so.3.10.11:_ZN14H323Connection17HandleControlDataER11PPER_Stream
libopal.so.3.10.11:_ZN14H323Connection17HandleIntrudeCallERK7PStringS2_
libopal.so.3.10.11:_ZN14H323Connection17MonitorCallStatusEv
libopal.so.3.10.11:_ZN14H323Connection17OnSendSignalSetupER13H323SignalPDU
libopal.so.3.10.11:_ZN14H323Connection17RequestModeChangeERK28H245_ArrayOf_ModeDescription
libopal.so.3.10.11:_ZN14H323Connection17RequestModeChangeERK7PString
libopal.so.3.10.11:_ZN14H323Connection17SendCapabilitySetEb
libopal.so.3.10.11:_ZN14H323Connection17SendUserInputToneEcj
libopal.so.3.10.11:_ZN14H323Connection17SetLocalPartyNameERK7PString
libopal.so.3.10.11:_ZN14H323Connection17SetRemoteVersionsERK23H225_ProtocolIdentifier
libopal.so.3.10.11:_ZN14H323Connection18HandleTransferCallERK7PStringS2_
libopal.so.3.10.11:_ZN14H323Connection18OnAcceptModeChangeERK19H245_RequestModeAck
libopal.so.3.10.11:_ZN14H323Connection18OnReceivedAlertingERK13H323SignalPDU
libopal.so.3.10.11:_ZN14H323Connection18OnReceivedFacilityERK13H323SignalPDU
libopal.so.3.10.11:_ZN14H323Connection18OnReceivedProgressERK13H323SignalPDU
libopal.so.3.10.11:_ZN14H323Connection18OnUnknownSignalPDUERK13H323SignalPDU
libopal.so.3.10.11:_ZN14H323Connection18OpenLogicalChannelERK14H323CapabilityjN11H323Channel10DirectionsE
libopal.so.3.10.11:_ZN14H323Connection18SetRemotePartyInfoERK13H323SignalPDU
libopal.so.3.10.11:_ZN14H323Connection18TransferConnectionERK7PString
libopal.so.3.10.11:_ZN14H323Connection19AttachSignalChannelERK7PStringP13OpalTransportb
libopal.so.3.10.11:_ZN14H323Connection19CloseLogicalChannelEjb
libopal.so.3.10.11:_ZN14H323Connection19OnRefusedModeChangeEPK22H245_RequestModeReject
libopal.so.3.10.11:_ZN14H323Connection19OnRequestModeChangeERK16H245_RequestModeR19H245_RequestModeAckR22H245_RequestModeRejectRi
libopal.so.3.10.11:_ZN14H323Connection19OnSendCapabilitySetER26H245_TerminalCapabilitySet
libopal.so.3.10.11:_ZN14H323Connection19OnUnknownControlPDUERK14H323ControlPDU
libopal.so.3.10.11:_ZN14H323Connection19SendUserInputStringERK7PString
libopal.so.3.10.11:_ZN14H323Connection19StartRoundTripDelayEv
libopal.so.3.10.11:_ZN14H323Connection20ConsultationTransferERK7PString
libopal.so.3.10.11:_ZN14H323Connection20CreateLogicalChannelERK23H245_OpenLogicalChannelbRj
libopal.so.3.10.11:_ZN14H323Connection20HandleControlChannelEv
libopal.so.3.10.11:_ZN14H323Connection20OnApplyStringOptionsEv
libopal.so.3.10.11:_ZN14H323Connection20OnInsufficientDigitsEv
libopal.so.3.10.11:_ZN14H323Connection20OnOpenLogicalChannelERK23H245_OpenLogicalChannelR26H245_OpenLogicalChannelAckRj
libopal.so.3.10.11:_ZN14H323Connection20OnSendCallProceedingER13H323SignalPDU
libopal.so.3.10.11:_ZN14H323Connection20RequestModeChangeT38EPKc
libopal.so.3.10.11:_ZN14H323Connection20SetRemoteApplicationERK17H225_EndpointType
libopal.so.3.10.11:_ZN14H323Connection21GetDestinationAddressEv
libopal.so.3.10.11:_ZN14H323Connection21GetFastStartStateNameENS_15FastStartStatesE
libopal.so.3.10.11:_ZN14H323Connection21OnReceivedSignalSetupERK13H323SignalPDU
libopal.so.3.10.11:_ZN14H323Connection21OnSendReleaseCompleteER13H323SignalPDU
libopal.so.3.10.11:_ZN14H323Connection21OnStartLogicalChannelER11H323Channel
libopal.so.3.10.11:_ZN14H323Connection21OnUserInputIndicationERK24H245_UserInputIndication
libopal.so.3.10.11:_ZN14H323Connection21SetBandwidthAvailableEjb
libopal.so.3.10.11:_ZN14H323Connection21SetIntrusionImpendingEv
libopal.so.3.10.11:_ZN14H323Connection21StartFastStartChannelEjN11H323Channel10DirectionsE
libopal.so.3.10.11:_ZN14H323Connection21SwitchFaxMediaStreamsEb
libopal.so.3.10.11:_ZN14H323Connection22IsSendingCapabilitySetEv
libopal.so.3.10.11:_ZN14H323Connection22OnClosedLogicalChannelERK11H323Channel
libopal.so.3.10.11:_ZN14H323Connection22OnControlProtocolErrorENS_21ControlProtocolErrorsEPKv
libopal.so.3.10.11:_ZN14H323Connection22OnCreateLogicalChannelERK14H323CapabilityN11H323Channel10DirectionsERj
libopal.so.3.10.11:_ZN14H323Connection22OnLogicalChannelJitterEP11H323Channeljii
libopal.so.3.10.11:_ZN14H323Connection22OnReceivedSignalNotifyERK13H323SignalPDU
libopal.so.3.10.11:_ZN14H323Connection22OnReceivedSignalStatusERK13H323SignalPDU
libopal.so.3.10.11:_ZN14H323Connection22OnSetLocalCapabilitiesEv
libopal.so.3.10.11:_ZN14H323Connection22SendFlowControlCommandEjj
libopal.so.3.10.11:_ZN14H323Connection22SetAssociatedCallTokenERK7PString
libopal.so.3.10.11:_ZN14H323Connection23CloseAllLogicalChannelsEb
libopal.so.3.10.11:_ZN14H323Connection23GetCallTransferInvokeIdEv
libopal.so.3.10.11:_ZN14H323Connection23GetConnectionStatesNameENS_16ConnectionStatesE
libopal.so.3.10.11:_ZN14H323Connection23HandleSignallingChannelEv
libopal.so.3.10.11:_ZN14H323Connection23InternalEndSessionCheckER11PPER_Stream
libopal.so.3.10.11:_ZN14H323Connection23OnClosingLogicalChannelER11H323Channel
libopal.so.3.10.11:_ZN14H323Connection23OnH245_JitterIndicationERK21H245_JitterIndication
libopal.so.3.10.11:_ZN14H323Connection23OnReceivedCapabilitySetERK16H323CapabilitiesPK24H245_MultiplexCapabilityR32H245_TerminalCapabilitySetReject
libopal.so.3.10.11:_ZN14H323Connection23OnReceivedSignalConnectERK13H323SignalPDU
libopal.so.3.10.11:_ZN14H323Connection23OnReceivedStatusEnquiryERK13H323SignalPDU
libopal.so.3.10.11:_ZN14H323Connection23OnSelectLogicalChannelsEv
libopal.so.3.10.11:_ZN14H323Connection23SelectFastStartChannelsEjbb
libopal.so.3.10.11:_ZN14H323Connection23SendUserInputIndicationERK24H245_UserInputIndication
libopal.so.3.10.11:_ZN14H323Connection24OnH239FlowControlRequestEjj
libopal.so.3.10.11:_ZN14H323Connection24OnReceivedCallProceedingERK13H323SignalPDU
libopal.so.3.10.11:_ZN14H323Connection24OnReceivedSignalSetupAckERK13H323SignalPDU
libopal.so.3.10.11:_ZN14H323Connection24SendFastStartAcknowledgeER29H225_ArrayOf_PASN_OctetString
libopal.so.3.10.11:_ZN14H323Connection24SetEnforcedDurationLimitEj
libopal.so.3.10.11:_ZN14H323Connection24SetForcedReleaseAcceptedEv
libopal.so.3.10.11:_ZN14H323Connection24StartControlNegotiationsEv
libopal.so.3.10.11:_ZN14H323Connection25CloseLogicalChannelNumberERK17H323ChannelNumber
libopal.so.3.10.11:_ZN14H323Connection25HandleCallTransferFailureEi
libopal.so.3.10.11:_ZN14H323Connection25NewIncomingControlChannelER7PThreadl
libopal.so.3.10.11:_ZN14H323Connection25NewOutgoingControlChannelER7PThreadl
libopal.so.3.10.11:_ZN14H323Connection25OnH239FlowControlResponseEjb
libopal.so.3.10.11:_ZN14H323Connection25OnH239PresentationReleaseEjj
libopal.so.3.10.11:_ZN14H323Connection25OnH239PresentationRequestEjjj
libopal.so.3.10.11:_ZN14H323Connection25OnH245_FlowControlCommandERK23H245_FlowControlCommand
libopal.so.3.10.11:_ZN14H323Connection25OnReceivedReleaseCompleteERK13H323SignalPDU
libopal.so.3.10.11:_ZN14H323Connection25SendCallWaitingIndicationEj
libopal.so.3.10.11:_ZN14H323Connection25SetIntrusionNotAuthorizedEv
libopal.so.3.10.11:_ZN14H323Connection26HandleConsultationTransferERK7PStringRS_
libopal.so.3.10.11:_ZN14H323Connection26HandleFastStartAcknowledgeERK29H225_ArrayOf_PASN_OctetString
libopal.so.3.10.11:_ZN14H323Connection26OnH239PresentationResponseEjjb
libopal.so.3.10.11:_ZN14H323Connection27OnConflictingLogicalChannelER11H323Channel
libopal.so.3.10.11:_ZN14H323Connection27OnH245_MiscellaneousCommandERK25H245_MiscellaneousCommand
libopal.so.3.10.11:_ZN14H323Connection27OnLogicalChannelFlowControlEP11H323Channell
libopal.so.3.10.11:_ZN14H323Connection27OnReceivedSignalInformationERK13H323SignalPDU
libopal.so.3.10.11:_ZN14H323Connection27SelectDefaultLogicalChannelERK13OpalMediaTypej
libopal.so.3.10.11:_ZN14H323Connection27SendH239PresentationReleaseEjj
libopal.so.3.10.11:_ZN14H323Connection27SendH239PresentationRequestEjjj
libopal.so.3.10.11:_ZN14H323Connection27SendUserInputIndicationQ931ERK7PString
libopal.so.3.10.11:_ZN14H323Connection27SendUserInputIndicationToneEcjjj
libopal.so.3.10.11:_ZN14H323Connection28CreateIncomingControlChannelER21H225_TransportAddress
libopal.so.3.10.11:_ZN14H323Connection28CreateOutgoingControlChannelERK21H225_TransportAddress
libopal.so.3.10.11:_ZN14H323Connection28CreateRealTimeLogicalChannelERK14H323CapabilityN11H323Channel10DirectionsEjPK34H245_H2250LogicalChannelParametersP7RTP_QOS
libopal.so.3.10.11:_ZN14H323Connection28OnH239PresentationIndicationEjj
libopal.so.3.10.11:_ZN14H323Connection29OnConsultationTransferSuccessERS_
libopal.so.3.10.11:_ZN14H323Connection29SendUserInputIndicationStringERK7PString
libopal.so.3.10.11:_ZN14H323Connection30OnH245_MiscellaneousIndicationERK28H245_MiscellaneousIndication
libopal.so.3.10.11:_ZN14H323Connection32OnH245_SendTerminalCapabilitySetERK30H245_SendTerminalCapabilitySet
libopal.so.3.10.11:_ZN14H323Connection33GetAdmissionRequestAuthenticationERK21H225_AdmissionRequestR18H235Authenticators
libopal.so.3.10.11:_ZN14H323Connection34InternalEstablishedConnectionCheckEv
libopal.so.3.10.11:_ZN14H323Connection37GetRemoteCallIntrusionProtectionLevelERK7PStringj
libopal.so.3.10.11:_ZN14H323Connection4HoldEbb
libopal.so.3.10.11:_ZN14H323Connection8IsOnHoldEb
libopal.so.3.10.11:_ZN14H323Connection9OnSendARQER21H225_AdmissionRequest
libopal.so.3.10.11:_ZN14H323ConnectionC1ER8OpalCallR12H323EndPointRK7PStringS6_RK20H323TransportAddressjPN14OpalConnection13StringOptionsE
libopal.so.3.10.11:_ZN14H323ConnectionC2ER8OpalCallR12H323EndPointRK7PStringS6_RK20H323TransportAddressjPN14OpalConnection13StringOptionsE
libopal.so.3.10.11:_ZN14H323ConnectionD0Ev
libopal.so.3.10.11:_ZN14H323ConnectionD1Ev
libopal.so.3.10.11:_ZN14H323ConnectionD2Ev
libopal.so.3.10.11:_ZN14H323ControlPDU16BuildRequestModeEj
libopal.so.3.10.11:_ZN14H323ControlPDU19BuildGenericCommandERK7PStringj
libopal.so.3.10.11:_ZN14H323ControlPDU19BuildGenericRequestERK7PStringj
libopal.so.3.10.11:_ZN14H323ControlPDU19BuildRequestModeAckEjj
libopal.so.3.10.11:_ZN14H323ControlPDU20BuildGenericResponseERK7PStringj
libopal.so.3.10.11:_ZN14H323ControlPDU22BuildEndSessionCommandEj
libopal.so.3.10.11:_ZN14H323ControlPDU22BuildGenericIndicationERK7PStringj
libopal.so.3.10.11:_ZN14H323ControlPDU22BuildRequestModeRejectEjj
libopal.so.3.10.11:_ZN14H323ControlPDU23BuildFlowControlCommandEjj
libopal.so.3.10.11:_ZN14H323ControlPDU23BuildOpenLogicalChannelEj
libopal.so.3.10.11:_ZN14H323ControlPDU24BuildCloseLogicalChannelEj
libopal.so.3.10.11:_ZN14H323ControlPDU24BuildRequestChannelCloseEjj
libopal.so.3.10.11:_ZN14H323ControlPDU24BuildUserInputIndicationERK7PString
libopal.so.3.10.11:_ZN14H323ControlPDU24BuildUserInputIndicationEcjjj
libopal.so.3.10.11:_ZN14H323ControlPDU25BuildMiscellaneousCommandEjj
libopal.so.3.10.11:_ZN14H323ControlPDU26BuildFunctionNotUnderstoodERKS_
libopal.so.3.10.11:_ZN14H323ControlPDU26BuildOpenLogicalChannelAckEj
libopal.so.3.10.11:_ZN14H323ControlPDU26BuildRoundTripDelayRequestEj
libopal.so.3.10.11:_ZN14H323ControlPDU26BuildTerminalCapabilitySetERK14H323Connectionjb
libopal.so.3.10.11:_ZN14H323ControlPDU27BuildCloseLogicalChannelAckEj
libopal.so.3.10.11:_ZN14H323ControlPDU27BuildRequestChannelCloseAckEj
libopal.so.3.10.11:_ZN14H323ControlPDU27BuildRoundTripDelayResponseEj
libopal.so.3.10.11:_ZN14H323ControlPDU28BuildMiscellaneousIndicationEjj
libopal.so.3.10.11:_ZN14H323ControlPDU29BuildMasterSlaveDeterminationEjj
libopal.so.3.10.11:_ZN14H323ControlPDU29BuildOpenLogicalChannelRejectEjj
libopal.so.3.10.11:_ZN14H323ControlPDU29BuildTerminalCapabilitySetAckEj
libopal.so.3.10.11:_ZN14H323ControlPDU30BuildOpenLogicalChannelConfirmEj
libopal.so.3.10.11:_ZN14H323ControlPDU30BuildRequestChannelCloseRejectEj
libopal.so.3.10.11:_ZN14H323ControlPDU31BuildRequestChannelCloseReleaseEj
libopal.so.3.10.11:_ZN14H323ControlPDU32BuildMasterSlaveDeterminationAckEb
libopal.so.3.10.11:_ZN14H323ControlPDU32BuildTerminalCapabilitySetRejectEjj
libopal.so.3.10.11:_ZN14H323ControlPDU35BuildMasterSlaveDeterminationRejectEj
libopal.so.3.10.11:_ZN14H323ControlPDU5BuildEN19H245_CommandMessage7ChoicesE
libopal.so.3.10.11:_ZN14H323ControlPDU5BuildEN19H245_RequestMessage7ChoicesE
libopal.so.3.10.11:_ZN14H323ControlPDU5BuildEN20H245_ResponseMessage7ChoicesE
libopal.so.3.10.11:_ZN14H323ControlPDU5BuildEN22H245_IndicationMessage7ChoicesE
libopal.so.3.10.11:_ZN14H323Gatekeeper11DiscoverAnyEv
libopal.so.3.10.11:_ZN14H323Gatekeeper11MakeRequestERN14H323Transactor7RequestE
libopal.so.3.10.11:_ZN14H323Gatekeeper11MonitorMainER7PThreadl
libopal.so.3.10.11:_ZN14H323Gatekeeper11SetPasswordERK7PStringS2_
libopal.so.3.10.11:_ZN14H323Gatekeeper13AlternateInfo7CompareERK7PObject
libopal.so.3.10.11:_ZN14H323Gatekeeper13AlternateInfoC1ER16H225_AlternateGK
libopal.so.3.10.11:_ZN14H323Gatekeeper13AlternateInfoC2ER16H225_AlternateGK
libopal.so.3.10.11:_ZN14H323Gatekeeper13AlternateInfoD0Ev
libopal.so.3.10.11:_ZN14H323Gatekeeper13AlternateInfoD1Ev
libopal.so.3.10.11:_ZN14H323Gatekeeper13AlternateInfoD2Ev
libopal.so.3.10.11:_ZN14H323Gatekeeper13SetAlternatesERK24H225_ArrayOf_AlternateGKb
libopal.so.3.10.11:_ZN14H323Gatekeeper13TickleMonitorER6PTimerl
libopal.so.3.10.11:_ZN14H323Gatekeeper14DiscoverByNameERK7PString
libopal.so.3.10.11:_ZN14H323Gatekeeper14OnAddInterfaceERKN9PIPSocket14InterfaceEntryEi
libopal.so.3.10.11:_ZN14H323Gatekeeper15CreateTransportEN9PIPSocket7AddressEtb
libopal.so.3.10.11:_ZN14H323Gatekeeper15LocationRequestERK11PStringListR20H323TransportAddress
libopal.so.3.10.11:_ZN14H323Gatekeeper15LocationRequestERK7PStringR20H323TransportAddress
libopal.so.3.10.11:_ZN14H323Gatekeeper15StartGatekeeperERK20H323TransportAddress
libopal.so.3.10.11:_ZN14H323Gatekeeper16AdmissionRequestER14H323ConnectionRNS_17AdmissionResponseEb
libopal.so.3.10.11:_ZN14H323Gatekeeper16BandwidthRequestER14H323Connectionj
libopal.so.3.10.11:_ZN14H323Gatekeeper16DisengageRequestERK14H323Connectionj
libopal.so.3.10.11:_ZN14H323Gatekeeper16InterfaceMonitor14OnAddInterfaceERKN9PIPSocket14InterfaceEntryE
libopal.so.3.10.11:_ZN14H323Gatekeeper16InterfaceMonitor17OnRemoveInterfaceERKN9PIPSocket14InterfaceEntryE
libopal.so.3.10.11:_ZN14H323Gatekeeper16InterfaceMonitorC1ERS_i
libopal.so.3.10.11:_ZN14H323Gatekeeper16InterfaceMonitorC2ERS_i
libopal.so.3.10.11:_ZN14H323Gatekeeper17AdmissionResponseC1Ev
libopal.so.3.10.11:_ZN14H323Gatekeeper17AdmissionResponseC2Ev
libopal.so.3.10.11:_ZN14H323Gatekeeper17DiscoverByAddressERK20H323TransportAddress
libopal.so.3.10.11:_ZN14H323Gatekeeper17OnRemoveInterfaceERKN9PIPSocket14InterfaceEntryEi
libopal.so.3.10.11:_ZN14H323Gatekeeper18DiscoverGatekeeperEv
libopal.so.3.10.11:_ZN14H323Gatekeeper18SendUnsolicitedIRRER24H225_InfoRequestResponseR10H323RasPDU
libopal.so.3.10.11:_ZN14H323Gatekeeper18SetInfoRequestRateERK13PTimeInterval
libopal.so.3.10.11:_ZN14H323Gatekeeper19InfoRequestResponseERK14H323Connection
libopal.so.3.10.11:_ZN14H323Gatekeeper19InfoRequestResponseERK14H323ConnectionRK16H225_H323_UU_PDUb
libopal.so.3.10.11:_ZN14H323Gatekeeper19InfoRequestResponseEv
libopal.so.3.10.11:_ZN14H323Gatekeeper19RegistrationRequestEbb
libopal.so.3.10.11:_ZN14H323Gatekeeper20ClearInfoRequestRateEv
libopal.so.3.10.11:_ZN14H323Gatekeeper20OnReceiveInfoRequestERK16H225_InfoRequest
libopal.so.3.10.11:_ZN14H323Gatekeeper20SetListenerAddressesER29H225_ArrayOf_TransportAddress
libopal.so.3.10.11:_ZN14H323Gatekeeper21UnregistrationRequestEi
libopal.so.3.10.11:_ZN14H323Gatekeeper22OnSendAdmissionRequestER21H225_AdmissionRequest
libopal.so.3.10.11:_ZN14H323Gatekeeper22OnTerminalAliasChangedEv
libopal.so.3.10.11:_ZN14H323Gatekeeper22RegistrationTimeToLiveEv
libopal.so.3.10.11:_ZN14H323Gatekeeper22SetupGatekeeperRequestER10H323RasPDU
libopal.so.3.10.11:_ZN14H323Gatekeeper22UpdateConnectionStatusEv
libopal.so.3.10.11:_ZN14H323Gatekeeper23OnSendGatekeeperRequestER22H225_GatekeeperRequest
libopal.so.3.10.11:_ZN14H323Gatekeeper24BuildInfoRequestResponseER10H323RasPDUj
libopal.so.3.10.11:_ZN14H323Gatekeeper24DiscoverByNameAndAddressERK7PStringRK20H323TransportAddress
libopal.so.3.10.11:_ZN14H323Gatekeeper24OnReceiveAdmissionRejectERK20H225_AdmissionReject
libopal.so.3.10.11:_ZN14H323Gatekeeper24OnServiceControlSessionsERK34H225_ArrayOf_ServiceControlSessionP14H323Connection
libopal.so.3.10.11:_ZN14H323Gatekeeper25MakeRequestWithReregisterERN14H323Transactor7RequestEj
libopal.so.3.10.11:_ZN14H323Gatekeeper25OnReceiveAdmissionConfirmERK21H225_AdmissionConfirm
libopal.so.3.10.11:_ZN14H323Gatekeeper25OnReceiveBandwidthConfirmERK21H225_BandwidthConfirm
libopal.so.3.10.11:_ZN14H323Gatekeeper25OnReceiveBandwidthRequestERK21H225_BandwidthRequest
libopal.so.3.10.11:_ZN14H323Gatekeeper25OnReceiveDisengageRequestERK21H225_DisengageRequest
libopal.so.3.10.11:_ZN14H323Gatekeeper25OnReceiveGatekeeperRejectERK21H225_GatekeeperReject
libopal.so.3.10.11:_ZN14H323Gatekeeper26OnReceiveGatekeeperConfirmERK22H225_GatekeeperConfirm
libopal.so.3.10.11:_ZN14H323Gatekeeper27OnReceiveRegistrationRejectERK23H225_RegistrationReject
libopal.so.3.10.11:_ZN14H323Gatekeeper28OnReceiveRegistrationConfirmERK24H225_RegistrationConfirm
libopal.so.3.10.11:_ZN14H323Gatekeeper29OnReceiveUnregistrationRejectERK25H225_UnregistrationReject
libopal.so.3.10.11:_ZN14H323Gatekeeper30OnReceiveUnregistrationConfirmERK26H225_UnregistrationConfirm
libopal.so.3.10.11:_ZN14H323Gatekeeper30OnReceiveUnregistrationRequestERK26H225_UnregistrationRequest
libopal.so.3.10.11:_ZN14H323Gatekeeper33OnReceiveServiceControlIndicationERK29H225_ServiceControlIndication
libopal.so.3.10.11:_ZN14H323Gatekeeper7ConnectERK20H323TransportAddressRK7PString
libopal.so.3.10.11:_ZN14H323Gatekeeper7WriteToER18H323TransactionPDURK25H323TransportAddressArrayb
libopal.so.3.10.11:_ZN14H323GatekeeperC1ER12H323EndPointP13OpalTransport
libopal.so.3.10.11:_ZN14H323GatekeeperC2ER12H323EndPointP13OpalTransport
libopal.so.3.10.11:_ZN14H323GatekeeperD0Ev
libopal.so.3.10.11:_ZN14H323GatekeeperD1Ev
libopal.so.3.10.11:_ZN14H323GatekeeperD2Ev
libopal.so.3.10.11:_ZN14H323Transactor11MakeRequestERNS_7RequestE
libopal.so.3.10.11:_ZN14H323Transactor11StopChannelEv
libopal.so.3.10.11:_ZN14H323Transactor12AgeResponsesEv
libopal.so.3.10.11:_ZN14H323Transactor12SetTransportERK20H323TransportAddress
libopal.so.3.10.11:_ZN14H323Transactor12StartChannelEv
libopal.so.3.10.11:_ZN14H323Transactor16CheckForResponseEjjPK11PASN_Choice
libopal.so.3.10.11:_ZN14H323Transactor17CheckCryptoTokensERK18H323TransactionPDURK10PASN_ArrayjS5_j
libopal.so.3.10.11:_ZN14H323Transactor18HandleTransactionsER7PThreadl
libopal.so.3.10.11:_ZN14H323Transactor18SendCachedResponseERK18H323TransactionPDU
libopal.so.3.10.11:_ZN14H323Transactor21GetInterfaceAddressesEb
libopal.so.3.10.11:_ZN14H323Transactor21GetNextSequenceNumberEv
libopal.so.3.10.11:_ZN14H323Transactor23HandleRequestInProgressERK18H323TransactionPDUj
libopal.so.3.10.11:_ZN14H323Transactor24SetUpCallSignalAddressesER29H225_ArrayOf_TransportAddress
libopal.so.3.10.11:_ZN14H323Transactor7Request12OnReceiveRIPEj
libopal.so.3.10.11:_ZN14H323Transactor7Request13CheckResponseEjPK11PASN_Choice
libopal.so.3.10.11:_ZN14H323Transactor7Request4PollERS_j13PTimeInterval
libopal.so.3.10.11:_ZN14H323Transactor7RequestC1EjR18H323TransactionPDU
libopal.so.3.10.11:_ZN14H323Transactor7RequestC1EjR18H323TransactionPDURK25H323TransportAddressArray
libopal.so.3.10.11:_ZN14H323Transactor7RequestC2EjR18H323TransactionPDU
libopal.so.3.10.11:_ZN14H323Transactor7RequestC2EjR18H323TransactionPDURK25H323TransportAddressArray
libopal.so.3.10.11:_ZN14H323Transactor7WriteToER18H323TransactionPDURK25H323TransportAddressArrayb
libopal.so.3.10.11:_ZN14H323Transactor8Response18SendCachedResponseER13OpalTransport
libopal.so.3.10.11:_ZN14H323Transactor8Response6SetPDUERK18H323TransactionPDU
libopal.so.3.10.11:_ZN14H323Transactor8ResponseC1ERK20H323TransportAddressj
libopal.so.3.10.11:_ZN14H323Transactor8ResponseC2ERK20H323TransportAddressj
libopal.so.3.10.11:_ZN14H323Transactor8ResponseD0Ev
libopal.so.3.10.11:_ZN14H323Transactor8ResponseD1Ev
libopal.so.3.10.11:_ZN14H323Transactor8ResponseD2Ev
libopal.so.3.10.11:_ZN14H323Transactor8WritePDUER18H323TransactionPDU
libopal.so.3.10.11:_ZN14H323Transactor9ConstructEv
libopal.so.3.10.11:_ZN14H323TransactorC1ER12H323EndPointP13OpalTransporttt
libopal.so.3.10.11:_ZN14H323TransactorC1ER12H323EndPointRK20H323TransportAddresstt
libopal.so.3.10.11:_ZN14H323TransactorC2ER12H323EndPointP13OpalTransporttt
libopal.so.3.10.11:_ZN14H323TransactorC2ER12H323EndPointRK20H323TransportAddresstt
libopal.so.3.10.11:_ZN14H323TransactorD0Ev
libopal.so.3.10.11:_ZN14H323TransactorD1Ev
libopal.so.3.10.11:_ZN14H323TransactorD2Ev
libopal.so.3.10.11:_ZN14H4502_DummyArg12CreateObjectEv
libopal.so.3.10.11:_ZN14H4502_DummyArgC1EjN11PASN_Object8TagClassE
libopal.so.3.10.11:_ZN14H4502_DummyArgC2EjN11PASN_Object8TagClassE
libopal.so.3.10.11:_ZN14H4502_DummyArgcvR18H4502_ExtensionSeqEv
libopal.so.3.10.11:_ZN14H4502_DummyArgcvR25H225_NonStandardParameterEv
libopal.so.3.10.11:_ZN14H4502_DummyRes12CreateObjectEv
libopal.so.3.10.11:_ZN14H4502_DummyResC1EjN11PASN_Object8TagClassE
libopal.so.3.10.11:_ZN14H4502_DummyResC2EjN11PASN_Object8TagClassE
libopal.so.3.10.11:_ZN14H4502_DummyRescvR18H4502_ExtensionSeqEv
libopal.so.3.10.11:_ZN14H4502_DummyRescvR25H225_NonStandardParameterEv
libopal.so.3.10.11:_ZN14H4505_CallTypeC1EjN11PASN_Object8TagClassE
libopal.so.3.10.11:_ZN14H4505_CallTypeC2EjN11PASN_Object8TagClassE
libopal.so.3.10.11:_ZN14H4505_CallTypeaSEj
libopal.so.3.10.11:_ZN14H4507_DummyResC1EjN11PASN_Object8TagClassE
libopal.so.3.10.11:_ZN14H4507_DummyResC2EjN11PASN_Object8TagClassE
libopal.so.3.10.11:_ZN14H460_FeatureIDC1E22H225_GenericIdentifier
libopal.so.3.10.11:_ZN14H460_FeatureIDC1E7OpalOID
libopal.so.3.10.11:_ZN14H460_FeatureIDC1E7PString
libopal.so.3.10.11:_ZN14H460_FeatureIDC1Ej
libopal.so.3.10.11:_ZN14H460_FeatureIDC1Ev
libopal.so.3.10.11:_ZN14H460_FeatureIDC2E22H225_GenericIdentifier
libopal.so.3.10.11:_ZN14H460_FeatureIDC2E7OpalOID
libopal.so.3.10.11:_ZN14H460_FeatureIDC2E7PString
libopal.so.3.10.11:_ZN14H460_FeatureIDC2Ej
libopal.so.3.10.11:_ZN14H460_FeatureIDC2Ev
libopal.so.3.10.11:_ZN14H460_FeatureIDaSE7OpalOID
libopal.so.3.10.11:_ZN14H460_FeatureIDaSE7PString
libopal.so.3.10.11:_ZN14H460_FeatureIDaSEj
libopal.so.3.10.11:_ZN14IAX2Connection10EndCallNowEN14OpalConnection13CallEndReasonE
libopal.so.3.10.11:_ZN14IAX2Connection10OnReleasedEv
libopal.so.3.10.11:_ZN14IAX2Connection11ChooseCodecEv
libopal.so.3.10.11:_ZN14IAX2Connection11ForwardCallERK7PString
libopal.so.3.10.11:_ZN14IAX2Connection11OnConnectedEv
libopal.so.3.10.11:_ZN14IAX2Connection11SetAlertingERK7PStringb
libopal.so.3.10.11:_ZN14IAX2Connection12SetCallTokenE7PString
libopal.so.3.10.11:_ZN14IAX2Connection12SetConnectedEv
libopal.so.3.10.11:_ZN14IAX2Connection13AnsweringCallEN14OpalConnection18AnswerCallResponseE
libopal.so.3.10.11:_ZN14IAX2Connection13OnEstablishedEv
libopal.so.3.10.11:_ZN14IAX2Connection14StartOperationEv
libopal.so.3.10.11:_ZN14IAX2Connection15ReadSoundPacketER13RTP_DataFrame
libopal.so.3.10.11:_ZN14IAX2Connection15SetUpConnectionEv
libopal.so.3.10.11:_ZN14IAX2Connection17CreateMediaStreamERK15OpalMediaFormatjb
libopal.so.3.10.11:_ZN14IAX2Connection17GetPreferredCodecEv
libopal.so.3.10.11:_ZN14IAX2Connection17SendUserInputToneEcj
libopal.so.3.10.11:_ZN14IAX2Connection18GetSupportedCodecsEv
libopal.so.3.10.11:_ZN14IAX2Connection18TransferConnectionERK7PString
libopal.so.3.10.11:_ZN14IAX2Connection19SendUserInputStringERK7PString
libopal.so.3.10.11:_ZN14IAX2Connection20RemoteHoldConnectionEv
libopal.so.3.10.11:_ZN14IAX2Connection21IncomingEthernetFrameEP9IAX2Frame
libopal.so.3.10.11:_ZN14IAX2Connection23PutSoundPacketToNetworkEP10PBYTEArray
libopal.so.3.10.11:_ZN14IAX2Connection24RemoteRetrieveConnectionEv
libopal.so.3.10.11:_ZN14IAX2Connection26BuildRemoteCapabilityTableEjj
libopal.so.3.10.11:_ZN14IAX2Connection29TransmitFrameToRemoteEndpointEP9IAX2Frame
libopal.so.3.10.11:_ZN14IAX2Connection30ReceivedSoundPacketFromNetworkEP9IAX2Frame
libopal.so.3.10.11:_ZN14IAX2Connection4HoldEbb
libopal.so.3.10.11:_ZN14IAX2Connection7OnSetUpEv
libopal.so.3.10.11:_ZN14IAX2Connection8IsOnHoldEb
libopal.so.3.10.11:_ZN14IAX2Connection8SendDtmfERK7PString
libopal.so.3.10.11:_ZN14IAX2ConnectionC1ER8OpalCallR12IAX2EndPointRK7PStringPvS6_S6_
libopal.so.3.10.11:_ZN14IAX2ConnectionC2ER8OpalCallR12IAX2EndPointRK7PStringPvS6_S6_
libopal.so.3.10.11:_ZN14IAX2ConnectionD0Ev
libopal.so.3.10.11:_ZN14IAX2ConnectionD1Ev
libopal.so.3.10.11:_ZN14IAX2ConnectionD2Ev
libopal.so.3.10.11:_ZN14IAX2Encryption13AesDecryptKeyEv
libopal.so.3.10.11:_ZN14IAX2Encryption13AesEncryptKeyEv
libopal.so.3.10.11:_ZN14IAX2Encryption15SetChallengeKeyER7PString
libopal.so.3.10.11:_ZN14IAX2Encryption15SetEncryptionOnEb
libopal.so.3.10.11:_ZN14IAX2Encryption16CalculateAesKeysEv
libopal.so.3.10.11:_ZN14IAX2Encryption16SetEncryptionKeyER7PString
libopal.so.3.10.11:_ZN14IAX2EncryptionC1Ev
libopal.so.3.10.11:_ZN14IAX2EncryptionC2Ev
libopal.so.3.10.11:_ZN14OpalAudioMixer10MixStreamsER13RTP_DataFrame
libopal.so.3.10.11:_ZN14OpalAudioMixer11AudioStream11QueuePacketERK13RTP_DataFrame
libopal.so.3.10.11:_ZN14OpalAudioMixer11AudioStream15GetAudioDataPtrEv
libopal.so.3.10.11:_ZN14OpalAudioMixer11AudioStreamC1ERS_
libopal.so.3.10.11:_ZN14OpalAudioMixer11AudioStreamC2ERS_
libopal.so.3.10.11:_ZN14OpalAudioMixer11AudioStreamD0Ev
libopal.so.3.10.11:_ZN14OpalAudioMixer11AudioStreamD1Ev
libopal.so.3.10.11:_ZN14OpalAudioMixer11AudioStreamD2Ev
libopal.so.3.10.11:_ZN14OpalAudioMixer11MixAdditiveER13RTP_DataFramePKs
libopal.so.3.10.11:_ZN14OpalAudioMixer12CreateStreamEv
libopal.so.3.10.11:_ZN14OpalAudioMixer12RemoveStreamERK7PString
libopal.so.3.10.11:_ZN14OpalAudioMixer13PreMixStreamsEv
libopal.so.3.10.11:_ZN14OpalAudioMixer13SetSampleRateEj
libopal.so.3.10.11:_ZN14OpalAudioMixer16RemoveAllStreamsEv
libopal.so.3.10.11:_ZN14OpalAudioMixer19SetJitterBufferSizeERK7PStringjj
libopal.so.3.10.11:_ZN14OpalAudioMixer9MixStereoER13RTP_DataFrame
libopal.so.3.10.11:_ZN14OpalAudioMixerC1Ebjbj
libopal.so.3.10.11:_ZN14OpalAudioMixerC2Ebjbj
libopal.so.3.10.11:_ZN14OpalConnection10OnAlertingEv
libopal.so.3.10.11:_ZN14OpalConnection10OnReleasedEv
libopal.so.3.10.11:_ZN14OpalConnection11ForwardCallERK7PString
libopal.so.3.10.11:_ZN14OpalConnection11OnConnectedEv
libopal.so.3.10.11:_ZN14OpalConnection12AutoStartMap10InitialiseERKNS_13StringOptionsE
libopal.so.3.10.11:_ZN14OpalConnection12AutoStartMap12SetAutoStartERK13OpalMediaTypeNS1_13AutoStartModeE
libopal.so.3.10.11:_ZN14OpalConnection12AutoStartMapC1Ev
libopal.so.3.10.11:_ZN14OpalConnection12AutoStartMapC2Ev
libopal.so.3.10.11:_ZN14OpalConnection12GetAudioMuteEbRb
libopal.so.3.10.11:_ZN14OpalConnection12GetUserInputEj
libopal.so.3.10.11:_ZN14OpalConnection12LuaSetOptionEP9lua_State
libopal.so.3.10.11:_ZN14OpalConnection12OnAnswerCallERK7PString
libopal.so.3.10.11:_ZN14OpalConnection12OnProceedingEv
libopal.so.3.10.11:_ZN14OpalConnection12SetAudioMuteEbb
libopal.so.3.10.11:_ZN14OpalConnection12SetConnectedEv
libopal.so.3.10.11:_ZN14OpalConnection12SetUserInputERK7PString
libopal.so.3.10.11:_ZN14OpalConnection13AnsweringCallENS_18AnswerCallResponseE
libopal.so.3.10.11:_ZN14OpalConnection13OnEstablishedEv
libopal.so.3.10.11:_ZN14OpalConnection13OnRecordAudioER13RTP_DataFramel
libopal.so.3.10.11:_ZN14OpalConnection13OnRecordVideoER13RTP_DataFramel
libopal.so.3.10.11:_ZN14OpalConnection13ReadUserInputEPKcjj
libopal.so.3.10.11:_ZN14OpalConnection13StringOptions14ExtractFromURLER4PURL
libopal.so.3.10.11:_ZN14OpalConnection14CopyPartyNamesERKS_
libopal.so.3.10.11:_ZN14OpalConnection14GetAudioVolumeEbRj
libopal.so.3.10.11:_ZN14OpalConnection14OnMediaCommandER15OpalMediaStreamRK16OpalMediaCommand
libopal.so.3.10.11:_ZN14OpalConnection14SetAudioVolumeEbj
libopal.so.3.10.11:_ZN14OpalConnection15EnableRecordingEv
libopal.so.3.10.11:_ZN14OpalConnection15OnStopRecordingEP14OpalMediaPatch
libopal.so.3.10.11:_ZN14OpalConnection15OnUserInputToneEcj
libopal.so.3.10.11:_ZN14OpalConnection15OpenMediaStreamERK15OpalMediaFormatjb
libopal.so.3.10.11:_ZN14OpalConnection15PromptUserInputEb
libopal.so.3.10.11:_ZN14OpalConnection15SetAlertingTypeERK7PString
libopal.so.3.10.11:_ZN14OpalConnection16CloseMediaStreamER15OpalMediaStream
libopal.so.3.10.11:_ZN14OpalConnection16CloseMediaStreamEjb
libopal.so.3.10.11:_ZN14OpalConnection16DisableRecordingEv
libopal.so.3.10.11:_ZN14OpalConnection16GetNextSessionIDERK13OpalMediaTypeb
libopal.so.3.10.11:_ZN14OpalConnection16OnSendInBandDTMFER13RTP_DataFramel
libopal.so.3.10.11:_ZN14OpalConnection16OnStartRecordingEP14OpalMediaPatch
libopal.so.3.10.11:_ZN14OpalConnection16OnStopMediaPatchER14OpalMediaPatch
libopal.so.3.10.11:_ZN14OpalConnection16OnTransferNotifyERK15PStringToStringPKS_
libopal.so.3.10.11:_ZN14OpalConnection16SetBandwidthUsedEjj
libopal.so.3.10.11:_ZN14OpalConnection16SetCallEndReasonENS_13CallEndReasonE
libopal.so.3.10.11:_ZN14OpalConnection16SetStringOptionsERKNS_13StringOptionsEb
libopal.so.3.10.11:_ZN14OpalConnection17CloseMediaStreamsEv
libopal.so.3.10.11:_ZN14OpalConnection17CreateMediaStreamERK15OpalMediaFormatjb
libopal.so.3.10.11:_ZN14OpalConnection17GarbageCollectionEv
libopal.so.3.10.11:_ZN14OpalConnection17GetCalledPartyURLEv
libopal.so.3.10.11:_ZN14OpalConnection17OnOpenMediaStreamER15OpalMediaStream
libopal.so.3.10.11:_ZN14OpalConnection17OnSetUpConnectionEv
libopal.so.3.10.11:_ZN14OpalConnection17OnStartMediaPatchER14OpalMediaPatch
libopal.so.3.10.11:_ZN14OpalConnection17OnUserInputStringERK7PString
libopal.so.3.10.11:_ZN14OpalConnection17PauseMediaStreamsEb
libopal.so.3.10.11:_ZN14OpalConnection17RemoveMediaStreamER15OpalMediaStream
libopal.so.3.10.11:_ZN14OpalConnection17SendUserInputToneEcj
libopal.so.3.10.11:_ZN14OpalConnection17SetLocalPartyNameERK7PString
libopal.so.3.10.11:_ZN14OpalConnection17StartMediaStreamsEv
libopal.so.3.10.11:_ZN14OpalConnection18OnDetectInBandDTMFER13RTP_DataFramel
libopal.so.3.10.11:_ZN14OpalConnection18OnPatchMediaStreamEbR14OpalMediaPatch
libopal.so.3.10.11:_ZN14OpalConnection18OnPauseMediaStreamER15OpalMediaStreamb
libopal.so.3.10.11:_ZN14OpalConnection18TransferConnectionERK7PString
libopal.so.3.10.11:_ZN14OpalConnection19GetAudioSignalLevelEb
libopal.so.3.10.11:_ZN14OpalConnection19OnClosedMediaStreamERK15OpalMediaStream
libopal.so.3.10.11:_ZN14OpalConnection19OnConnectedInternalEv
libopal.so.3.10.11:_ZN14OpalConnection19OnReleaseThreadMainER7PThreadl
libopal.so.3.10.11:_ZN14OpalConnection19SendUserInputStringERK7PString
libopal.so.3.10.11:_ZN14OpalConnection19SetAudioJitterDelayEjj
libopal.so.3.10.11:_ZN14OpalConnection20ClearCallSynchronousEP10PSyncPointNS_13CallEndReasonE
libopal.so.3.10.11:_ZN14OpalConnection20GetCallEndReasonTextENS_13CallEndReasonE
libopal.so.3.10.11:_ZN14OpalConnection20GetLocalMediaFormatsEv
libopal.so.3.10.11:_ZN14OpalConnection20OnApplyStringOptionsEv
libopal.so.3.10.11:_ZN14OpalConnection20OnIncomingConnectionEjPNS_13StringOptionsE
libopal.so.3.10.11:_ZN14OpalConnection20SetCallEndReasonTextENS_18CallEndReasonCodesERK7PString
libopal.so.3.10.11:_ZN14OpalConnection20SetSendUserInputModeENS_18SendUserInputModesE
libopal.so.3.10.11:_ZN14OpalConnection21AutoStartMediaStreamsEb
libopal.so.3.10.11:_ZN14OpalConnection21GetDestinationAddressEv
libopal.so.3.10.11:_ZN14OpalConnection21SetBandwidthAvailableEjb
libopal.so.3.10.11:_ZN14OpalConnection21SwitchFaxMediaStreamsEb
libopal.so.3.10.11:_ZN14OpalConnection22CreateVideoInputDeviceERK15OpalMediaFormatRP17PVideoInputDeviceRb
libopal.so.3.10.11:_ZN14OpalConnection23CreateVideoOutputDeviceERK15OpalMediaFormatbRP18PVideoOutputDeviceRb
libopal.so.3.10.11:_ZN14OpalConnection25OnSwitchedFaxMediaStreamsEbb
libopal.so.3.10.11:_ZN14OpalConnection26OnSwitchingFaxMediaStreamsEb
libopal.so.3.10.11:_ZN14OpalConnection27AttachRFC2833HandlerToPatchEbR14OpalMediaPatch
libopal.so.3.10.11:_ZN14OpalConnection4HoldEbb
libopal.so.3.10.11:_ZN14OpalConnection6OnHoldEbb
libopal.so.3.10.11:_ZN14OpalConnection7ReleaseENS_13CallEndReasonEb
libopal.so.3.10.11:_ZN14OpalConnection8IsOnHoldEb
libopal.so.3.10.11:_ZN14OpalConnection8SetPhaseENS_6PhasesE
libopal.so.3.10.11:_ZN14OpalConnection9ClearCallENS_13CallEndReasonEP10PSyncPoint
libopal.so.3.10.11:_ZN14OpalConnectionC1ER8OpalCallR12OpalEndPointRK7PStringjPNS_13StringOptionsE
libopal.so.3.10.11:_ZN14OpalConnectionC2ER8OpalCallR12OpalEndPointRK7PStringjPNS_13StringOptionsE
libopal.so.3.10.11:_ZN14OpalConnectionD0Ev
libopal.so.3.10.11:_ZN14OpalConnectionD1Ev
libopal.so.3.10.11:_ZN14OpalConnectionD2Ev
libopal.so.3.10.11:_ZN14OpalH224Client24SetRemoteClientAvailableEbb
libopal.so.3.10.11:_ZN14OpalH224Client7CompareERK7PObject
libopal.so.3.10.11:_ZN14OpalH224ClientC1Ev
libopal.so.3.10.11:_ZN14OpalH224ClientC2Ev
libopal.so.3.10.11:_ZN14OpalH224ClientD0Ev
libopal.so.3.10.11:_ZN14OpalH224ClientD1Ev
libopal.so.3.10.11:_ZN14OpalH224ClientD2Ev
libopal.so.3.10.11:_ZN14OpalListenerIPC1ER12OpalEndPointN9PIPSocket7AddressEtb
libopal.so.3.10.11:_ZN14OpalListenerIPC1ER12OpalEndPointRK20OpalTransportAddressNS2_11BindOptionsE
libopal.so.3.10.11:_ZN14OpalListenerIPC2ER12OpalEndPointN9PIPSocket7AddressEtb
libopal.so.3.10.11:_ZN14OpalListenerIPC2ER12OpalEndPointRK20OpalTransportAddressNS2_11BindOptionsE
libopal.so.3.10.11:_ZN14OpalMediaPatch10RemoveSinkERK8PSafePtrI15OpalMediaStream12PSafePtrBaseE
libopal.so.3.10.11:_ZN14OpalMediaPatch10StopThreadEv
libopal.so.3.10.11:_ZN14OpalMediaPatch11FilterFrameER13RTP_DataFrameRK15OpalMediaFormat
libopal.so.3.10.11:_ZN14OpalMediaPatch12RemoveFilterERK17PNotifierTemplateIlERK15OpalMediaFormat
libopal.so.3.10.11:_ZN14OpalMediaPatch13DispatchFrameER13RTP_DataFrame
libopal.so.3.10.11:_ZN14OpalMediaPatch14ExecuteCommandERK16OpalMediaCommandb
libopal.so.3.10.11:_ZN14OpalMediaPatch14OnMediaCommandER16OpalMediaCommandl
libopal.so.3.10.11:_ZN14OpalMediaPatch14SetBypassPatchEPS_
libopal.so.3.10.11:_ZN14OpalMediaPatch17OnStartMediaPatchEv
libopal.so.3.10.11:_ZN14OpalMediaPatch17UpdateMediaFormatERK15OpalMediaFormat
libopal.so.3.10.11:_ZN14OpalMediaPatch18EnableJitterBufferEv
libopal.so.3.10.11:_ZN14OpalMediaPatch4MainEv
libopal.so.3.10.11:_ZN14OpalMediaPatch4Sink10WriteFrameER13RTP_DataFrame
libopal.so.3.10.11:_ZN14OpalMediaPatch4Sink14ExecuteCommandERK16OpalMediaCommand
libopal.so.3.10.11:_ZN14OpalMediaPatch4Sink17UpdateMediaFormatERK15OpalMediaFormat
libopal.so.3.10.11:_ZN14OpalMediaPatch4Sink19RateControlExceededERb
libopal.so.3.10.11:_ZN14OpalMediaPatch4Sink20CannotTranscodeFrameER14OpalTranscoderR13RTP_DataFrame
libopal.so.3.10.11:_ZN14OpalMediaPatch4Sink24SetRateControlParametersERK15OpalMediaFormat
libopal.so.3.10.11:_ZN14OpalMediaPatch4SinkC1ERS_RK8PSafePtrI15OpalMediaStream12PSafePtrBaseE
libopal.so.3.10.11:_ZN14OpalMediaPatch4SinkC2ERS_RK8PSafePtrI15OpalMediaStream12PSafePtrBaseE
libopal.so.3.10.11:_ZN14OpalMediaPatch4SinkD0Ev
libopal.so.3.10.11:_ZN14OpalMediaPatch4SinkD1Ev
libopal.so.3.10.11:_ZN14OpalMediaPatch4SinkD2Ev
libopal.so.3.10.11:_ZN14OpalMediaPatch5CloseEv
libopal.so.3.10.11:_ZN14OpalMediaPatch5StartEv
libopal.so.3.10.11:_ZN14OpalMediaPatch6ThreadC1ERS_
libopal.so.3.10.11:_ZN14OpalMediaPatch6ThreadC2ERS_
libopal.so.3.10.11:_ZN14OpalMediaPatch7AddSinkERK8PSafePtrI15OpalMediaStream12PSafePtrBaseE
libopal.so.3.10.11:_ZN14OpalMediaPatch9AddFilterERK17PNotifierTemplateIlERK15OpalMediaFormat
libopal.so.3.10.11:_ZN14OpalMediaPatch9PushFrameER13RTP_DataFrame
libopal.so.3.10.11:_ZN14OpalMediaPatch9SetPausedEb
libopal.so.3.10.11:_ZN14OpalMediaPatchC1ER15OpalMediaStream
libopal.so.3.10.11:_ZN14OpalMediaPatchC2ER15OpalMediaStream
libopal.so.3.10.11:_ZN14OpalMediaPatchD0Ev
libopal.so.3.10.11:_ZN14OpalMediaPatchD1Ev
libopal.so.3.10.11:_ZN14OpalMediaPatchD2Ev
libopal.so.3.10.11:_ZN14OpalMessagePtr12SetCallTokenEPKc
libopal.so.3.10.11:_ZN14OpalMessagePtr7SetTypeE15OpalMessageType
libopal.so.3.10.11:_ZN14OpalMessagePtrC1E15OpalMessageType
libopal.so.3.10.11:_ZN14OpalMessagePtrC2E15OpalMessageType
libopal.so.3.10.11:_ZN14OpalMessagePtrD1Ev
libopal.so.3.10.11:_ZN14OpalMessagePtrD2Ev
libopal.so.3.10.11:_ZN14OpalPresentity10GetBuddyExERNS_9BuddyInfoE
libopal.so.3.10.11:_ZN14OpalPresentity10SetBuddyExERKNS_9BuddyInfoE
libopal.so.3.10.11:_ZN14OpalPresentity11AuthNameKeyEv
libopal.so.3.10.11:_ZN14OpalPresentity11SendCommandEP21OpalPresentityCommand
libopal.so.3.10.11:_ZN14OpalPresentity13DeleteBuddyExERK4PURL
libopal.so.3.10.11:_ZN14OpalPresentity13SendMessageToERK6OpalIM
libopal.so.3.10.11:_ZN14OpalPresentity13TimeToLiveKeyEv
libopal.so.3.10.11:_ZN14OpalPresentity14GetBuddyListExERNSt7__cxx114listINS_9BuddyInfoESaIS2_EEE
libopal.so.3.10.11:_ZN14OpalPresentity14SetBuddyListExERKNSt7__cxx114listINS_9BuddyInfoESaIS2_EEE
libopal.so.3.10.11:_ZN14OpalPresentity15AuthPasswordKeyEv
libopal.so.3.10.11:_ZN14OpalPresentity16GetLocalPresenceERN16OpalPresenceInfo5StateER7PString
libopal.so.3.10.11:_ZN14OpalPresentity16OnPresenceChangeERK16OpalPresenceInfo
libopal.so.3.10.11:_ZN14OpalPresentity16SetLocalPresenceEN16OpalPresenceInfo5StateERK7PString
libopal.so.3.10.11:_ZN14OpalPresentity17DeleteBuddyListExEv
libopal.so.3.10.11:_ZN14OpalPresentity17OnReceivedMessageERK6OpalIM
libopal.so.3.10.11:_ZN14OpalPresentity19SubscribeToPresenceERK4PURLbRK7PString
libopal.so.3.10.11:_ZN14OpalPresentity20SubscribeBuddyListExERib
libopal.so.3.10.11:_ZN14OpalPresentity21InternalCreateCommandEPKc
libopal.so.3.10.11:_ZN14OpalPresentity22OnAuthorisationRequestERKNS_20AuthorisationRequestE
libopal.so.3.10.11:_ZN14OpalPresentity22UnsubscribeBuddyListExEv
libopal.so.3.10.11:_ZN14OpalPresentity23UnsubscribeFromPresenceERK4PURL
libopal.so.3.10.11:_ZN14OpalPresentity24SetPresenceAuthorisationERK4PURLNS_13AuthorisationE
libopal.so.3.10.11:_ZN14OpalPresentity25SetPresenceChangeNotifierERK17PNotifierTemplateIRK16OpalPresenceInfoE
libopal.so.3.10.11:_ZN14OpalPresentity26SetReceivedMessageNotifierERK17PNotifierTemplateIRK6OpalIME
libopal.so.3.10.11:_ZN14OpalPresentity29Internal_SendMessageToCommandERK24OpalSendMessageToCommand
libopal.so.3.10.11:_ZN14OpalPresentity31SetAuthorisationRequestNotifierERK17PNotifierTemplateIRKNS_20AuthorisationRequestEE
libopal.so.3.10.11:_ZN14OpalPresentity4OpenEv
libopal.so.3.10.11:_ZN14OpalPresentity5CloseEv
libopal.so.3.10.11:_ZN14OpalPresentity6CreateER11OpalManagerRK4PURLRK7PString
libopal.so.3.10.11:_ZN14OpalPresentity6SetAORERK4PURL
libopal.so.3.10.11:_ZN14OpalPresentityC1ERKS_
libopal.so.3.10.11:_ZN14OpalPresentityC1Ev
libopal.so.3.10.11:_ZN14OpalPresentityC2ERKS_
libopal.so.3.10.11:_ZN14OpalPresentityC2Ev
libopal.so.3.10.11:_ZN14OpalPresentityD0Ev
libopal.so.3.10.11:_ZN14OpalPresentityD1Ev
libopal.so.3.10.11:_ZN14OpalPresentityD2Ev
libopal.so.3.10.11:_ZN14OpalTranscoder13ConvertFramesERK13RTP_DataFrameR5PListIS0_E
libopal.so.3.10.11:_ZN14OpalTranscoder13SelectFormatsERK13OpalMediaTypeRK19OpalMediaFormatListS5_S5_R15OpalMediaFormatS7_
libopal.so.3.10.11:_ZN14OpalTranscoder13SetInstanceIDEPKhj
libopal.so.3.10.11:_ZN14OpalTranscoder14ExecuteCommandERK16OpalMediaCommand
libopal.so.3.10.11:_ZN14OpalTranscoder16GetSourceFormatsERK15OpalMediaFormat
libopal.so.3.10.11:_ZN14OpalTranscoder18GetPossibleFormatsERK19OpalMediaFormatList
libopal.so.3.10.11:_ZN14OpalTranscoder18UpdateMediaFormatsERK15OpalMediaFormatS2_
libopal.so.3.10.11:_ZN14OpalTranscoder21GetDestinationFormatsERK15OpalMediaFormat
libopal.so.3.10.11:_ZN14OpalTranscoder22FindIntermediateFormatERK15OpalMediaFormatS2_RS0_
libopal.so.3.10.11:_ZN14OpalTranscoder6CreateERK15OpalMediaFormatS2_PKhj
libopal.so.3.10.11:_ZN14OpalTranscoderC1ERK15OpalMediaFormatS2_
libopal.so.3.10.11:_ZN14OpalTranscoderC2ERK15OpalMediaFormatS2_
libopal.so.3.10.11:_ZN14OpalVideoMixer10MixStreamsER13RTP_DataFrame
libopal.so.3.10.11:_ZN14OpalVideoMixer11VideoStream11QueuePacketERK13RTP_DataFrame
libopal.so.3.10.11:_ZN14OpalVideoMixer11VideoStream16InsertVideoFrameEjjjj
libopal.so.3.10.11:_ZN14OpalVideoMixer11VideoStreamC1ERS_
libopal.so.3.10.11:_ZN14OpalVideoMixer11VideoStreamC2ERS_
libopal.so.3.10.11:_ZN14OpalVideoMixer12CreateStreamEv
libopal.so.3.10.11:_ZN14OpalVideoMixer12SetFrameRateEj
libopal.so.3.10.11:_ZN14OpalVideoMixer12SetFrameSizeEjj
libopal.so.3.10.11:_ZN14OpalVideoMixerC1ENS_6StylesEjjjb
libopal.so.3.10.11:_ZN14OpalVideoMixerC2ENS_6StylesEjjjb
libopal.so.3.10.11:_ZN14PFactoryLoader16H235AuthCAT_linkEv
libopal.so.3.10.11:_ZN14PFactoryLoader17RTP_Encoding_linkEv
libopal.so.3.10.11:_ZN14PFactoryLoader19SIP_Presentity_linkEv
libopal.so.3.10.11:_ZN14PFactoryLoader20MSRPInitialiser_linkEv
libopal.so.3.10.11:_ZN14PFactoryLoader22H235AuthSimpleMD5_linkEv
libopal.so.3.10.11:_ZN14PFactoryLoader23H235AuthProcedure1_linkEv
libopal.so.3.10.11:_ZN14PFactoryLoader23Opal_G711_ALaw_PCM_linkEv
libopal.so.3.10.11:_ZN14PFactoryLoader23Opal_G711_uLaw_PCM_linkEv
libopal.so.3.10.11:_ZN14PFactoryLoader23Opal_PCM_G711_ALaw_linkEv
libopal.so.3.10.11:_ZN14PFactoryLoader23Opal_PCM_G711_uLaw_linkEv
libopal.so.3.10.11:_ZN14PFactoryLoader25OpalPluginLIDManager_linkEv
libopal.so.3.10.11:_ZN14PFactoryLoader25OpalWAVRecordManager_linkEv
libopal.so.3.10.11:_ZN14PFactoryLoader25T38PseudoRTP_Handler_linkEv
libopal.so.3.10.11:_ZN14PFactoryLoader26PWAVFileConverterULaw_linkEv
libopal.so.3.10.11:_ZN14PFactoryLoader27OpalPluginCodecManager_linkEv
libopal.so.3.10.11:_ZN14PFactoryLoader29Opal_RFC4175RGB_to_RGB24_linkEv
libopal.so.3.10.11:_ZN14PFactoryLoader29Opal_RGB24_to_RFC4175RGB_linkEv
libopal.so.3.10.11:_ZN14PFactoryLoader36OpalStandardVideoRateController_linkEv
libopal.so.3.10.11:_ZN14PFactoryLoader36Opal_RFC4175YCbCr420_to_YUV420P_linkEv
libopal.so.3.10.11:_ZN14PFactoryLoader36Opal_YUV420P_to_RFC4175YCbCr420_linkEv
libopal.so.3.10.11:_ZN14RFC4103Context14SetMediaFormatERK15OpalMediaFormat
libopal.so.3.10.11:_ZN14RFC4103Context15ConvertToFramesERK7PStringRK10T140String
libopal.so.3.10.11:_ZN14RFC4103ContextC1ERK15OpalMediaFormat
libopal.so.3.10.11:_ZN14RFC4103ContextC1Ev
libopal.so.3.10.11:_ZN14RFC4103ContextC2ERK15OpalMediaFormat
libopal.so.3.10.11:_ZN14RFC4103ContextC2Ev
libopal.so.3.10.11:_ZN14SDPMediaFormat10PostDecodeERK19OpalMediaFormatListj
libopal.so.3.10.11:_ZN14SDPMediaFormat7SetFMTPERK7PString
libopal.so.3.10.11:_ZN14SDPMediaFormat9PreEncodeEv
libopal.so.3.10.11:_ZN14SDPMediaFormatC1ER19SDPMediaDescriptionN13RTP_DataFrame12PayloadTypesEPKc
libopal.so.3.10.11:_ZN14SDPMediaFormatC1ER19SDPMediaDescriptionRK15OpalMediaFormat
libopal.so.3.10.11:_ZN14SDPMediaFormatC2ER19SDPMediaDescriptionN13RTP_DataFrame12PayloadTypesEPKc
libopal.so.3.10.11:_ZN14SDPMediaFormatC2ER19SDPMediaDescriptionRK15OpalMediaFormat
libopal.so.3.10.11:_ZN14SIPPingHandler17CreateTransactionER13OpalTransport
libopal.so.3.10.11:_ZN14SIPPingHandlerC1ER11SIPEndPointRK4PURL
libopal.so.3.10.11:_ZN14SIPPingHandlerC2ER11SIPEndPointRK4PURL
libopal.so.3.10.11:_ZN14SIPReferNotifyC1ER13SIPConnectionN7SIP_PDU11StatusCodesE
libopal.so.3.10.11:_ZN14SIPReferNotifyC2ER13SIPConnectionN7SIP_PDU11StatusCodesE
libopal.so.3.10.11:_ZN14SIPTransaction11OnCompletedER7SIP_PDU
libopal.so.3.10.11:_ZN14SIPTransaction12ResendCANCELEv
libopal.so.3.10.11:_ZN14SIPTransaction13SetParametersERK13SIPParameters
libopal.so.3.10.11:_ZN14SIPTransaction13SetTerminatedENS_6StatesE
libopal.so.3.10.11:_ZN14SIPTransaction14GenerateCallIDEv
libopal.so.3.10.11:_ZN14SIPTransaction17WaitForCompletionEv
libopal.so.3.10.11:_ZN14SIPTransaction18OnReceivedResponseER7SIP_PDU
libopal.so.3.10.11:_ZN14SIPTransaction5AbortEv
libopal.so.3.10.11:_ZN14SIPTransaction5StartEv
libopal.so.3.10.11:_ZN14SIPTransaction6CancelEv
libopal.so.3.10.11:_ZN14SIPTransaction7OnRetryER6PTimerl
libopal.so.3.10.11:_ZN14SIPTransaction7SendPDUER7SIP_PDU
libopal.so.3.10.11:_ZN14SIPTransaction9OnTimeoutER6PTimerl
libopal.so.3.10.11:_ZN14SIPTransactionC1EN7SIP_PDU7MethodsER11SIPEndPointR13OpalTransport
libopal.so.3.10.11:_ZN14SIPTransactionC1EN7SIP_PDU7MethodsER13SIPConnection
libopal.so.3.10.11:_ZN14SIPTransactionC2EN7SIP_PDU7MethodsER11SIPEndPointR13OpalTransport
libopal.so.3.10.11:_ZN14SIPTransactionC2EN7SIP_PDU7MethodsER13SIPConnection
libopal.so.3.10.11:_ZN14SIPTransactionD0Ev
libopal.so.3.10.11:_ZN14SIPTransactionD1Ev
libopal.so.3.10.11:_ZN14SIPTransactionD2Ev
libopal.so.3.10.11:_ZN14SIP_Presentity10GetBuddyExERN14OpalPresentity9BuddyInfoE
libopal.so.3.10.11:_ZN14SIP_Presentity10SetBuddyExERKN14OpalPresentity9BuddyInfoE
libopal.so.3.10.11:_ZN14SIP_Presentity11XcapRootKeyEv
libopal.so.3.10.11:_ZN14SIP_Presentity12InitRootXcapER10XCAPClient
libopal.so.3.10.11:_ZN14SIP_Presentity12TransportKeyEv
libopal.so.3.10.11:_ZN14SIP_Presentity13DeleteBuddyExERK4PURL
libopal.so.3.10.11:_ZN14SIP_Presentity13InitBuddyXcapER10XCAPClientRK7PStringS4_
libopal.so.3.10.11:_ZN14SIP_Presentity13PIDFEntityKeyEv
libopal.so.3.10.11:_ZN14SIP_Presentity13SetPIDFEntityER4PURL
libopal.so.3.10.11:_ZN14SIP_Presentity13XcapAuthIdKeyEv
libopal.so.3.10.11:_ZN14SIP_Presentity14ChangeAuthNodeER10XCAPClientRK31OpalAuthorisationRequestCommand
libopal.so.3.10.11:_ZN14SIP_Presentity14GetBuddyListExERNSt7__cxx114listIN14OpalPresentity9BuddyInfoESaIS3_EEE
libopal.so.3.10.11:_ZN14SIP_Presentity14SetBuddyListExERKNSt7__cxx114listIN14OpalPresentity9BuddyInfoESaIS3_EEE
libopal.so.3.10.11:_ZN14SIP_Presentity14SubProtocolKeyEv
libopal.so.3.10.11:_ZN14SIP_Presentity15XcapAuthAuidKeyEv
libopal.so.3.10.11:_ZN14SIP_Presentity15XcapAuthFileKeyEv
libopal.so.3.10.11:_ZN14SIP_Presentity15XcapPasswordKeyEv
libopal.so.3.10.11:_ZN14SIP_Presentity16OnPresenceNotifyER19SIPSubscribeHandlerRN12SIPSubscribe18NotifyCallbackInfoE
libopal.so.3.10.11:_ZN14SIP_Presentity16PresenceAgentKeyEv
libopal.so.3.10.11:_ZN14SIP_Presentity16XcapBuddyListKeyEv
libopal.so.3.10.11:_ZN14SIP_Presentity17DeleteBuddyListExEv
libopal.so.3.10.11:_ZN14SIP_Presentity19OnWatcherInfoNotifyER19SIPSubscribeHandlerRN12SIPSubscribe18NotifyCallbackInfoE
libopal.so.3.10.11:_ZN14SIP_Presentity20SubscribeBuddyListExERib
libopal.so.3.10.11:_ZN14SIP_Presentity23OnReceivedWatcherStatusEP11PXMLElement
libopal.so.3.10.11:_ZN14SIP_Presentity26Internal_SendLocalPresenceERK27OpalSetLocalPresenceCommand
libopal.so.3.10.11:_ZN14SIP_Presentity28Internal_SubscribeToPresenceERK30OpalSubscribeToPresenceCommand
libopal.so.3.10.11:_ZN14SIP_Presentity28OnPresenceSubscriptionStatusER19SIPSubscribeHandlerRKN12SIPSubscribe18SubscriptionStatusE
libopal.so.3.10.11:_ZN14SIP_Presentity29Internal_AuthorisationRequestERK31OpalAuthorisationRequestCommand
libopal.so.3.10.11:_ZN14SIP_Presentity31Internal_SubscribeToWatcherInfoERK21SIPWatcherInfoCommand
libopal.so.3.10.11:_ZN14SIP_Presentity31OnWatcherInfoSubscriptionStatusER19SIPSubscribeHandlerRKN12SIPSubscribe18SubscriptionStatusE
libopal.so.3.10.11:_ZN14SIP_Presentity4OpenEv
libopal.so.3.10.11:_ZN14SIP_Presentity5CloseEv
libopal.so.3.10.11:_ZN14SIP_PresentityC1ERKS_
libopal.so.3.10.11:_ZN14SIP_PresentityC1Ev
libopal.so.3.10.11:_ZN14SIP_PresentityC2ERKS_
libopal.so.3.10.11:_ZN14SIP_PresentityC2Ev
libopal.so.3.10.11:_ZN14SIP_PresentityD0Ev
libopal.so.3.10.11:_ZN14SIP_PresentityD1Ev
libopal.so.3.10.11:_ZN14SIP_PresentityD2Ev
libopal.so.3.10.11:_ZN14T38_Data_FieldC1EjN11PASN_Object8TagClassE
libopal.so.3.10.11:_ZN14T38_Data_FieldC2EjN11PASN_Object8TagClassE
libopal.so.3.10.11:_ZN15H225_FeatureSet6DecodeER11PASN_Stream
libopal.so.3.10.11:_ZN15H225_FeatureSetC1EjN11PASN_Object8TagClassE
libopal.so.3.10.11:_ZN15H225_FeatureSetC2EjN11PASN_Object8TagClassE
libopal.so.3.10.11:_ZN15H225_IsupDigitsC1EjN11PASN_Object8TagClassE
libopal.so.3.10.11:_ZN15H225_IsupDigitsC2EjN11PASN_Object8TagClassE
libopal.so.3.10.11:_ZN15H225_IsupDigitsaSEPKc
libopal.so.3.10.11:_ZN15H225_IsupDigitsaSERK7PString
libopal.so.3.10.11:_ZN15H225_IsupNumber12CreateObjectEv
libopal.so.3.10.11:_ZN15H225_IsupNumberC1EjN11PASN_Object8TagClassE
libopal.so.3.10.11:_ZN15H225_IsupNumberC2EjN11PASN_Object8TagClassE
libopal.so.3.10.11:_ZN15H225_IsupNumbercvR15H225_IsupDigitsEv
libopal.so.3.10.11:_ZN15H225_IsupNumbercvR26H225_IsupPublicPartyNumberEv
libopal.so.3.10.11:_ZN15H225_IsupNumbercvR27H225_IsupPrivatePartyNumberEv
libopal.so.3.10.11:_ZN15H225_RTPSession6DecodeER11PASN_Stream
libopal.so.3.10.11:_ZN15H225_RTPSessionC1EjN11PASN_Object8TagClassE
libopal.so.3.10.11:_ZN15H225_RTPSessionC2EjN11PASN_Object8TagClassE
libopal.so.3.10.11:_ZN15H225_RasMessage12CreateObjectEv
libopal.so.3.10.11:_ZN15H225_RasMessageC1EjN11PASN_Object8TagClassE
libopal.so.3.10.11:_ZN15H225_RasMessageC2EjN11PASN_Object8TagClassE
libopal.so.3.10.11:_ZN15H225_RasMessagecvR16H225_InfoRequestEv
libopal.so.3.10.11:_ZN15H225_RasMessagecvR19H225_InfoRequestAckEv
libopal.so.3.10.11:_ZN15H225_RasMessagecvR19H225_InfoRequestNakEv
libopal.so.3.10.11:_ZN15H225_RasMessagecvR19H225_LocationRejectEv
libopal.so.3.10.11:_ZN15H225_RasMessagecvR20H225_AdmissionRejectEv
libopal.so.3.10.11:_ZN15H225_RasMessagecvR20H225_BandwidthRejectEv
libopal.so.3.10.11:_ZN15H225_RasMessagecvR20H225_DisengageRejectEv
libopal.so.3.10.11:_ZN15H225_RasMessagecvR20H225_LocationConfirmEv
libopal.so.3.10.11:_ZN15H225_RasMessagecvR20H225_LocationRequestEv
libopal.so.3.10.11:_ZN15H225_RasMessagecvR21H225_AdmissionConfirmEv
libopal.so.3.10.11:_ZN15H225_RasMessagecvR21H225_AdmissionRequestEv
libopal.so.3.10.11:_ZN15H225_RasMessagecvR21H225_BandwidthConfirmEv
libopal.so.3.10.11:_ZN15H225_RasMessagecvR21H225_BandwidthRequestEv
libopal.so.3.10.11:_ZN15H225_RasMessagecvR21H225_DisengageConfirmEv
libopal.so.3.10.11:_ZN15H225_RasMessagecvR21H225_DisengageRequestEv
libopal.so.3.10.11:_ZN15H225_RasMessagecvR21H225_GatekeeperRejectEv
libopal.so.3.10.11:_ZN15H225_RasMessagecvR22H225_GatekeeperConfirmEv
libopal.so.3.10.11:_ZN15H225_RasMessagecvR22H225_GatekeeperRequestEv
libopal.so.3.10.11:_ZN15H225_RasMessagecvR22H225_RequestInProgressEv
libopal.so.3.10.11:_ZN15H225_RasMessagecvR23H225_NonStandardMessageEv
libopal.so.3.10.11:_ZN15H225_RasMessagecvR23H225_RegistrationRejectEv
libopal.so.3.10.11:_ZN15H225_RasMessagecvR24H225_InfoRequestResponseEv
libopal.so.3.10.11:_ZN15H225_RasMessagecvR24H225_RegistrationConfirmEv
libopal.so.3.10.11:_ZN15H225_RasMessagecvR24H225_RegistrationRequestEv
libopal.so.3.10.11:_ZN15H225_RasMessagecvR25H225_UnregistrationRejectEv
libopal.so.3.10.11:_ZN15H225_RasMessagecvR26H225_UnregistrationConfirmEv
libopal.so.3.10.11:_ZN15H225_RasMessagecvR26H225_UnregistrationRequestEv
libopal.so.3.10.11:_ZN15H225_RasMessagecvR27H225_ServiceControlResponseEv
libopal.so.3.10.11:_ZN15H225_RasMessagecvR27H225_UnknownMessageResponseEv
libopal.so.3.10.11:_ZN15H225_RasMessagecvR29H225_ArrayOf_AdmissionConfirmEv
libopal.so.3.10.11:_ZN15H225_RasMessagecvR29H225_ServiceControlIndicationEv
libopal.so.3.10.11:_ZN15H225_RasMessagecvR30H225_ResourcesAvailableConfirmEv
libopal.so.3.10.11:_ZN15H225_RasMessagecvR31H225_ResourcesAvailableIndicateEv
libopal.so.3.10.11:_ZN15H225_Setup_UUIE6DecodeER11PASN_Stream
libopal.so.3.10.11:_ZN15H225_Setup_UUIEC1EjN11PASN_Object8TagClassE
libopal.so.3.10.11:_ZN15H225_Setup_UUIEC2EjN11PASN_Object8TagClassE
libopal.so.3.10.11:_ZN15H225_TimeToLiveC1EjN11PASN_Object8TagClassE
libopal.so.3.10.11:_ZN15H225_TimeToLiveC2EjN11PASN_Object8TagClassE
libopal.so.3.10.11:_ZN15H225_TimeToLiveaSEi
libopal.so.3.10.11:_ZN15H225_TimeToLiveaSEj
libopal.so.3.10.11:_ZN15H235_ClearToken6DecodeER11PASN_Stream
libopal.so.3.10.11:_ZN15H235_ClearTokenC1EjN11PASN_Object8TagClassE
libopal.so.3.10.11:_ZN15H235_ClearTokenC2EjN11PASN_Object8TagClassE
libopal.so.3.10.11:_ZN15H235_IdentifierC1EjN11PASN_Object8TagClassE
libopal.so.3.10.11:_ZN15H235_IdentifierC2EjN11PASN_Object8TagClassE
libopal.so.3.10.11:_ZN15H235_IdentifieraSEPKc
libopal.so.3.10.11:_ZN15H235_IdentifieraSERK10PBaseArrayIwE
libopal.so.3.10.11:_ZN15H235_IdentifieraSERK14PASN_BMPString
libopal.so.3.10.11:_ZN15H235_IdentifieraSERK7PString
libopal.so.3.10.11:_ZN15H245_Capability12CreateObjectEv
libopal.so.3.10.11:_ZN15H245_CapabilityC1EjN11PASN_Object8TagClassE
libopal.so.3.10.11:_ZN15H245_CapabilityC2EjN11PASN_Object8TagClassE
libopal.so.3.10.11:_ZN15H245_CapabilitycvR18H245_FECCapabilityEv
libopal.so.3.10.11:_ZN15H245_CapabilitycvR20H245_AudioCapabilityEv
libopal.so.3.10.11:_ZN15H245_CapabilitycvR20H245_VideoCapabilityEv
libopal.so.3.10.11:_ZN15H245_CapabilitycvR21H245_DepFECCapabilityEv
libopal.so.3.10.11:_ZN15H245_CapabilitycvR22H245_GenericCapabilityEv
libopal.so.3.10.11:_ZN15H245_CapabilitycvR24H245_AudioToneCapabilityEv
libopal.so.3.10.11:_ZN15H245_CapabilitycvR24H245_UserInputCapabilityEv
libopal.so.3.10.11:_ZN15H245_CapabilitycvR25H245_ConferenceCapabilityEv
libopal.so.3.10.11:_ZN15H245_CapabilitycvR25H245_NonStandardParameterEv
libopal.so.3.10.11:_ZN15H245_CapabilitycvR27H245_H235SecurityCapabilityEv
libopal.so.3.10.11:_ZN15H245_CapabilitycvR29H245_AlternativeCapabilitySetEv
libopal.so.3.10.11:_ZN15H245_CapabilitycvR30H245_DataApplicationCapabilityEv
libopal.so.3.10.11:_ZN15H245_CapabilitycvR32H245_MultiplexedStreamCapabilityEv
libopal.so.3.10.11:_ZN15H245_CapabilitycvR33H245_RedundancyEncodingCapabilityEv
libopal.so.3.10.11:_ZN15H245_CapabilitycvR34H245_AudioTelephonyEventCapabilityEv
libopal.so.3.10.11:_ZN15H245_CapabilitycvR36H245_MultiplePayloadStreamCapabilityEv
libopal.so.3.10.11:_ZN15H245_CapabilitycvR47H245_Capability_h233EncryptionReceiveCapabilityEv
libopal.so.3.10.11:_ZN15H245_DepFECData12CreateObjectEv
libopal.so.3.10.11:_ZN15H245_DepFECDataC1EjN11PASN_Object8TagClassE
libopal.so.3.10.11:_ZN15H245_DepFECDataC2EjN11PASN_Object8TagClassE
libopal.so.3.10.11:_ZN15H245_DepFECDatacvR23H245_DepFECData_rfc2733Ev
libopal.so.3.10.11:_ZN15H245_DepFECMode12CreateObjectEv
libopal.so.3.10.11:_ZN15H245_DepFECModeC1EjN11PASN_Object8TagClassE
libopal.so.3.10.11:_ZN15H245_DepFECModeC2EjN11PASN_Object8TagClassE
libopal.so.3.10.11:_ZN15H245_DepFECModecvR27H245_DepFECMode_rfc2733ModeEv
libopal.so.3.10.11:_ZN15H245_EscrowData6DecodeER11PASN_Stream
libopal.so.3.10.11:_ZN15H245_EscrowDataC1EjN11PASN_Object8TagClassE
libopal.so.3.10.11:_ZN15H245_EscrowDataC2EjN11PASN_Object8TagClassE
libopal.so.3.10.11:_ZN15H245_T84Profile12CreateObjectEv
libopal.so.3.10.11:_ZN15H245_T84ProfileC1EjN11PASN_Object8TagClassE
libopal.so.3.10.11:_ZN15H245_T84ProfileC2EjN11PASN_Object8TagClassE
libopal.so.3.10.11:_ZN15H245_T84ProfilecvR29H245_T84Profile_t84RestrictedEv
libopal.so.3.10.11:_ZN15H245_TerminalIDC1EPKc
libopal.so.3.10.11:_ZN15H245_TerminalIDC1ERK10PBYTEArray
libopal.so.3.10.11:_ZN15H245_TerminalIDC1ERK7PString
libopal.so.3.10.11:_ZN15H245_TerminalIDC1EjN11PASN_Object8TagClassE
libopal.so.3.10.11:_ZN15H245_TerminalIDC2EPKc
libopal.so.3.10.11:_ZN15H245_TerminalIDC2ERK10PBYTEArray
libopal.so.3.10.11:_ZN15H245_TerminalIDC2ERK7PString
libopal.so.3.10.11:_ZN15H245_TerminalIDC2EjN11PASN_Object8TagClassE
libopal.so.3.10.11:_ZN15H245_TerminalIDaSEPKc
libopal.so.3.10.11:_ZN15H245_TerminalIDaSERK10PBYTEArray
libopal.so.3.10.11:_ZN15H245_TerminalIDaSERK7PString
libopal.so.3.10.11:_ZN15H248_AmmRequest6DecodeER11PASN_Stream
libopal.so.3.10.11:_ZN15H248_AmmRequestC1EjN11PASN_Object8TagClassE
libopal.so.3.10.11:_ZN15H248_AmmRequestC2EjN11PASN_Object8TagClassE
libopal.so.3.10.11:_ZN15H248_AuditReply12CreateObjectEv
libopal.so.3.10.11:_ZN15H248_AuditReplyC1EjN11PASN_Object8TagClassE
libopal.so.3.10.11:_ZN15H248_AuditReplyC2EjN11PASN_Object8TagClassE
libopal.so.3.10.11:_ZN15H248_AuditReplycvR16H248_AuditResultEv
libopal.so.3.10.11:_ZN15H248_AuditReplycvR20H248_ErrorDescriptorEv
libopal.so.3.10.11:_ZN15H248_AuditReplycvR22H248_TerminationIDListEv
libopal.so.3.10.11:_ZN15H248_DomainName6DecodeER11PASN_Stream
libopal.so.3.10.11:_ZN15H248_DomainNameC1EjN11PASN_Object8TagClassE
libopal.so.3.10.11:_ZN15H248_DomainNameC2EjN11PASN_Object8TagClassE
libopal.so.3.10.11:_ZN15H248_IP4Address6DecodeER11PASN_Stream
libopal.so.3.10.11:_ZN15H248_IP4AddressC1EjN11PASN_Object8TagClassE
libopal.so.3.10.11:_ZN15H248_IP4AddressC2EjN11PASN_Object8TagClassE
libopal.so.3.10.11:_ZN15H248_IP6Address6DecodeER11PASN_Stream
libopal.so.3.10.11:_ZN15H248_IP6AddressC1EjN11PASN_Object8TagClassE
libopal.so.3.10.11:_ZN15H248_IP6AddressC2EjN11PASN_Object8TagClassE
libopal.so.3.10.11:_ZN15H248_SeqSigList6DecodeER11PASN_Stream
libopal.so.3.10.11:_ZN15H248_SeqSigListC1EjN11PASN_Object8TagClassE
libopal.so.3.10.11:_ZN15H248_SeqSigListC2EjN11PASN_Object8TagClassE
libopal.so.3.10.11:_ZN15H248_SignalNameC1EPKc
libopal.so.3.10.11:_ZN15H248_SignalNameC1ERK10PBYTEArray
libopal.so.3.10.11:_ZN15H248_SignalNameC1ERK7PString
libopal.so.3.10.11:_ZN15H248_SignalNameC1EjN11PASN_Object8TagClassE
libopal.so.3.10.11:_ZN15H248_SignalNameC2EPKc
libopal.so.3.10.11:_ZN15H248_SignalNameC2ERK10PBYTEArray
libopal.so.3.10.11:_ZN15H248_SignalNameC2ERK7PString
libopal.so.3.10.11:_ZN15H248_SignalNameC2EjN11PASN_Object8TagClassE
libopal.so.3.10.11:_ZN15H248_SignalNameaSEPKc
libopal.so.3.10.11:_ZN15H248_SignalNameaSERK10PBYTEArray
libopal.so.3.10.11:_ZN15H248_SignalNameaSERK7PString
libopal.so.3.10.11:_ZN15H248_SignalTypeC1EjN11PASN_Object8TagClassE
libopal.so.3.10.11:_ZN15H248_SignalTypeC2EjN11PASN_Object8TagClassE
libopal.so.3.10.11:_ZN15H248_SignalTypeaSEj
libopal.so.3.10.11:_ZN15H248_StreamModeC1EjN11PASN_Object8TagClassE
libopal.so.3.10.11:_ZN15H248_StreamModeC2EjN11PASN_Object8TagClassE
libopal.so.3.10.11:_ZN15H248_StreamModeaSEj
libopal.so.3.10.11:_ZN15H281VideoSource10SetCanTiltEb
libopal.so.3.10.11:_ZN15H281VideoSource10SetCanZoomEb
libopal.so.3.10.11:_ZN15H281VideoSource11SetCanFocusEb
libopal.so.3.10.11:_ZN15H281VideoSource17SetCanMotionVideoEb
libopal.so.3.10.11:_ZN15H281VideoSource20SetVideoSourceNumberEh
libopal.so.3.10.11:_ZN15H281VideoSource32SetCanDoubleResolutionStillImageEb
libopal.so.3.10.11:_ZN15H281VideoSource32SetCanNormalResolutionStillImageEb
libopal.so.3.10.11:_ZN15H281VideoSource6DecodeEPKh
libopal.so.3.10.11:_ZN15H281VideoSource9SetCanPanEb
libopal.so.3.10.11:_ZN15H281VideoSourceC1Ev
libopal.so.3.10.11:_ZN15H281VideoSourceC2Ev
libopal.so.3.10.11:_ZN15H281VideoSourceD0Ev
libopal.so.3.10.11:_ZN15H281VideoSourceD1Ev
libopal.so.3.10.11:_ZN15H281VideoSourceD2Ev
libopal.so.3.10.11:_ZN15H323DataChannel13InternalCloseEv
libopal.so.3.10.11:_ZN15H323DataChannel13OnReceivedPDUERK23H245_OpenLogicalChannelRj
libopal.so.3.10.11:_ZN15H323DataChannel14CreateListenerEv
libopal.so.3.10.11:_ZN15H323DataChannel15CreateTransportEv
libopal.so.3.10.11:_ZN15H323DataChannel16OnReceivedAckPDUERK26H245_OpenLogicalChannelAck
libopal.so.3.10.11:_ZN15H323DataChannelC1ER14H323ConnectionRK14H323CapabilityN11H323Channel10DirectionsEj
libopal.so.3.10.11:_ZN15H323DataChannelC2ER14H323ConnectionRK14H323CapabilityN11H323Channel10DirectionsEj
libopal.so.3.10.11:_ZN15H323DataChannelD0Ev
libopal.so.3.10.11:_ZN15H323DataChannelD1Ev
libopal.so.3.10.11:_ZN15H323DataChannelD2Ev
libopal.so.3.10.11:_ZN15H323PeerElement11MakeRequestERN14H323Transactor7RequestE
libopal.so.3.10.11:_ZN15H323PeerElement11MonitorMainER7PThreadl
libopal.so.3.10.11:_ZN15H323PeerElement12SetLocalNameERK7PString
libopal.so.3.10.11:_ZN15H323PeerElement13AccessRequestERK17H225_AliasAddressR25H225_ArrayOf_AliasAddressR20H323TransportAddressj
libopal.so.3.10.11:_ZN15H323PeerElement13AccessRequestERK17H225_AliasAddressR25H225_ArrayOf_AliasAddressRS0_j
libopal.so.3.10.11:_ZN15H323PeerElement13AccessRequestERK7PStringR12PStringArrayR20H323TransportAddressj
libopal.so.3.10.11:_ZN15H323PeerElement13AccessRequestERK7PStringR25H225_ArrayOf_AliasAddressR20H323TransportAddressj
libopal.so.3.10.11:_ZN15H323PeerElement13AddDescriptorERK17PGloballyUniqueIDRK11POrdinalKeyRK25H225_ArrayOf_AliasAddressS8_jb
libopal.so.3.10.11:_ZN15H323PeerElement13AddDescriptorERK17PGloballyUniqueIDRK11POrdinalKeyRK28H501_ArrayOf_AddressTemplateRK5PTimeb
libopal.so.3.10.11:_ZN15H323PeerElement13AddDescriptorERK17PGloballyUniqueIDRK12PStringArrayRK25H323TransportAddressArrayjb
libopal.so.3.10.11:_ZN15H323PeerElement13AddDescriptorERK17PGloballyUniqueIDRK25H225_ArrayOf_AliasAddressRK25H323TransportAddressArrayjb
libopal.so.3.10.11:_ZN15H323PeerElement13AddDescriptorERK17PGloballyUniqueIDRK25H225_ArrayOf_AliasAddressS5_jb
libopal.so.3.10.11:_ZN15H323PeerElement13SetDomainNameERK7PString
libopal.so.3.10.11:_ZN15H323PeerElement13TickleMonitorER6PTimerl
libopal.so.3.10.11:_ZN15H323PeerElement14CreateAliasKeyERK17H225_AliasAddressRK17PGloballyUniqueIDib
libopal.so.3.10.11:_ZN15H323PeerElement14ServiceReleaseERK17PGloballyUniqueIDj
libopal.so.3.10.11:_ZN15H323PeerElement15OnAccessRequestER17H501AccessRequest
libopal.so.3.10.11:_ZN15H323PeerElement16CreateDescriptorERK17PGloballyUniqueID
libopal.so.3.10.11:_ZN15H323PeerElement16DeleteDescriptorERK17H225_AliasAddressb
libopal.so.3.10.11:_ZN15H323PeerElement16DeleteDescriptorERK17PGloballyUniqueIDb
libopal.so.3.10.11:_ZN15H323PeerElement16DeleteDescriptorERK7PStringb
libopal.so.3.10.11:_ZN15H323PeerElement16OnServiceRequestER18H501ServiceRequest
libopal.so.3.10.11:_ZN15H323PeerElement16UpdateDescriptorEP25H323PeerElementDescriptor
libopal.so.3.10.11:_ZN15H323PeerElement16UpdateDescriptorEP25H323PeerElementDescriptorN33H501_UpdateInformation_updateType7ChoicesE
libopal.so.3.10.11:_ZN15H323PeerElement18OnDescriptorUpdateER20H501DescriptorUpdate
libopal.so.3.10.11:_ZN15H323PeerElement18ServiceRequestByIDER17PGloballyUniqueID
libopal.so.3.10.11:_ZN15H323PeerElement20HandleServiceRequestER18H501ServiceRequest
libopal.so.3.10.11:_ZN15H323PeerElement20SendUpdateDescriptorER7H501PDURK20H323TransportAddressP25H323PeerElementDescriptorN33H501_UpdateInformation_updateType7ChoicesE
libopal.so.3.10.11:_ZN15H323PeerElement20ServiceRequestByAddrERK20H323TransportAddressR17PGloballyUniqueID
libopal.so.3.10.11:_ZN15H323PeerElement20UpdateAllDescriptorsER7PThreadl
libopal.so.3.10.11:_ZN15H323PeerElement21SendAccessRequestByIDERK17PGloballyUniqueIDR7H501PDUS4_
libopal.so.3.10.11:_ZN15H323PeerElement22AddServiceRelationshipERK20H323TransportAddressR17PGloballyUniqueIDb
libopal.so.3.10.11:_ZN15H323PeerElement22AddServiceRelationshipERK20H323TransportAddressb
libopal.so.3.10.11:_ZN15H323PeerElement22OnReceiveAccessRequestERK7H501PDURK18H501_AccessRequest
libopal.so.3.10.11:_ZN15H323PeerElement23OnReceiveServiceRequestERK7H501PDURK19H501_ServiceRequest
libopal.so.3.10.11:_ZN15H323PeerElement23SendAccessRequestByAddrERK20H323TransportAddressR7H501PDUS4_
libopal.so.3.10.11:_ZN15H323PeerElement24OnReceiveAccessRejectionERK7H501PDURK20H501_AccessRejection
libopal.so.3.10.11:_ZN15H323PeerElement24SendUpdateDescriptorByIDERK17PGloballyUniqueIDP25H323PeerElementDescriptorN33H501_UpdateInformation_updateType7ChoicesE
libopal.so.3.10.11:_ZN15H323PeerElement25CreateServiceRelationshipEv
libopal.so.3.10.11:_ZN15H323PeerElement25OnReceiveDescriptorUpdateERK7H501PDURK21H501_DescriptorUpdate
libopal.so.3.10.11:_ZN15H323PeerElement25RemoveServiceRelationshipERK17PGloballyUniqueIDi
libopal.so.3.10.11:_ZN15H323PeerElement25RemoveServiceRelationshipERK20H323TransportAddressi
libopal.so.3.10.11:_ZN15H323PeerElement26SendUpdateDescriptorByAddrERK20H323TransportAddressP25H323PeerElementDescriptorN33H501_UpdateInformation_updateType7ChoicesE
libopal.so.3.10.11:_ZN15H323PeerElement26SetOnlyServiceRelationshipERK7PStringb
libopal.so.3.10.11:_ZN15H323PeerElement27OnReceiveAccessConfirmationERK7H501PDURK23H501_AccessConfirmation
libopal.so.3.10.11:_ZN15H323PeerElement27RemoveDescriptorInformationERK28H501_ArrayOf_AddressTemplate
libopal.so.3.10.11:_ZN15H323PeerElement28OnReceiveDescriptorUpdateACKERK7H501PDURK24H501_DescriptorUpdateAck
libopal.so.3.10.11:_ZN15H323PeerElement28OnReceiveServiceConfirmationERK7H501PDURK24H501_ServiceConfirmation
libopal.so.3.10.11:_ZN15H323PeerElement29RemoveAllServiceRelationshipsEv
libopal.so.3.10.11:_ZN15H323PeerElement33InternalRemoveServiceRelationshipERK20H323TransportAddress
libopal.so.3.10.11:_ZN15H323PeerElement38OnRemoteServiceRelationshipDisappearedER17PGloballyUniqueIDRK20H323TransportAddress
libopal.so.3.10.11:_ZN15H323PeerElement9ConstructEv
libopal.so.3.10.11:_ZN15H323PeerElementC1ER12H323EndPointP13OpalTransport
libopal.so.3.10.11:_ZN15H323PeerElementC1ER12H323EndPointRK20H323TransportAddress
libopal.so.3.10.11:_ZN15H323PeerElementC2ER12H323EndPointP13OpalTransport
libopal.so.3.10.11:_ZN15H323PeerElementC2ER12H323EndPointRK20H323TransportAddress
libopal.so.3.10.11:_ZN15H323PeerElementD0Ev
libopal.so.3.10.11:_ZN15H323PeerElementD1Ev
libopal.so.3.10.11:_ZN15H323PeerElementD2Ev
libopal.so.3.10.11:_ZN15H323Transaction11SlowHandlerER7PThreadl
libopal.so.3.10.11:_ZN15H323Transaction17CheckCryptoTokensERK18H235Authenticators
libopal.so.3.10.11:_ZN15H323Transaction8WritePDUER18H323TransactionPDU
libopal.so.3.10.11:_ZN15H323Transaction9HandlePDUEv
libopal.so.3.10.11:_ZN15H323TransactionC1ER14H323TransactorRK18H323TransactionPDUPS2_S5_
libopal.so.3.10.11:_ZN15H323TransactionC2ER14H323TransactorRK18H323TransactionPDUPS2_S5_
libopal.so.3.10.11:_ZN15H323TransactionD0Ev
libopal.so.3.10.11:_ZN15H323TransactionD1Ev
libopal.so.3.10.11:_ZN15H323TransactionD2Ev
libopal.so.3.10.11:_ZN15H323_RTPChannel12SetSessionIDEj
libopal.so.3.10.11:_ZN15H323_RTPChannel13OnReceivedPDUERK34H245_H2250LogicalChannelParametersRj
libopal.so.3.10.11:_ZN15H323_RTPChannel16OnReceivedAckPDUERK37H245_H2250LogicalChannelAckParameters
libopal.so.3.10.11:_ZN15H323_RTPChannelC1ER14H323ConnectionRK14H323CapabilityN11H323Channel10DirectionsER11RTP_Session
libopal.so.3.10.11:_ZN15H323_RTPChannelC2ER14H323ConnectionRK14H323CapabilityN11H323Channel10DirectionsER11RTP_Session
libopal.so.3.10.11:_ZN15H323_RTPChannelD0Ev
libopal.so.3.10.11:_ZN15H323_RTPChannelD1Ev
libopal.so.3.10.11:_ZN15H323_RTPChannelD2Ev
libopal.so.3.10.11:_ZN15H4501_Extension6DecodeER11PASN_Stream
libopal.so.3.10.11:_ZN15H4501_ExtensionC1EjN11PASN_Object8TagClassE
libopal.so.3.10.11:_ZN15H4501_ExtensionC2EjN11PASN_Object8TagClassE
libopal.so.3.10.11:_ZN15H4501_InvokeIDsC1EjN11PASN_Object8TagClassE
libopal.so.3.10.11:_ZN15H4501_InvokeIDsC2EjN11PASN_Object8TagClassE
libopal.so.3.10.11:_ZN15H4501_InvokeIDsaSEi
libopal.so.3.10.11:_ZN15H4501_InvokeIDsaSEj
libopal.so.3.10.11:_ZN15H4503_IntResult6DecodeER11PASN_Stream
libopal.so.3.10.11:_ZN15H4503_IntResultC1EjN11PASN_Object8TagClassE
libopal.so.3.10.11:_ZN15H4503_IntResultC2EjN11PASN_Object8TagClassE
libopal.so.3.10.11:_ZN15H4503_ProcedureC1EjN11PASN_Object8TagClassE
libopal.so.3.10.11:_ZN15H4503_ProcedureC2EjN11PASN_Object8TagClassE
libopal.so.3.10.11:_ZN15H4503_ProcedureaSEj
libopal.so.3.10.11:_ZN15H4504_Extension6DecodeER11PASN_Stream
libopal.so.3.10.11:_ZN15H4504_ExtensionC1EjN11PASN_Object8TagClassE
libopal.so.3.10.11:_ZN15H4504_ExtensionC2EjN11PASN_Object8TagClassE
libopal.so.3.10.11:_ZN15H4505_PickupArg6DecodeER11PASN_Stream
libopal.so.3.10.11:_ZN15H4505_PickupArgC1EjN11PASN_Object8TagClassE
libopal.so.3.10.11:_ZN15H4505_PickupArgC2EjN11PASN_Object8TagClassE
libopal.so.3.10.11:_ZN15H4505_PickupRes6DecodeER11PASN_Stream
libopal.so.3.10.11:_ZN15H4505_PickupResC1EjN11PASN_Object8TagClassE
libopal.so.3.10.11:_ZN15H4505_PickupResC2EjN11PASN_Object8TagClassE
libopal.so.3.10.11:_ZN15H4507_TimeStampC1EjN11PASN_Object8TagClassE
libopal.so.3.10.11:_ZN15H4507_TimeStampC2EjN11PASN_Object8TagClassE
libopal.so.3.10.11:_ZN15H4509_CcLongArg6DecodeER11PASN_Stream
libopal.so.3.10.11:_ZN15H4509_CcLongArgC1EjN11PASN_Object8TagClassE
libopal.so.3.10.11:_ZN15H4509_CcLongArgC2EjN11PASN_Object8TagClassE
libopal.so.3.10.11:_ZN15H450ServiceAPDU11BuildInvokeEii
libopal.so.3.10.11:_ZN15H450ServiceAPDU11BuildRejectEi
libopal.so.3.10.11:_ZN15H450ServiceAPDU16BuildCallWaitingEii
libopal.so.3.10.11:_ZN15H450ServiceAPDU16BuildReturnErrorEii
libopal.so.3.10.11:_ZN15H450ServiceAPDU16WriteFacilityPDUER14H323Connection
libopal.so.3.10.11:_ZN15H450ServiceAPDU17BuildReturnResultEi
libopal.so.3.10.11:_ZN15H450ServiceAPDU19BuildMessageWaitingEiR25H4507_H323_MWI_OperationsR13PASN_Sequence
libopal.so.3.10.11:_ZN15H450ServiceAPDU20ParseEndpointAddressER21H4501_EndpointAddressR7PString
libopal.so.3.10.11:_ZN15H450ServiceAPDU22BuildCallTransferSetupEiRK7PString
libopal.so.3.10.11:_ZN15H450ServiceAPDU22BuildInterrogateResultEiR23H4507_MWIInterrogateRes
libopal.so.3.10.11:_ZN15H450ServiceAPDU24BuildCallTransferAbandonEi
libopal.so.3.10.11:_ZN15H450ServiceAPDU25BuildCallIntrusionGetCIPLEi
libopal.so.3.10.11:_ZN15H450ServiceAPDU25BuildCallTransferIdentifyEi
libopal.so.3.10.11:_ZN15H450ServiceAPDU25BuildCallTransferInitiateEiRK7PStringS2_RK20H323TransportAddress
libopal.so.3.10.11:_ZN15H450ServiceAPDU27BuildCallIntrusionImpendingEi
libopal.so.3.10.11:_ZN15H450ServiceAPDU30AttachSupplementaryServiceAPDUER13H323SignalPDU
libopal.so.3.10.11:_ZN15H450ServiceAPDU30BuildCallIntrusionForceRelesedEi
libopal.so.3.10.11:_ZN15H450ServiceAPDU31BuildCallIntrusionForcedReleaseEii
libopal.so.3.10.11:_ZN15H450ServiceAPDU36BuildCallIntrusionForcedReleaseErrorEv
libopal.so.3.10.11:_ZN15H450ServiceAPDU37BuildCallIntrusionForcedReleaseResultEi
libopal.so.3.10.11:_ZN15H450xDispatcher13AttachToSetupER13H323SignalPDU
libopal.so.3.10.11:_ZN15H450xDispatcher15AttachToConnectER13H323SignalPDU
libopal.so.3.10.11:_ZN15H450xDispatcher15SendReturnErrorEii
libopal.so.3.10.11:_ZN15H450xDispatcher16AttachToAlertingER13H323SignalPDU
libopal.so.3.10.11:_ZN15H450xDispatcher16OnReceivedInvokeER11X880_InvokeR24H4501_InterpretationApdu
libopal.so.3.10.11:_ZN15H450xDispatcher16OnReceivedRejectER11X880_Reject
libopal.so.3.10.11:_ZN15H450xDispatcher16SendInvokeRejectEii
libopal.so.3.10.11:_ZN15H450xDispatcher17SendGeneralRejectEii
libopal.so.3.10.11:_ZN15H450xDispatcher21OnReceivedReturnErrorER16X880_ReturnError
libopal.so.3.10.11:_ZN15H450xDispatcher21SendReturnErrorRejectEii
libopal.so.3.10.11:_ZN15H450xDispatcher22OnReceivedReturnResultER17X880_ReturnResult
libopal.so.3.10.11:_ZN15H450xDispatcher22SendReturnResultRejectEii
libopal.so.3.10.11:_ZN15H450xDispatcher23AttachToReleaseCompleteER13H323SignalPDU
libopal.so.3.10.11:_ZN15H450xDispatcher9AddOpCodeEjP12H450xHandler
libopal.so.3.10.11:_ZN15H450xDispatcher9HandlePDUERK13H323SignalPDU
libopal.so.3.10.11:_ZN15H450xDispatcherC1ER14H323Connection
libopal.so.3.10.11:_ZN15H450xDispatcherC2ER14H323Connection
libopal.so.3.10.11:_ZN15H4609_Extension6DecodeER11PASN_Stream
libopal.so.3.10.11:_ZN15H4609_ExtensionC1EjN11PASN_Object8TagClassE
libopal.so.3.10.11:_ZN15H4609_ExtensionC2EjN11PASN_Object8TagClassE
libopal.so.3.10.11:_ZN15H460_FeatureOID12HasParameterE7OpalOID
libopal.so.3.10.11:_ZN15H460_FeatureOID3AddERK7PStringRK19H460_FeatureContent
libopal.so.3.10.11:_ZN15H460_FeatureOID5ValueERK7PString
libopal.so.3.10.11:_ZN15H460_FeatureOID6RemoveERK7PString
libopal.so.3.10.11:_ZN15H460_FeatureOID7GetBaseEv
libopal.so.3.10.11:_ZN15H460_FeatureOID7ReplaceERK7PStringRK19H460_FeatureContent
libopal.so.3.10.11:_ZN15H460_FeatureOID8ContainsERK7PString
libopal.so.3.10.11:_ZN15H460_FeatureOIDC1E7OpalOID
libopal.so.3.10.11:_ZN15H460_FeatureOIDC2E7OpalOID
libopal.so.3.10.11:_ZN15H460_FeatureOIDixE7OpalOID
libopal.so.3.10.11:_ZN15H460_FeatureSet10AddFeatureEP12H460_Feature
libopal.so.3.10.11:_ZN15H460_FeatureSet10GetFeatureERK14H460_FeatureID
libopal.so.3.10.11:_ZN15H460_FeatureSet10HasFeatureERK14H460_FeatureID
libopal.so.3.10.11:_ZN15H460_FeatureSet11LoadFeatureERK7PString
libopal.so.3.10.11:_ZN15H460_FeatureSet11SendFeatureEjR15H225_FeatureSet
libopal.so.3.10.11:_ZN15H460_FeatureSet13RemoveFeatureE14H460_FeatureID
libopal.so.3.10.11:_ZN15H460_FeatureSet14AttachEndPointEP12H323EndPoint
libopal.so.3.10.11:_ZN15H460_FeatureSet14LoadFeatureSetEiP14H323Connection
libopal.so.3.10.11:_ZN15H460_FeatureSet14ReadFeaturePDUER12H460_FeatureRK22H225_FeatureDescriptorj
libopal.so.3.10.11:_ZN15H460_FeatureSet14ReceiveFeatureEjRK15H225_FeatureSet
libopal.so.3.10.11:_ZN15H460_FeatureSet15GetFeatureIDPDUER22H225_FeatureDescriptor
libopal.so.3.10.11:_ZN15H460_FeatureSet15ProcessFirstPDUERK15H225_FeatureSet
libopal.so.3.10.11:_ZN15H460_FeatureSet16CreateFeaturePDUER12H460_FeatureR22H225_FeatureDescriptorj
libopal.so.3.10.11:_ZN15H460_FeatureSet16CreateFeatureSetERK15H225_FeatureSet
libopal.so.3.10.11:_ZN15H460_FeatureSet17ReadFeatureSetPDUERK15H225_FeatureSetj
libopal.so.3.10.11:_ZN15H460_FeatureSet19CreateFeatureSetPDUER15H225_FeatureSetj
libopal.so.3.10.11:_ZN15H460_FeatureSet19DeriveNewFeatureSetEv
libopal.so.3.10.11:_ZN15H460_FeatureSet20AttachBaseFeatureSetEPS_
libopal.so.3.10.11:_ZN15H460_FeatureSetC1EPS_
libopal.so.3.10.11:_ZN15H460_FeatureSetC1ERK15H225_FeatureSet
libopal.so.3.10.11:_ZN15H460_FeatureSetC1ERK24H225_ArrayOf_GenericData
libopal.so.3.10.11:_ZN15H460_FeatureSetC1Ev
libopal.so.3.10.11:_ZN15H460_FeatureSetC2EPS_
libopal.so.3.10.11:_ZN15H460_FeatureSetC2ERK15H225_FeatureSet
libopal.so.3.10.11:_ZN15H460_FeatureSetC2ERK24H225_ArrayOf_GenericData
libopal.so.3.10.11:_ZN15H460_FeatureSetC2Ev
libopal.so.3.10.11:_ZN15H460_FeatureStd12GetParameterEj
libopal.so.3.10.11:_ZN15H460_FeatureStd12HasParameterEj
libopal.so.3.10.11:_ZN15H460_FeatureStd3AddEjRK19H460_FeatureContent
libopal.so.3.10.11:_ZN15H460_FeatureStd6RemoveEj
libopal.so.3.10.11:_ZN15H460_FeatureStd7ReplaceEjRK19H460_FeatureContent
libopal.so.3.10.11:_ZN15H460_FeatureStdC1Ej
libopal.so.3.10.11:_ZN15H460_FeatureStdC2Ej
libopal.so.3.10.11:_ZN15H501TransactionC1ER15H323PeerElementRK7H501PDUb
libopal.so.3.10.11:_ZN15H501TransactionC2ER15H323PeerElementRK7H501PDUb
libopal.so.3.10.11:_ZN15H501_Descriptor6DecodeER11PASN_Stream
libopal.so.3.10.11:_ZN15H501_DescriptorC1EjN11PASN_Object8TagClassE
libopal.so.3.10.11:_ZN15H501_DescriptorC2EjN11PASN_Object8TagClassE
libopal.so.3.10.11:_ZN15H501_UsageField6DecodeER11PASN_Stream
libopal.so.3.10.11:_ZN15H501_UsageFieldC1EjN11PASN_Object8TagClassE
libopal.so.3.10.11:_ZN15H501_UsageFieldC2EjN11PASN_Object8TagClassE
libopal.so.3.10.11:_ZN15IAX2IeCallToken13InitialiseKeyEv
libopal.so.3.10.11:_ZN15IAX2IeCallToken16ValidKeySequenceERS_RN9PIPSocket7AddressE
libopal.so.3.10.11:_ZN15IAX2IeCallToken16WriteKeySequenceERN9PIPSocket7AddressE
libopal.so.3.10.11:_ZN15IAX2IeCallToken17ReportKeySequenceERK7PStringRN9PIPSocket7AddressE
libopal.so.3.10.11:_ZN15IAX2IeMd5Result27InitializeChallengePasswordERK7PStringS2_
libopal.so.3.10.11:_ZN15IAX2IeMd5ResultC1ER14IAX2Encryption
libopal.so.3.10.11:_ZN15IAX2IeMd5ResultC1ERK7PStringS2_
libopal.so.3.10.11:_ZN15IAX2IeMd5ResultC2ER14IAX2Encryption
libopal.so.3.10.11:_ZN15IAX2IeMd5ResultC2ERK7PStringS2_
libopal.so.3.10.11:_ZN15OpalAudioFormat14ChannelsOptionEv
libopal.so.3.10.11:_ZN15OpalAudioFormat23RxFramesPerPacketOptionEv
libopal.so.3.10.11:_ZN15OpalAudioFormat23TxFramesPerPacketOptionEv
libopal.so.3.10.11:_ZN15OpalAudioFormat24MaxFramesPerPacketOptionEv
libopal.so.3.10.11:_ZN15OpalAudioFormatC1EPKcN13RTP_DataFrame12PayloadTypesES1_ijjjjjl
libopal.so.3.10.11:_ZN15OpalAudioFormatC2EPKcN13RTP_DataFrame12PayloadTypesES1_ijjjjjl
libopal.so.3.10.11:_ZN15OpalFaxEndPoint14MakeConnectionER8OpalCallRK7PStringPvjPN14OpalConnection13StringOptionsE
libopal.so.3.10.11:_ZN15OpalFaxEndPoint14OnFaxCompletedER17OpalFaxConnectionb
libopal.so.3.10.11:_ZN15OpalFaxEndPoint16CreateConnectionER8OpalCallPvPN14OpalConnection13StringOptionsERK7PStringbb
libopal.so.3.10.11:_ZN15OpalFaxEndPointC1ER11OpalManagerPKcS3_
libopal.so.3.10.11:_ZN15OpalFaxEndPointC2ER11OpalManagerPKcS3_
libopal.so.3.10.11:_ZN15OpalFaxEndPointD0Ev
libopal.so.3.10.11:_ZN15OpalFaxEndPointD1Ev
libopal.so.3.10.11:_ZN15OpalFaxEndPointD2Ev
libopal.so.3.10.11:_ZN15OpalH224Handler11HandleFrameERK13RTP_DataFrame
libopal.so.3.10.11:_ZN15OpalH224Handler12RemoveClientER14OpalH224Client
libopal.so.3.10.11:_ZN15OpalH224Handler12StopTransmitEv
libopal.so.3.10.11:_ZN15OpalH224Handler13StartTransmitEv
libopal.so.3.10.11:_ZN15OpalH224Handler13TransmitFrameER10H224_Frame
libopal.so.3.10.11:_ZN15OpalH224Handler14SendClientListEv
libopal.so.3.10.11:_ZN15OpalH224Handler15OnReceivedFrameER10H224_Frame
libopal.so.3.10.11:_ZN15OpalH224Handler19TransmitClientFrameERK14OpalH224ClientR10H224_Frame
libopal.so.3.10.11:_ZN15OpalH224Handler20OnReceivedCMEMessageER10H224_Frame
libopal.so.3.10.11:_ZN15OpalH224Handler20OnReceivedClientListER10H224_Frame
libopal.so.3.10.11:_ZN15OpalH224Handler21SendClientListCommandEv
libopal.so.3.10.11:_ZN15OpalH224Handler21SendExtraCapabilitiesEv
libopal.so.3.10.11:_ZN15OpalH224Handler21SetReceiveMediaFormatERK15OpalMediaFormat
libopal.so.3.10.11:_ZN15OpalH224Handler22SetTransmitMediaFormatERK15OpalMediaFormat
libopal.so.3.10.11:_ZN15OpalH224Handler22SetTransmitMediaStreamEP19OpalH224MediaStream
libopal.so.3.10.11:_ZN15OpalH224Handler27OnReceivedClientListCommandEv
libopal.so.3.10.11:_ZN15OpalH224Handler27OnReceivedExtraCapabilitiesER10H224_Frame
libopal.so.3.10.11:_ZN15OpalH224Handler28SendExtraCapabilitiesCommandERK14OpalH224Client
libopal.so.3.10.11:_ZN15OpalH224Handler28SendExtraCapabilitiesMessageERK14OpalH224ClientPhi
libopal.so.3.10.11:_ZN15OpalH224Handler34OnReceivedExtraCapabilitiesCommandEv
libopal.so.3.10.11:_ZN15OpalH224Handler9AddClientER14OpalH224Client
libopal.so.3.10.11:_ZN15OpalH224HandlerC1Ev
libopal.so.3.10.11:_ZN15OpalH224HandlerC2Ev
libopal.so.3.10.11:_ZN15OpalH224HandlerD0Ev
libopal.so.3.10.11:_ZN15OpalH224HandlerD1Ev
libopal.so.3.10.11:_ZN15OpalH224HandlerD2Ev
libopal.so.3.10.11:_ZN15OpalH281Handler10StopActionEv
libopal.so.3.10.11:_ZN15OpalH281Handler11StartActionEN10H281_Frame12PanDirectionENS0_13TiltDirectionENS0_13ZoomDirectionENS0_14FocusDirectionE
libopal.so.3.10.11:_ZN15OpalH281Handler12OnStopActionEv
libopal.so.3.10.11:_ZN15OpalH281Handler13OnStartActionEN10H281_Frame12PanDirectionENS0_13TiltDirectionENS0_13ZoomDirectionENS0_14FocusDirectionE
libopal.so.3.10.11:_ZN15OpalH281Handler13StoreAsPresetEh
libopal.so.3.10.11:_ZN15OpalH281Handler14ActivatePresetEh
libopal.so.3.10.11:_ZN15OpalH281Handler14ContinueActionER6PTimerl
libopal.so.3.10.11:_ZN15OpalH281Handler15OnStoreAsPresetEh
libopal.so.3.10.11:_ZN15OpalH281Handler16OnActivatePresetEh
libopal.so.3.10.11:_ZN15OpalH281Handler17OnReceivedMessageERK10H224_Frame
libopal.so.3.10.11:_ZN15OpalH281Handler17SelectVideoSourceEhN10H281_Frame9VideoModeE
libopal.so.3.10.11:_ZN15OpalH281Handler17StopActionLocallyER6PTimerl
libopal.so.3.10.11:_ZN15OpalH281Handler19GetLocalVideoSourceENS_11VideoSourceE
libopal.so.3.10.11:_ZN15OpalH281Handler19OnSelectVideoSourceEhN10H281_Frame9VideoModeE
libopal.so.3.10.11:_ZN15OpalH281Handler20GetRemoteVideoSourceENS_11VideoSourceE
libopal.so.3.10.11:_ZN15OpalH281Handler27OnReceivedExtraCapabilitiesEPKhi
libopal.so.3.10.11:_ZN15OpalH281Handler27OnRemoteCapabilitiesUpdatedEv
libopal.so.3.10.11:_ZN15OpalH281HandlerC1Ev
libopal.so.3.10.11:_ZN15OpalH281HandlerC2Ev
libopal.so.3.10.11:_ZN15OpalH281HandlerD0Ev
libopal.so.3.10.11:_ZN15OpalH281HandlerD1Ev
libopal.so.3.10.11:_ZN15OpalH281HandlerD2Ev
libopal.so.3.10.11:_ZN15OpalIVREndPoint11OnEndDialogER17OpalIVRConnection
libopal.so.3.10.11:_ZN15OpalIVREndPoint14MakeConnectionER8OpalCallRK7PStringPvjPN14OpalConnection13StringOptionsE
libopal.so.3.10.11:_ZN15OpalIVREndPoint14SetDefaultVXMLERK7PString
libopal.so.3.10.11:_ZN15OpalIVREndPoint16CreateConnectionER8OpalCallPvRK7PStringjPN14OpalConnection13StringOptionsE
libopal.so.3.10.11:_ZN15OpalIVREndPoint22SetDefaultMediaFormatsERK19OpalMediaFormatList
libopal.so.3.10.11:_ZN15OpalIVREndPointC1ER11OpalManagerPKc
libopal.so.3.10.11:_ZN15OpalIVREndPointC2ER11OpalManagerPKc
libopal.so.3.10.11:_ZN15OpalIVREndPointD0Ev
libopal.so.3.10.11:_ZN15OpalIVREndPointD1Ev
libopal.so.3.10.11:_ZN15OpalIVREndPointD2Ev
libopal.so.3.10.11:_ZN15OpalListenerTCP4OpenERK17PNotifierTemplateIlEN12OpalListener10ThreadModeE
libopal.so.3.10.11:_ZN15OpalListenerTCP5CloseEv
libopal.so.3.10.11:_ZN15OpalListenerTCP6AcceptERK13PTimeInterval
libopal.so.3.10.11:_ZN15OpalListenerTCP6IsOpenEv
libopal.so.3.10.11:_ZN15OpalListenerTCPC1ER12OpalEndPointN9PIPSocket7AddressEtb
libopal.so.3.10.11:_ZN15OpalListenerTCPC1ER12OpalEndPointRK20OpalTransportAddressNS2_11BindOptionsE
libopal.so.3.10.11:_ZN15OpalListenerTCPC2ER12OpalEndPointN9PIPSocket7AddressEtb
libopal.so.3.10.11:_ZN15OpalListenerTCPC2ER12OpalEndPointRK20OpalTransportAddressNS2_11BindOptionsE
libopal.so.3.10.11:_ZN15OpalListenerTCPD0Ev
libopal.so.3.10.11:_ZN15OpalListenerTCPD1Ev
libopal.so.3.10.11:_ZN15OpalListenerTCPD2Ev
libopal.so.3.10.11:_ZN15OpalListenerUDP4OpenERK17PNotifierTemplateIlEN12OpalListener10ThreadModeE
libopal.so.3.10.11:_ZN15OpalListenerUDP5CloseEv
libopal.so.3.10.11:_ZN15OpalListenerUDP6AcceptERK13PTimeInterval
libopal.so.3.10.11:_ZN15OpalListenerUDP6IsOpenEv
libopal.so.3.10.11:_ZN15OpalListenerUDPC1ER12OpalEndPointN9PIPSocket7AddressEtb
libopal.so.3.10.11:_ZN15OpalListenerUDPC1ER12OpalEndPointRK20OpalTransportAddressNS2_11BindOptionsE
libopal.so.3.10.11:_ZN15OpalListenerUDPC2ER12OpalEndPointN9PIPSocket7AddressEtb
libopal.so.3.10.11:_ZN15OpalListenerUDPC2ER12OpalEndPointRK20OpalTransportAddressNS2_11BindOptionsE
libopal.so.3.10.11:_ZN15OpalListenerUDPD0Ev
libopal.so.3.10.11:_ZN15OpalListenerUDPD1Ev
libopal.so.3.10.11:_ZN15OpalListenerUDPD2Ev
libopal.so.3.10.11:_ZN15OpalMSRPManager10Connection12StartHandlerEv
libopal.so.3.10.11:_ZN15OpalMSRPManager10Connection13HandlerThreadEv
libopal.so.3.10.11:_ZN15OpalMSRPManager10ConnectionC1ERS_RKNSt7__cxx1112basic_stringIcSt11char_traitsIcESaIcEEEP12MSRPProtocol
libopal.so.3.10.11:_ZN15OpalMSRPManager10ConnectionC2ERS_RKNSt7__cxx1112basic_stringIcSt11char_traitsIcESaIcEEEP12MSRPProtocol
libopal.so.3.10.11:_ZN15OpalMSRPManager10ConnectionD0Ev
libopal.so.3.10.11:_ZN15OpalMSRPManager10ConnectionD1Ev
libopal.so.3.10.11:_ZN15OpalMSRPManager10ConnectionD2Ev
libopal.so.3.10.11:_ZN15OpalMSRPManager11SetNotifierERK4PURLS2_RK17PNotifierTemplateIRNS_12IncomingMSRPEE
libopal.so.3.10.11:_ZN15OpalMSRPManager12GetLocalPortERt
libopal.so.3.10.11:_ZN15OpalMSRPManager14ListenerThreadEv
libopal.so.3.10.11:_ZN15OpalMSRPManager14OpenConnectionERK4PURLS2_
libopal.so.3.10.11:_ZN15OpalMSRPManager14RemoveNotifierERK4PURLS2_
libopal.so.3.10.11:_ZN15OpalMSRPManager14SessionIDToURLERK20OpalTransportAddressRKNSt7__cxx1112basic_stringIcSt11char_traitsIcESaIcEEE
libopal.so.3.10.11:_ZN15OpalMSRPManager15CloseConnectionER8PSafePtrINS_10ConnectionE12PSafePtrBaseE
libopal.so.3.10.11:_ZN15OpalMSRPManager15CreateSessionIDB5cxx11Ev
libopal.so.3.10.11:_ZN15OpalMSRPManager15DispatchMessageERNS_12IncomingMSRPE
libopal.so.3.10.11:_ZN15OpalMSRPManagerC1ER11OpalManagert
libopal.so.3.10.11:_ZN15OpalMSRPManagerC2ER11OpalManagert
libopal.so.3.10.11:_ZN15OpalMSRPManagerD0Ev
libopal.so.3.10.11:_ZN15OpalMSRPManagerD1Ev
libopal.so.3.10.11:_ZN15OpalMSRPManagerD2Ev
libopal.so.3.10.11:_ZN15OpalMediaFormat10MakeUniqueEv
libopal.so.3.10.11:_ZN15OpalMediaFormat14AssignContentsERK10PContainer
libopal.so.3.10.11:_ZN15OpalMediaFormat14ProtocolOptionEv
libopal.so.3.10.11:_ZN15OpalMediaFormat15ClockRateOptionEv
libopal.so.3.10.11:_ZN15OpalMediaFormat15DestroyContentsEv
libopal.so.3.10.11:_ZN15OpalMediaFormat15FrameTimeOptionEv
libopal.so.3.10.11:_ZN15OpalMediaFormat16MaxBitRateOptionEv
libopal.so.3.10.11:_ZN15OpalMediaFormat17NeedsJitterOptionEv
libopal.so.3.10.11:_ZN15OpalMediaFormat18MaxFrameSizeOptionEv
libopal.so.3.10.11:_ZN15OpalMediaFormat19TargetBitRateOptionEv
libopal.so.3.10.11:_ZN15OpalMediaFormat19ToCustomisedOptionsEv
libopal.so.3.10.11:_ZN15OpalMediaFormat19ToNormalisedOptionsEv
libopal.so.3.10.11:_ZN15OpalMediaFormat21MaxTxPacketSizeOptionEv
libopal.so.3.10.11:_ZN15OpalMediaFormat22SetMediaPacketizationsERK10PStringSet
libopal.so.3.10.11:_ZN15OpalMediaFormat24MediaPacketizationOptionEv
libopal.so.3.10.11:_ZN15OpalMediaFormat24SetRegisteredMediaFormatERKS_
libopal.so.3.10.11:_ZN15OpalMediaFormat25MediaPacketizationsOptionEv
libopal.so.3.10.11:_ZN15OpalMediaFormat27RemoveRegisteredMediaFormatERKS_
libopal.so.3.10.11:_ZN15OpalMediaFormat28GetAllRegisteredMediaFormatsER19OpalMediaFormatList
libopal.so.3.10.11:_ZN15OpalMediaFormat28GetAllRegisteredMediaFormatsEv
libopal.so.3.10.11:_ZN15OpalMediaFormat5MergeERKS_
libopal.so.3.10.11:_ZN15OpalMediaFormat6UpdateERKS_
libopal.so.3.10.11:_ZN15OpalMediaFormat8ReadFromERSi
libopal.so.3.10.11:_ZN15OpalMediaFormat9ConstructEP23OpalMediaFormatInternal
libopal.so.3.10.11:_ZN15OpalMediaFormatC1EN13RTP_DataFrame12PayloadTypesEjPKcS3_
libopal.so.3.10.11:_ZN15OpalMediaFormatC1EP23OpalMediaFormatInternal
libopal.so.3.10.11:_ZN15OpalMediaFormatC1EPKc
libopal.so.3.10.11:_ZN15OpalMediaFormatC1EPKcRK13OpalMediaTypeN13RTP_DataFrame12PayloadTypesES1_bjijjl
libopal.so.3.10.11:_ZN15OpalMediaFormatC1ERK7PString
libopal.so.3.10.11:_ZN15OpalMediaFormatC1ERKS_
libopal.so.3.10.11:_ZN15OpalMediaFormatC2EN13RTP_DataFrame12PayloadTypesEjPKcS3_
libopal.so.3.10.11:_ZN15OpalMediaFormatC2EP23OpalMediaFormatInternal
libopal.so.3.10.11:_ZN15OpalMediaFormatC2EPKc
libopal.so.3.10.11:_ZN15OpalMediaFormatC2EPKcRK13OpalMediaTypeN13RTP_DataFrame12PayloadTypesES1_bjijjl
libopal.so.3.10.11:_ZN15OpalMediaFormatC2ERK7PString
libopal.so.3.10.11:_ZN15OpalMediaFormatC2ERKS_
libopal.so.3.10.11:_ZN15OpalMediaFormatD0Ev
libopal.so.3.10.11:_ZN15OpalMediaFormatD1Ev
libopal.so.3.10.11:_ZN15OpalMediaFormatD2Ev
libopal.so.3.10.11:_ZN15OpalMediaFormataSEN13RTP_DataFrame12PayloadTypesE
libopal.so.3.10.11:_ZN15OpalMediaFormataSEPKc
libopal.so.3.10.11:_ZN15OpalMediaFormataSERK7PString
libopal.so.3.10.11:_ZN15OpalMediaOption10FromStringERK7PString
libopal.so.3.10.11:_ZN15OpalMediaOption5MergeERKS_
libopal.so.3.10.11:_ZN15OpalMediaOptionC1EPKcbNS_9MergeTypeE
libopal.so.3.10.11:_ZN15OpalMediaOptionC1ERK7PString
libopal.so.3.10.11:_ZN15OpalMediaOptionC2EPKcbNS_9MergeTypeE
libopal.so.3.10.11:_ZN15OpalMediaOptionC2ERK7PString
libopal.so.3.10.11:_ZN15OpalMediaStream10PushPacketER13RTP_DataFrame
libopal.so.3.10.11:_ZN15OpalMediaStream10ReadPacketER13RTP_DataFrame
libopal.so.3.10.11:_ZN15OpalMediaStream11SetDataSizeEii
libopal.so.3.10.11:_ZN15OpalMediaStream11WritePacketER13RTP_DataFrame
libopal.so.3.10.11:_ZN15OpalMediaStream12WritePacketsER5PListI13RTP_DataFrameE
libopal.so.3.10.11:_ZN15OpalMediaStream14ExecuteCommandERK16OpalMediaCommand
libopal.so.3.10.11:_ZN15OpalMediaStream16OnStopMediaPatchER14OpalMediaPatch
libopal.so.3.10.11:_ZN15OpalMediaStream17InternalWriteDataEPKhiRi
libopal.so.3.10.11:_ZN15OpalMediaStream17OnStartMediaPatchEv
libopal.so.3.10.11:_ZN15OpalMediaStream17UpdateMediaFormatERK15OpalMediaFormat
libopal.so.3.10.11:_ZN15OpalMediaStream18IncrementTimestampEi
libopal.so.3.10.11:_ZN15OpalMediaStream25InternalUpdateMediaFormatERK15OpalMediaFormat
libopal.so.3.10.11:_ZN15OpalMediaStream4OpenEv
libopal.so.3.10.11:_ZN15OpalMediaStream5CloseEv
libopal.so.3.10.11:_ZN15OpalMediaStream5StartEv
libopal.so.3.10.11:_ZN15OpalMediaStream8ReadDataEPhiRi
libopal.so.3.10.11:_ZN15OpalMediaStream8SetPatchEP14OpalMediaPatch
libopal.so.3.10.11:_ZN15OpalMediaStream9SetPausedEbb
libopal.so.3.10.11:_ZN15OpalMediaStream9WriteDataEPKhiRi
libopal.so.3.10.11:_ZN15OpalMediaStreamC1ER14OpalConnectionRK15OpalMediaFormatjb
libopal.so.3.10.11:_ZN15OpalMediaStreamC2ER14OpalConnectionRK15OpalMediaFormatjb
libopal.so.3.10.11:_ZN15OpalMediaStreamD0Ev
libopal.so.3.10.11:_ZN15OpalMediaStreamD1Ev
libopal.so.3.10.11:_ZN15OpalMediaStreamD2Ev
libopal.so.3.10.11:_ZN15OpalProductInfo7DefaultEv
libopal.so.3.10.11:_ZN15OpalProductInfoC1Eb
libopal.so.3.10.11:_ZN15OpalProductInfoC1Ev
libopal.so.3.10.11:_ZN15OpalProductInfoC2Eb
libopal.so.3.10.11:_ZN15OpalProductInfoC2Ev
libopal.so.3.10.11:_ZN15OpalRFC2833InfoC1Ecjj
libopal.so.3.10.11:_ZN15OpalRFC2833InfoC2Ecjj
libopal.so.3.10.11:_ZN15OpalRTPEndPoint15IsRTPNATEnabledER14OpalConnectionRKN9PIPSocket7AddressES5_S5_b
libopal.so.3.10.11:_ZN15OpalRTPEndPoint16CheckEndLocalRTPER14OpalConnectionP7RTP_UDP
libopal.so.3.10.11:_ZN15OpalRTPEndPoint16CheckForLocalRTPERK18OpalRTPMediaStream
libopal.so.3.10.11:_ZN15OpalRTPEndPoint19OnClosedMediaStreamERK15OpalMediaStream
libopal.so.3.10.11:_ZN15OpalRTPEndPoint27SetConnectionByRtpLocalPortEP11RTP_SessionP14OpalConnection
libopal.so.3.10.11:_ZN15OpalRTPEndPointC1ER11OpalManagerRK15PCaselessStringj
libopal.so.3.10.11:_ZN15OpalRTPEndPointC2ER11OpalManagerRK15PCaselessStringj
libopal.so.3.10.11:_ZN15OpalRTPEndPointD0Ev
libopal.so.3.10.11:_ZN15OpalRTPEndPointD1Ev
libopal.so.3.10.11:_ZN15OpalRTPEndPointD2Ev
libopal.so.3.10.11:_ZN15OpalTransportIP15SetLocalAddressERK20OpalTransportAddress
libopal.so.3.10.11:_ZN15OpalTransportIP16SetRemoteAddressERK20OpalTransportAddress
libopal.so.3.10.11:_ZN15OpalTransportIPC1ER12OpalEndPointN9PIPSocket7AddressEt
libopal.so.3.10.11:_ZN15OpalTransportIPC2ER12OpalEndPointN9PIPSocket7AddressEt
libopal.so.3.10.11:_ZN15OpalVXMLSession10OnTransferERK7PStringN12PVXMLSession12TransferTypeE
libopal.so.3.10.11:_ZN15OpalVXMLSession11OnEndDialogEv
libopal.so.3.10.11:_ZN15OpalVXMLSession12OnEndSessionEv
libopal.so.3.10.11:_ZN15OpalVXMLSessionC1ER17OpalIVRConnectionP13PTextToSpeechb
libopal.so.3.10.11:_ZN15OpalVXMLSessionC2ER17OpalIVRConnectionP13PTextToSpeechb
libopal.so.3.10.11:_ZN15OpalVideoFormat16FrameWidthOptionEv
libopal.so.3.10.11:_ZN15OpalVideoFormat17ContentRoleOptionEv
libopal.so.3.10.11:_ZN15OpalVideoFormat17FrameHeightOptionEv
libopal.so.3.10.11:_ZN15OpalVideoFormat20RateControllerOptionEv
libopal.so.3.10.11:_ZN15OpalVideoFormat21ContentRoleMaskOptionEv
libopal.so.3.10.11:_ZN15OpalVideoFormat21MaxRxFrameWidthOptionEv
libopal.so.3.10.11:_ZN15OpalVideoFormat21MinRxFrameWidthOptionEv
libopal.so.3.10.11:_ZN15OpalVideoFormat22MaxRxFrameHeightOptionEv
libopal.so.3.10.11:_ZN15OpalVideoFormat22MinRxFrameHeightOptionEv
libopal.so.3.10.11:_ZN15OpalVideoFormat22TxKeyFramePeriodOptionEv
libopal.so.3.10.11:_ZN15OpalVideoFormat23RateControlPeriodOptionEv
libopal.so.3.10.11:_ZN15OpalVideoFormat29TemporalSpatialTradeOffOptionEv
libopal.so.3.10.11:_ZN15OpalVideoFormatC1EPKcN13RTP_DataFrame12PayloadTypesES1_jjjjl
libopal.so.3.10.11:_ZN15OpalVideoFormatC2EPKcN13RTP_DataFrame12PayloadTypesES1_jjjjl
libopal.so.3.10.11:_ZN15RTCP_XR_Metrics11GetLossRateEv
libopal.so.3.10.11:_ZN15RTCP_XR_Metrics12EndOfCallMOSEv
libopal.so.3.10.11:_ZN15RTCP_XR_Metrics12OnPacketLostEj
libopal.so.3.10.11:_ZN15RTCP_XR_Metrics12OnPacketLostEv
libopal.so.3.10.11:_ZN15RTCP_XR_Metrics13GetGapDensityEv
libopal.so.3.10.11:_ZN15RTCP_XR_Metrics13ResetCountersEv
libopal.so.3.10.11:_ZN15RTCP_XR_Metrics14GetDiscardRateEv
libopal.so.3.10.11:_ZN15RTCP_XR_Metrics14GetEndOfCallIeEv
libopal.so.3.10.11:_ZN15RTCP_XR_Metrics14GetGapDurationEv
libopal.so.3.10.11:_ZN15RTCP_XR_Metrics14GetPonderateIdEv
libopal.so.3.10.11:_ZN15RTCP_XR_Metrics14GetPonderateIeEv
libopal.so.3.10.11:_ZN15RTCP_XR_Metrics14SetJitterDelayEj
libopal.so.3.10.11:_ZN15RTCP_XR_Metrics14createIdPeriodE5PTimeS0_
libopal.so.3.10.11:_ZN15RTCP_XR_Metrics14createIePeriodENS_10TimePeriodE
libopal.so.3.10.11:_ZN15RTCP_XR_Metrics15GetBurstDensityEv
libopal.so.3.10.11:_ZN15RTCP_XR_Metrics16EndOfCallRFactorEv
libopal.so.3.10.11:_ZN15RTCP_XR_Metrics16GetBurstDurationEv
libopal.so.3.10.11:_ZN15RTCP_XR_Metrics16OnPacketReceivedEv
libopal.so.3.10.11:_ZN15RTCP_XR_Metrics16OnRxSenderReportE17PIntReversedOrderIjES1_
libopal.so.3.10.11:_ZN15RTCP_XR_Metrics16createTimePeriodENS_10PeriodTypeE5PTimeS1_
libopal.so.3.10.11:_ZN15RTCP_XR_Metrics17GetEndSystemDelayEv
libopal.so.3.10.11:_ZN15RTCP_XR_Metrics17GetRoundTripDelayEv
libopal.so.3.10.11:_ZN15RTCP_XR_Metrics17OnPacketDiscardedEv
libopal.so.3.10.11:_ZN15RTCP_XR_Metrics24BuildExtendedReportArrayERK16RTP_ControlFramei
libopal.so.3.10.11:_ZN15RTCP_XR_Metrics26InsertExtendedReportPacketEjj8PSafePtrI16RTP_JitterBuffer21PSafePtrMultiThreadedER16RTP_ControlFrame
libopal.so.3.10.11:_ZN15RTCP_XR_Metrics3MOSENS_11QualityTypeE
libopal.so.3.10.11:_ZN15RTCP_XR_Metrics4IeffENS_10PeriodTypeE
libopal.so.3.10.11:_ZN15RTCP_XR_Metrics6CreateERK13RTP_DataFrame
libopal.so.3.10.11:_ZN15RTCP_XR_Metrics6MOS_CQEv
libopal.so.3.10.11:_ZN15RTCP_XR_Metrics6MOS_LQEv
libopal.so.3.10.11:_ZN15RTCP_XR_Metrics6markovENS_11PacketEventE
libopal.so.3.10.11:_ZN15RTCP_XR_Metrics7RFactorENS_11QualityTypeE
libopal.so.3.10.11:_ZN15RTCP_XR_Metrics7RFactorEv
libopal.so.3.10.11:_ZN15RTCP_XR_Metrics8IdFactorEv
libopal.so.3.10.11:_ZN15RTCP_XR_MetricsC1Efffij
libopal.so.3.10.11:_ZN15RTCP_XR_MetricsC2Efffij
libopal.so.3.10.11:_ZN15RTCP_XR_MetricsD1Ev
libopal.so.3.10.11:_ZN15RTCP_XR_MetricsD2Ev
libopal.so.3.10.11:_ZN15SIPHandlersList13RemoveIndexesEP10SIPHandler
libopal.so.3.10.11:_ZN15SIPHandlersList19FindSIPHandlerByUrlERK4PURLN7SIP_PDU7MethodsE11PSafetyMode
libopal.so.3.10.11:_ZN15SIPHandlersList19FindSIPHandlerByUrlERK4PURLN7SIP_PDU7MethodsERK7PString11PSafetyMode
libopal.so.3.10.11:_ZN15SIPHandlersList22FindSIPHandlerByCallIDERK7PString11PSafetyMode
libopal.so.3.10.11:_ZN15SIPHandlersList22FindSIPHandlerByDomainERK7PStringN7SIP_PDU7MethodsE11PSafetyMode
libopal.so.3.10.11:_ZN15SIPHandlersList25FindSIPHandlerByAuthRealmERK7PString11PSafetyMode
libopal.so.3.10.11:_ZN15SIPHandlersList25FindSIPHandlerByAuthRealmERK7PStringS2_11PSafetyMode
libopal.so.3.10.11:_ZN15SIPHandlersList6AppendEP10SIPHandler
libopal.so.3.10.11:_ZN15SIPHandlersList6FindByERSt3mapI7PString8PSafePtrI10SIPHandler12PSafePtrBaseESt4lessIS1_ESaISt4pairIKS1_S5_EEERS9_11PSafetyMode
libopal.so.3.10.11:_ZN15SIPHandlersList6RemoveEP10SIPHandler
libopal.so.3.10.11:_ZN15SIPHandlersList6UpdateEP10SIPHandler
libopal.so.3.10.11:_ZN15SIPPresenceInfo19AsSIPActivityStringEN16OpalPresenceInfo5StateER7PString
libopal.so.3.10.11:_ZN15SIPPresenceInfo21FromSIPActivityStringERK7PString
libopal.so.3.10.11:_ZN15SIPPresenceInfo8ParseXMLERK7PStringRNSt7__cxx114listIS_SaIS_EEERS0_
libopal.so.3.10.11:_ZN15SIPPresenceInfoC1EN16OpalPresenceInfo5StateE
libopal.so.3.10.11:_ZN15SIPPresenceInfoC2EN16OpalPresenceInfo5StateE
libopal.so.3.10.11:_ZN15SIP_RTP_Session14SessionFailingER11RTP_Session
libopal.so.3.10.11:_ZN15SIP_RTP_SessionC1ER13SIPConnection
libopal.so.3.10.11:_ZN15SIP_RTP_SessionC2ER13SIPConnection
libopal.so.3.10.11:_ZN15T38_Type_of_msg12CreateObjectEv
libopal.so.3.10.11:_ZN15T38_Type_of_msgC1EjN11PASN_Object8TagClassE
libopal.so.3.10.11:_ZN15T38_Type_of_msgC2EjN11PASN_Object8TagClassE
libopal.so.3.10.11:_ZN15T38_Type_of_msgcvR20T38_Type_of_msg_dataEv
libopal.so.3.10.11:_ZN15T38_Type_of_msgcvR29T38_Type_of_msg_t30_indicatorEv
libopal.so.3.10.11:_ZN15T38_UDPTLPacket6DecodeER11PASN_Stream
libopal.so.3.10.11:_ZN15T38_UDPTLPacketC1EjN11PASN_Object8TagClassE
libopal.so.3.10.11:_ZN15T38_UDPTLPacketC2EjN11PASN_Object8TagClassE
libopal.so.3.10.11:_ZN16H225_ANSI_41_UIM6DecodeER11PASN_Stream
libopal.so.3.10.11:_ZN16H225_ANSI_41_UIMC1EjN11PASN_Object8TagClassE
libopal.so.3.10.11:_ZN16H225_ANSI_41_UIMC2EjN11PASN_Object8TagClassE
libopal.so.3.10.11:_ZN16H225_AlternateGK6DecodeER11PASN_Stream
libopal.so.3.10.11:_ZN16H225_AlternateGKC1EjN11PASN_Object8TagClassE
libopal.so.3.10.11:_ZN16H225_AlternateGKC2EjN11PASN_Object8TagClassE
libopal.so.3.10.11:_ZN16H225_CallLinkage6DecodeER11PASN_Stream
libopal.so.3.10.11:_ZN16H225_CallLinkageC1EjN11PASN_Object8TagClassE
libopal.so.3.10.11:_ZN16H225_CallLinkageC2EjN11PASN_Object8TagClassE
libopal.so.3.10.11:_ZN16H225_CarrierInfo6DecodeER11PASN_Stream
libopal.so.3.10.11:_ZN16H225_CarrierInfoC1EjN11PASN_Object8TagClassE
libopal.so.3.10.11:_ZN16H225_CarrierInfoC2EjN11PASN_Object8TagClassE
libopal.so.3.10.11:_ZN16H225_CicInfo_cicC1EjN11PASN_Object8TagClassE
libopal.so.3.10.11:_ZN16H225_CicInfo_cicC2EjN11PASN_Object8TagClassE
libopal.so.3.10.11:_ZN16H225_CircuitInfo6DecodeER11PASN_Stream
libopal.so.3.10.11:_ZN16H225_CircuitInfoC1EjN11PASN_Object8TagClassE
libopal.so.3.10.11:_ZN16H225_CircuitInfoC2EjN11PASN_Object8TagClassE
libopal.so.3.10.11:_ZN16H225_GatewayInfo6DecodeER11PASN_Stream
libopal.so.3.10.11:_ZN16H225_GatewayInfoC1EjN11PASN_Object8TagClassE
libopal.so.3.10.11:_ZN16H225_GatewayInfoC2EjN11PASN_Object8TagClassE
libopal.so.3.10.11:_ZN16H225_GenericData6DecodeER11PASN_Stream
libopal.so.3.10.11:_ZN16H225_GenericDataC1EjN11PASN_Object8TagClassE
libopal.so.3.10.11:_ZN16H225_GenericDataC2EjN11PASN_Object8TagClassE
libopal.so.3.10.11:_ZN16H225_H323_UU_PDU6DecodeER11PASN_Stream
libopal.so.3.10.11:_ZN16H225_H323_UU_PDUC1EjN11PASN_Object8TagClassE
libopal.so.3.10.11:_ZN16H225_H323_UU_PDUC2EjN11PASN_Object8TagClassE
libopal.so.3.10.11:_ZN16H225_InfoRequest6DecodeER11PASN_Stream
libopal.so.3.10.11:_ZN16H225_InfoRequestC1EjN11PASN_Object8TagClassE
libopal.so.3.10.11:_ZN16H225_InfoRequestC2EjN11PASN_Object8TagClassE
libopal.so.3.10.11:_ZN16H225_Notify_UUIE6DecodeER11PASN_Stream
libopal.so.3.10.11:_ZN16H225_Notify_UUIEC1EjN11PASN_Object8TagClassE
libopal.so.3.10.11:_ZN16H225_Notify_UUIEC2EjN11PASN_Object8TagClassE
libopal.so.3.10.11:_ZN16H225_PartyNumber12CreateObjectEv
libopal.so.3.10.11:_ZN16H225_PartyNumberC1EjN11PASN_Object8TagClassE
libopal.so.3.10.11:_ZN16H225_PartyNumberC2EjN11PASN_Object8TagClassE
libopal.so.3.10.11:_ZN16H225_PartyNumbercvR17H225_NumberDigitsEv
libopal.so.3.10.11:_ZN16H225_PartyNumbercvR22H225_PublicPartyNumberEv
libopal.so.3.10.11:_ZN16H225_PartyNumbercvR23H225_PrivatePartyNumberEv
libopal.so.3.10.11:_ZN16H225_Q954Details6DecodeER11PASN_Stream
libopal.so.3.10.11:_ZN16H225_Q954DetailsC1EjN11PASN_Object8TagClassE
libopal.so.3.10.11:_ZN16H225_Q954DetailsC2EjN11PASN_Object8TagClassE
libopal.so.3.10.11:_ZN16H225_Status_UUIE6DecodeER11PASN_Stream
libopal.so.3.10.11:_ZN16H225_Status_UUIEC1EjN11PASN_Object8TagClassE
libopal.so.3.10.11:_ZN16H225_Status_UUIEC2EjN11PASN_Object8TagClassE
libopal.so.3.10.11:_ZN16H225_TBCD_STRINGC1EjN11PASN_Object8TagClassE
libopal.so.3.10.11:_ZN16H225_TBCD_STRINGC2EjN11PASN_Object8TagClassE
libopal.so.3.10.11:_ZN16H225_TBCD_STRINGaSEPKc
libopal.so.3.10.11:_ZN16H225_TBCD_STRINGaSERK7PString
libopal.so.3.10.11:_ZN16H235_CryptoToken12CreateObjectEv
libopal.so.3.10.11:_ZN16H235_CryptoTokenC1EjN11PASN_Object8TagClassE
libopal.so.3.10.11:_ZN16H235_CryptoTokenC2EjN11PASN_Object8TagClassE
libopal.so.3.10.11:_ZN16H235_CryptoTokencvR14H235_ENCRYPTEDI24H235_EncodedPwdCertTokenEEv
libopal.so.3.10.11:_ZN16H235_CryptoTokencvR34H235_CryptoToken_cryptoHashedTokenEv
libopal.so.3.10.11:_ZN16H235_CryptoTokencvR34H235_CryptoToken_cryptoSignedTokenEv
libopal.so.3.10.11:_ZN16H235_CryptoTokencvR37H235_CryptoToken_cryptoEncryptedTokenEv
libopal.so.3.10.11:_ZN16H235_KeyMaterialC1EjN11PASN_Object8TagClassE
libopal.so.3.10.11:_ZN16H235_KeyMaterialC2EjN11PASN_Object8TagClassE
libopal.so.3.10.11:_ZN16H245_H263Options6DecodeER11PASN_Stream
libopal.so.3.10.11:_ZN16H245_H263OptionsC1EjN11PASN_Object8TagClassE
libopal.so.3.10.11:_ZN16H245_H263OptionsC2EjN11PASN_Object8TagClassE
libopal.so.3.10.11:_ZN16H245_ModeElement6DecodeER11PASN_Stream
libopal.so.3.10.11:_ZN16H245_ModeElementC1EjN11PASN_Object8TagClassE
libopal.so.3.10.11:_ZN16H245_ModeElementC2EjN11PASN_Object8TagClassE
libopal.so.3.10.11:_ZN16H245_RequestMode6DecodeER11PASN_Stream
libopal.so.3.10.11:_ZN16H245_RequestModeC1EjN11PASN_Object8TagClassE
libopal.so.3.10.11:_ZN16H245_RequestModeC2EjN11PASN_Object8TagClassE
libopal.so.3.10.11:_ZN16H248_ActionReply6DecodeER11PASN_Stream
libopal.so.3.10.11:_ZN16H248_ActionReplyC1EjN11PASN_Object8TagClassE
libopal.so.3.10.11:_ZN16H248_ActionReplyC2EjN11PASN_Object8TagClassE
libopal.so.3.10.11:_ZN16H248_AuditResult6DecodeER11PASN_Stream
libopal.so.3.10.11:_ZN16H248_AuditResultC1EjN11PASN_Object8TagClassE
libopal.so.3.10.11:_ZN16H248_AuditResultC2EjN11PASN_Object8TagClassE
libopal.so.3.10.11:_ZN16H248_NotifyReply6DecodeER11PASN_Stream
libopal.so.3.10.11:_ZN16H248_NotifyReplyC1EjN11PASN_Object8TagClassE
libopal.so.3.10.11:_ZN16H248_NotifyReplyC2EjN11PASN_Object8TagClassE
libopal.so.3.10.11:_ZN16H248_SequenceNumC1EPKc
libopal.so.3.10.11:_ZN16H248_SequenceNumC1ERK10PBYTEArray
libopal.so.3.10.11:_ZN16H248_SequenceNumC1ERK7PString
libopal.so.3.10.11:_ZN16H248_SequenceNumC1EjN11PASN_Object8TagClassE
libopal.so.3.10.11:_ZN16H248_SequenceNumC2EPKc
libopal.so.3.10.11:_ZN16H248_SequenceNumC2ERK10PBYTEArray
libopal.so.3.10.11:_ZN16H248_SequenceNumC2ERK7PString
libopal.so.3.10.11:_ZN16H248_SequenceNumC2EjN11PASN_Object8TagClassE
libopal.so.3.10.11:_ZN16H248_SequenceNumaSEPKc
libopal.so.3.10.11:_ZN16H248_SequenceNumaSERK10PBYTEArray
libopal.so.3.10.11:_ZN16H248_SequenceNumaSERK7PString
libopal.so.3.10.11:_ZN16H248_StreamParms6DecodeER11PASN_Stream
libopal.so.3.10.11:_ZN16H248_StreamParmsC1EjN11PASN_Object8TagClassE
libopal.so.3.10.11:_ZN16H248_StreamParmsC2EjN11PASN_Object8TagClassE
libopal.so.3.10.11:_ZN16H248_Transaction12CreateObjectEv
libopal.so.3.10.11:_ZN16H248_TransactionC1EjN11PASN_Object8TagClassE
libopal.so.3.10.11:_ZN16H248_TransactionC2EjN11PASN_Object8TagClassE
libopal.so.3.10.11:_ZN16H248_TransactioncvR21H248_TransactionReplyEv
libopal.so.3.10.11:_ZN16H248_TransactioncvR23H248_TransactionPendingEv
libopal.so.3.10.11:_ZN16H248_TransactioncvR23H248_TransactionRequestEv
libopal.so.3.10.11:_ZN16H248_TransactioncvR27H248_TransactionResponseAckEv
libopal.so.3.10.11:_ZN16H323Capabilities13SetCapabilityEiiP14H323Capability
libopal.so.3.10.11:_ZN16H323Capabilities14AddMediaFormatEiiRK15OpalMediaFormat
libopal.so.3.10.11:_ZN16H323Capabilities18AddAllCapabilitiesEiiRK7PStringb
libopal.so.3.10.11:_ZN16H323Capabilities3AddEP14H323Capability
libopal.so.3.10.11:_ZN16H323Capabilities4CopyERK14H323Capability
libopal.so.3.10.11:_ZN16H323Capabilities5MergeERKS_
libopal.so.3.10.11:_ZN16H323Capabilities6RemoveEP14H323Capability
libopal.so.3.10.11:_ZN16H323Capabilities6RemoveERK12PStringArray
libopal.so.3.10.11:_ZN16H323Capabilities6RemoveERK7PString
libopal.so.3.10.11:_ZN16H323Capabilities7ReorderERK12PStringArray
libopal.so.3.10.11:_ZN16H323Capabilities9IsAllowedERK14H323Capability
libopal.so.3.10.11:_ZN16H323Capabilities9IsAllowedERK14H323CapabilityS2_
libopal.so.3.10.11:_ZN16H323Capabilities9IsAllowedEj
libopal.so.3.10.11:_ZN16H323Capabilities9IsAllowedEjj
libopal.so.3.10.11:_ZN16H323Capabilities9RemoveAllEv
libopal.so.3.10.11:_ZN16H323CapabilitiesC1ERK14H323ConnectionRK26H245_TerminalCapabilitySet
libopal.so.3.10.11:_ZN16H323CapabilitiesC1ERKS_
libopal.so.3.10.11:_ZN16H323CapabilitiesC1Ev
libopal.so.3.10.11:_ZN16H323CapabilitiesC2ERK14H323ConnectionRK26H245_TerminalCapabilitySet
libopal.so.3.10.11:_ZN16H323CapabilitiesC2ERKS_
libopal.so.3.10.11:_ZN16H323CapabilitiesC2Ev
libopal.so.3.10.11:_ZN16H323CapabilitiesaSERKS_
libopal.so.3.10.11:_ZN16H323PresenceBase14ReadIdentifierERK32H460P_ArrayOf_PresenceIdentifier
libopal.so.3.10.11:_ZN16H323PresenceBase15ReadInstructionERK33H460P_ArrayOf_PresenceInstruction
libopal.so.3.10.11:_ZN16H323PresenceBase16ReadNotificationERK34H460P_ArrayOf_PresenceNotification
libopal.so.3.10.11:_ZN16H323PresenceBase16ReadSubscriptionERK34H460P_ArrayOf_PresenceSubscription
libopal.so.3.10.11:_ZN16H323PresenceBase7ProcessEv
libopal.so.3.10.11:_ZN16H323PresenceBaseC1EP19H323PresenceMessage
libopal.so.3.10.11:_ZN16H323PresenceBaseC2EP19H323PresenceMessage
libopal.so.3.10.11:_ZN16H323_RTP_SessionC1ERK14H323Connection
libopal.so.3.10.11:_ZN16H323_RTP_SessionC2ERK14H323Connection
libopal.so.3.10.11:_ZN16H4501_EntityType12CreateObjectEv
libopal.so.3.10.11:_ZN16H4501_EntityTypeC1EjN11PASN_Object8TagClassE
libopal.so.3.10.11:_ZN16H4501_EntityTypeC2EjN11PASN_Object8TagClassE
libopal.so.3.10.11:_ZN16H4502_CTSetupArg6DecodeER11PASN_Stream
libopal.so.3.10.11:_ZN16H4502_CTSetupArgC1EjN11PASN_Object8TagClassE
libopal.so.3.10.11:_ZN16H4502_CTSetupArgC2EjN11PASN_Object8TagClassE
libopal.so.3.10.11:_ZN16H4502_CallStatusC1EjN11PASN_Object8TagClassE
libopal.so.3.10.11:_ZN16H4502_CallStatusC2EjN11PASN_Object8TagClassE
libopal.so.3.10.11:_ZN16H4502_CallStatusaSEj
libopal.so.3.10.11:_ZN16H4505_CpSetupArg6DecodeER11PASN_Stream
libopal.so.3.10.11:_ZN16H4505_CpSetupArgC1EjN11PASN_Object8TagClassE
libopal.so.3.10.11:_ZN16H4505_CpSetupArgC2EjN11PASN_Object8TagClassE
libopal.so.3.10.11:_ZN16H4505_CpSetupRes6DecodeER11PASN_Stream
libopal.so.3.10.11:_ZN16H4505_CpSetupResC1EjN11PASN_Object8TagClassE
libopal.so.3.10.11:_ZN16H4505_CpSetupResC2EjN11PASN_Object8TagClassE
libopal.so.3.10.11:_ZN16H4505_PickExeArg6DecodeER11PASN_Stream
libopal.so.3.10.11:_ZN16H4505_PickExeArgC1EjN11PASN_Object8TagClassE
libopal.so.3.10.11:_ZN16H4505_PickExeArgC2EjN11PASN_Object8TagClassE
libopal.so.3.10.11:_ZN16H4505_PickExeRes6DecodeER11PASN_Stream
libopal.so.3.10.11:_ZN16H4505_PickExeResC1EjN11PASN_Object8TagClassE
libopal.so.3.10.11:_ZN16H4505_PickExeResC2EjN11PASN_Object8TagClassE
libopal.so.3.10.11:_ZN16H4508_SimpleNameC1EPKc
libopal.so.3.10.11:_ZN16H4508_SimpleNameC1ERK10PBYTEArray
libopal.so.3.10.11:_ZN16H4508_SimpleNameC1ERK7PString
libopal.so.3.10.11:_ZN16H4508_SimpleNameC1EjN11PASN_Object8TagClassE
libopal.so.3.10.11:_ZN16H4508_SimpleNameC2EPKc
libopal.so.3.10.11:_ZN16H4508_SimpleNameC2ERK10PBYTEArray
libopal.so.3.10.11:_ZN16H4508_SimpleNameC2ERK7PString
libopal.so.3.10.11:_ZN16H4508_SimpleNameC2EjN11PASN_Object8TagClassE
libopal.so.3.10.11:_ZN16H4508_SimpleNameaSEPKc
libopal.so.3.10.11:_ZN16H4508_SimpleNameaSERK10PBYTEArray
libopal.so.3.10.11:_ZN16H4508_SimpleNameaSERK7PString
libopal.so.3.10.11:_ZN16H4509_CcShortArg6DecodeER11PASN_Stream
libopal.so.3.10.11:_ZN16H4509_CcShortArgC1EjN11PASN_Object8TagClassE
libopal.so.3.10.11:_ZN16H4509_CcShortArgC2EjN11PASN_Object8TagClassE
libopal.so.3.10.11:_ZN16H460P_Presentity6DecodeER11PASN_Stream
libopal.so.3.10.11:_ZN16H460P_PresentityC1EjN11PASN_Object8TagClassE
libopal.so.3.10.11:_ZN16H460P_PresentityC2EjN11PASN_Object8TagClassE
libopal.so.3.10.11:_ZN16H501_AccessToken12CreateObjectEv
libopal.so.3.10.11:_ZN16H501_AccessTokenC1EjN11PASN_Object8TagClassE
libopal.so.3.10.11:_ZN16H501_AccessTokenC2EjN11PASN_Object8TagClassE
libopal.so.3.10.11:_ZN16H501_AccessTokencvR15H235_ClearTokenEv
libopal.so.3.10.11:_ZN16H501_AccessTokencvR16H225_GenericDataEv
libopal.so.3.10.11:_ZN16H501_AccessTokencvR20H225_CryptoH323TokenEv
libopal.so.3.10.11:_ZN16H501_AlternatePE6DecodeER11PASN_Stream
libopal.so.3.10.11:_ZN16H501_AlternatePEC1EjN11PASN_Object8TagClassE
libopal.so.3.10.11:_ZN16H501_AlternatePEC2EjN11PASN_Object8TagClassE
libopal.so.3.10.11:_ZN16H501_MessageBody12CreateObjectEv
libopal.so.3.10.11:_ZN16H501_MessageBodyC1EjN11PASN_Object8TagClassE
libopal.so.3.10.11:_ZN16H501_MessageBodyC2EjN11PASN_Object8TagClassE
libopal.so.3.10.11:_ZN16H501_MessageBodycvR17H501_UsageRequestEv
libopal.so.3.10.11:_ZN16H501_MessageBodycvR18H501_AccessRequestEv
libopal.so.3.10.11:_ZN16H501_MessageBodycvR19H501_ServiceReleaseEv
libopal.so.3.10.11:_ZN16H501_MessageBodycvR19H501_ServiceRequestEv
libopal.so.3.10.11:_ZN16H501_MessageBodycvR19H501_UsageRejectionEv
libopal.so.3.10.11:_ZN16H501_MessageBodycvR20H501_AccessRejectionEv
libopal.so.3.10.11:_ZN16H501_MessageBodycvR20H501_UsageIndicationEv
libopal.so.3.10.11:_ZN16H501_MessageBodycvR21H501_DescriptorUpdateEv
libopal.so.3.10.11:_ZN16H501_MessageBodycvR21H501_ServiceRejectionEv
libopal.so.3.10.11:_ZN16H501_MessageBodycvR22H501_DescriptorRequestEv
libopal.so.3.10.11:_ZN16H501_MessageBodycvR22H501_RequestInProgressEv
libopal.so.3.10.11:_ZN16H501_MessageBodycvR22H501_UsageConfirmationEv
libopal.so.3.10.11:_ZN16H501_MessageBodycvR22H501_ValidationRequestEv
libopal.so.3.10.11:_ZN16H501_MessageBodycvR23H501_AccessConfirmationEv
libopal.so.3.10.11:_ZN16H501_MessageBodycvR23H501_NonStandardRequestEv
libopal.so.3.10.11:_ZN16H501_MessageBodycvR24H501_DescriptorIDRequestEv
libopal.so.3.10.11:_ZN16H501_MessageBodycvR24H501_DescriptorRejectionEv
libopal.so.3.10.11:_ZN16H501_MessageBodycvR24H501_DescriptorUpdateAckEv
libopal.so.3.10.11:_ZN16H501_MessageBodycvR24H501_ServiceConfirmationEv
libopal.so.3.10.11:_ZN16H501_MessageBodycvR24H501_ValidationRejectionEv
libopal.so.3.10.11:_ZN16H501_MessageBodycvR25H501_NonStandardRejectionEv
libopal.so.3.10.11:_ZN16H501_MessageBodycvR26H501_AuthenticationRequestEv
libopal.so.3.10.11:_ZN16H501_MessageBodycvR26H501_DescriptorIDRejectionEv
libopal.so.3.10.11:_ZN16H501_MessageBodycvR27H501_DescriptorConfirmationEv
libopal.so.3.10.11:_ZN16H501_MessageBodycvR27H501_UnknownMessageResponseEv
libopal.so.3.10.11:_ZN16H501_MessageBodycvR27H501_ValidationConfirmationEv
libopal.so.3.10.11:_ZN16H501_MessageBodycvR28H501_AuthenticationRejectionEv
libopal.so.3.10.11:_ZN16H501_MessageBodycvR28H501_NonStandardConfirmationEv
libopal.so.3.10.11:_ZN16H501_MessageBodycvR29H501_DescriptorIDConfirmationEv
libopal.so.3.10.11:_ZN16H501_MessageBodycvR29H501_UsageIndicationRejectionEv
libopal.so.3.10.11:_ZN16H501_MessageBodycvR31H501_AuthenticationConfirmationEv
libopal.so.3.10.11:_ZN16H501_MessageBodycvR32H501_UsageIndicationConfirmationEv
libopal.so.3.10.11:_ZN16IAX2FrameIdValueC1Ei
libopal.so.3.10.11:_ZN16IAX2FrameIdValueC1Eii
libopal.so.3.10.11:_ZN16IAX2FrameIdValueC2Ei
libopal.so.3.10.11:_ZN16IAX2FrameIdValueC2Eii
libopal.so.3.10.11:_ZN16IAX2FullFrameCngC1ERK13IAX2FullFrame
libopal.so.3.10.11:_ZN16IAX2FullFrameCngC1ERK9IAX2Frame
libopal.so.3.10.11:_ZN16IAX2FullFrameCngC2ERK13IAX2FullFrame
libopal.so.3.10.11:_ZN16IAX2FullFrameCngC2ERK9IAX2Frame
libopal.so.3.10.11:_ZN16IAX2IeEncryptionC1ENS_22IAX2IeEncryptionMethodE
libopal.so.3.10.11:_ZN16IAX2IeEncryptionC2ENS_22IAX2IeEncryptionMethodE
libopal.so.3.10.11:_ZN16IAX2IeSockaddrIn11WriteBinaryEPh
libopal.so.3.10.11:_ZN16IAX2IeSockaddrInC1EhPh
libopal.so.3.10.11:_ZN16IAX2IeSockaddrInC2EhPh
libopal.so.3.10.11:_ZN16IAX2PacketIdList13GetFirstValueEv
libopal.so.3.10.11:_ZN16IAX2PacketIdList14AppendNewFrameER13IAX2FullFrame
libopal.so.3.10.11:_ZN16IAX2PacketIdList25RemoveOldContiguousValuesEv
libopal.so.3.10.11:_ZN16IAX2PacketIdList8ContainsER16IAX2FrameIdValue
libopal.so.3.10.11:_ZN16IAX2RegProcessor10UnregisterEv
libopal.so.3.10.11:_ZN16IAX2RegProcessor12ProcessListsEv
libopal.so.3.10.11:_ZN16IAX2RegProcessor16OnDoRegistrationER6PTimerl
libopal.so.3.10.11:_ZN16IAX2RegProcessor16ProcessFullFrameER13IAX2FullFrame
libopal.so.3.10.11:_ZN16IAX2RegProcessor19OnNoResponseTimeoutEv
libopal.so.3.10.11:_ZN16IAX2RegProcessor19ProcessIaxCmdRegAckEP21IAX2FullFrameProtocol
libopal.so.3.10.11:_ZN16IAX2RegProcessor19ProcessIaxCmdRegRejEP21IAX2FullFrameProtocol
libopal.so.3.10.11:_ZN16IAX2RegProcessor19ProcessNetworkFrameEP13IAX2MiniFrame
libopal.so.3.10.11:_ZN16IAX2RegProcessor19ProcessNetworkFrameEP21IAX2FullFrameProtocol
libopal.so.3.10.11:_ZN16IAX2RegProcessor20ProcessIaxCmdRegAuthEP21IAX2FullFrameProtocol
libopal.so.3.10.11:_ZN16IAX2RegProcessor21ProcessIaxCmdUnRegAckEP21IAX2FullFrameProtocol
libopal.so.3.10.11:_ZN16IAX2RegProcessor21ProcessIaxCmdUnRegRejEP21IAX2FullFrameProtocol
libopal.so.3.10.11:_ZN16IAX2RegProcessor22ProcessIaxCmdUnRegAuthEP21IAX2FullFrameProtocol
libopal.so.3.10.11:_ZN16IAX2RegProcessor9ResetCallEv
libopal.so.3.10.11:_ZN16IAX2RegProcessorC1ER12IAX2EndPointRK7PStringS4_S4_i
libopal.so.3.10.11:_ZN16IAX2RegProcessorC2ER12IAX2EndPointRK7PStringS4_S4_i
libopal.so.3.10.11:_ZN16IAX2RegProcessorD0Ev
libopal.so.3.10.11:_ZN16IAX2RegProcessorD1Ev
libopal.so.3.10.11:_ZN16IAX2RegProcessorD2Ev
libopal.so.3.10.11:_ZN16OpalEchoCanceler10SentPacketER13RTP_DataFramel
libopal.so.3.10.11:_ZN16OpalEchoCanceler12SetClockRateEi
libopal.so.3.10.11:_ZN16OpalEchoCanceler13SetParametersERKNS_6ParamsE
libopal.so.3.10.11:_ZN16OpalEchoCanceler14ReceivedPacketER13RTP_DataFramel
libopal.so.3.10.11:_ZN16OpalEchoCancelerC1Ev
libopal.so.3.10.11:_ZN16OpalEchoCancelerC2Ev
libopal.so.3.10.11:_ZN16OpalEchoCancelerD0Ev
libopal.so.3.10.11:_ZN16OpalEchoCancelerD1Ev
libopal.so.3.10.11:_ZN16OpalEchoCancelerD2Ev
libopal.so.3.10.11:_ZN16OpalFaxMediaType16CreateRTPSessionER17OpalRTPConnectionjb
libopal.so.3.10.11:_ZN16OpalFaxMediaType25CreateSDPMediaDescriptionERK20OpalTransportAddress
libopal.so.3.10.11:_ZN16OpalFaxMediaTypeC1Ev
libopal.so.3.10.11:_ZN16OpalFaxMediaTypeC2Ev
libopal.so.3.10.11:_ZN16OpalJitterBuffer24AdjustCurrentJitterDelayEi
libopal.so.3.10.11:_ZN16OpalJitterBuffer5ResetEv
libopal.so.3.10.11:_ZN16OpalJitterBuffer8ReadDataER13RTP_DataFrameRK13PTimeInterval
libopal.so.3.10.11:_ZN16OpalJitterBuffer8SetDelayEjji
libopal.so.3.10.11:_ZN16OpalJitterBuffer9WriteDataERK13RTP_DataFrameRK13PTimeInterval
libopal.so.3.10.11:_ZN16OpalJitterBufferC1Ejjji
libopal.so.3.10.11:_ZN16OpalJitterBufferC2Ejjji
libopal.so.3.10.11:_ZN16OpalJitterBufferD0Ev
libopal.so.3.10.11:_ZN16OpalJitterBufferD1Ev
libopal.so.3.10.11:_ZN16OpalJitterBufferD2Ev
libopal.so.3.10.11:_ZN16OpalLineEndPoint10RemoveLineEP8OpalLine
libopal.so.3.10.11:_ZN16OpalLineEndPoint10RemoveLineERK7PString
libopal.so.3.10.11:_ZN16OpalLineEndPoint11MonitorLineER8OpalLine
libopal.so.3.10.11:_ZN16OpalLineEndPoint12MonitorLinesER7PThreadl
libopal.so.3.10.11:_ZN16OpalLineEndPoint12RemoveDeviceEP23OpalLineInterfaceDevice
libopal.so.3.10.11:_ZN16OpalLineEndPoint13AddDeviceNameERK7PString
libopal.so.3.10.11:_ZN16OpalLineEndPoint14AddDeviceNamesERK12PStringArray
libopal.so.3.10.11:_ZN16OpalLineEndPoint14MakeConnectionER8OpalCallRK7PStringPvjPN14OpalConnection13StringOptionsE
libopal.so.3.10.11:_ZN16OpalLineEndPoint14RemoveAllLinesEv
libopal.so.3.10.11:_ZN16OpalLineEndPoint14SetCountryCodeEN23OpalLineInterfaceDevice15T35CountryCodesE
libopal.so.3.10.11:_ZN16OpalLineEndPoint14SetDefaultLineERK7PString
libopal.so.3.10.11:_ZN16OpalLineEndPoint15GetDeviceByNameERK7PString
libopal.so.3.10.11:_ZN16OpalLineEndPoint16CreateConnectionER8OpalCallR8OpalLinePvRK7PString
libopal.so.3.10.11:_ZN16OpalLineEndPoint18AddLinesFromDeviceER23OpalLineInterfaceDevice
libopal.so.3.10.11:_ZN16OpalLineEndPoint18SetCountryCodeNameERK7PString
libopal.so.3.10.11:_ZN16OpalLineEndPoint21RemoveLinesFromDeviceER23OpalLineInterfaceDevice
libopal.so.3.10.11:_ZN16OpalLineEndPoint7AddLineEP8OpalLine
libopal.so.3.10.11:_ZN16OpalLineEndPoint7GetLineERK7PStringbb
libopal.so.3.10.11:_ZN16OpalLineEndPoint9AddDeviceEP23OpalLineInterfaceDevice
libopal.so.3.10.11:_ZN16OpalLineEndPointC1ER11OpalManager
libopal.so.3.10.11:_ZN16OpalLineEndPointC2ER11OpalManager
libopal.so.3.10.11:_ZN16OpalLineEndPointD0Ev
libopal.so.3.10.11:_ZN16OpalLineEndPointD1Ev
libopal.so.3.10.11:_ZN16OpalLineEndPointD2Ev
libopal.so.3.10.11:_ZN16OpalListenerTCPS6AcceptERK13PTimeInterval
libopal.so.3.10.11:_ZN16OpalListenerTCPS9ConstructEv
libopal.so.3.10.11:_ZN16OpalListenerTCPSC1ER12OpalEndPointN9PIPSocket7AddressEtb
libopal.so.3.10.11:_ZN16OpalListenerTCPSC1ER12OpalEndPointRK20OpalTransportAddressNS2_11BindOptionsE
libopal.so.3.10.11:_ZN16OpalListenerTCPSC2ER12OpalEndPointN9PIPSocket7AddressEtb
libopal.so.3.10.11:_ZN16OpalListenerTCPSC2ER12OpalEndPointRK20OpalTransportAddressNS2_11BindOptionsE
libopal.so.3.10.11:_ZN16OpalListenerTCPSD0Ev
libopal.so.3.10.11:_ZN16OpalListenerTCPSD1Ev
libopal.so.3.10.11:_ZN16OpalListenerTCPSD2Ev
libopal.so.3.10.11:_ZN16OpalMediaSessionC1ER14OpalConnectionRK13OpalMediaTypej
libopal.so.3.10.11:_ZN16OpalMediaSessionC1ERKS_
libopal.so.3.10.11:_ZN16OpalMediaSessionC2ER14OpalConnectionRK13OpalMediaTypej
libopal.so.3.10.11:_ZN16OpalMediaSessionC2ERKS_
libopal.so.3.10.11:_ZN16OpalPCSSEndPoint11OnUserInputERK19OpalLocalConnectionRK7PString
libopal.so.3.10.11:_ZN16OpalPCSSEndPoint14MakeConnectionER8OpalCallRK7PStringPvjPN14OpalConnection13StringOptionsE
libopal.so.3.10.11:_ZN16OpalPCSSEndPoint14OnIncomingCallER19OpalLocalConnection
libopal.so.3.10.11:_ZN16OpalPCSSEndPoint14OnOutgoingCallERK19OpalLocalConnection
libopal.so.3.10.11:_ZN16OpalPCSSEndPoint15OnShowUserInputERK18OpalPCSSConnectionRK7PString
libopal.so.3.10.11:_ZN16OpalPCSSEndPoint16CreateConnectionER8OpalCallRK7PStringS4_PvjPN14OpalConnection13StringOptionsE
libopal.so.3.10.11:_ZN16OpalPCSSEndPoint18CreateSoundChannelERK18OpalPCSSConnectionRK15OpalMediaFormatb
libopal.so.3.10.11:_ZN16OpalPCSSEndPoint24AcceptIncomingConnectionERK7PString
libopal.so.3.10.11:_ZN16OpalPCSSEndPoint24RejectIncomingConnectionERK7PStringRKN14OpalConnection13CallEndReasonE
libopal.so.3.10.11:_ZN16OpalPCSSEndPoint25SetSoundChannelBufferTimeEj
libopal.so.3.10.11:_ZN16OpalPCSSEndPoint25SetSoundChannelPlayDeviceERK7PString
libopal.so.3.10.11:_ZN16OpalPCSSEndPoint26SetSoundChannelBufferDepthEj
libopal.so.3.10.11:_ZN16OpalPCSSEndPoint27SetSoundChannelRecordDeviceERK7PString
libopal.so.3.10.11:_ZN16OpalPCSSEndPointC1ER11OpalManagerPKc
libopal.so.3.10.11:_ZN16OpalPCSSEndPointC2ER11OpalManagerPKc
libopal.so.3.10.11:_ZN16OpalPCSSEndPointD0Ev
libopal.so.3.10.11:_ZN16OpalPCSSEndPointD1Ev
libopal.so.3.10.11:_ZN16OpalPCSSEndPointD2Ev
libopal.so.3.10.11:_ZN16OpalPresenceInfo10FromStringERK7PString
libopal.so.3.10.11:_ZN16OpalPresenceInfo8AsStringENS_5StateE
libopal.so.3.10.11:_ZN16OpalRFC2833Proto12AsyncTimeoutER6PTimerl
libopal.so.3.10.11:_ZN16OpalRFC2833Proto12OnEndReceiveEcjj
libopal.so.3.10.11:_ZN16OpalRFC2833Proto13SendToneAsyncEcj
libopal.so.3.10.11:_ZN16OpalRFC2833Proto14ASCIIToRFC2833Ecb
libopal.so.3.10.11:_ZN16OpalRFC2833Proto14OnStartReceiveEc
libopal.so.3.10.11:_ZN16OpalRFC2833Proto14OnStartReceiveEcj
libopal.so.3.10.11:_ZN16OpalRFC2833Proto14RFC2833ToASCIIEib
libopal.so.3.10.11:_ZN16OpalRFC2833Proto14ReceiveTimeoutER6PTimerl
libopal.so.3.10.11:_ZN16OpalRFC2833Proto14ReceivedPacketER13RTP_DataFrameRN11RTP_Session17SendReceiveStatusE
libopal.so.3.10.11:_ZN16OpalRFC2833Proto14SendAsyncFrameEv
libopal.so.3.10.11:_ZN16OpalRFC2833Proto16SetRxMediaFormatERK15OpalMediaFormat
libopal.so.3.10.11:_ZN16OpalRFC2833Proto16SetTxMediaFormatERK15OpalMediaFormat
libopal.so.3.10.11:_ZN16OpalRFC2833ProtoC1ER17OpalRTPConnectionRK17PNotifierTemplateIlERK15OpalMediaFormat
libopal.so.3.10.11:_ZN16OpalRFC2833ProtoC2ER17OpalRTPConnectionRK17PNotifierTemplateIlERK15OpalMediaFormat
libopal.so.3.10.11:_ZN16OpalRFC2833ProtoD0Ev
libopal.so.3.10.11:_ZN16OpalRFC2833ProtoD1Ev
libopal.so.3.10.11:_ZN16OpalRFC2833ProtoD2Ev
libopal.so.3.10.11:_ZN16OpalSIPIMContext11ResetTimersER6OpalIM
libopal.so.3.10.11:_ZN16OpalSIPIMContext12OnIncomingIMER6OpalIM
libopal.so.3.10.11:_ZN16OpalSIPIMContext14PopulateParamsERN10SIPMessage6ParamsER6OpalIM
libopal.so.3.10.11:_ZN16OpalSIPIMContext19OnTxIdleTimerExpireER6PTimerl
libopal.so.3.10.11:_ZN16OpalSIPIMContext22InternalSendInsideCallEP6OpalIM
libopal.so.3.10.11:_ZN16OpalSIPIMContext23InternalSendOutsideCallEP6OpalIM
libopal.so.3.10.11:_ZN16OpalSIPIMContext25SendCompositionIndicationEb
libopal.so.3.10.11:_ZN16OpalSIPIMContext26OnRxCompositionTimerExpireER6PTimerl
libopal.so.3.10.11:_ZN16OpalSIPIMContext26OnTxCompositionTimerExpireER6PTimerl
libopal.so.3.10.11:_ZN16OpalSIPIMContext30OnCompositionIndicationTimeoutEv
libopal.so.3.10.11:_ZN16OpalSIPIMContextC1Ev
libopal.so.3.10.11:_ZN16OpalSIPIMContextC2Ev
libopal.so.3.10.11:_ZN16OpalTransportTCP6OnOpenEv
libopal.so.3.10.11:_ZN16OpalTransportTCP7ConnectEv
libopal.so.3.10.11:_ZN16OpalTransportTCP7ReadPDUER10PBYTEArray
libopal.so.3.10.11:_ZN16OpalTransportTCP8WritePDUERK10PBYTEArray
libopal.so.3.10.11:_ZN16OpalTransportTCPC1ER12OpalEndPointN9PIPSocket7AddressEtb
libopal.so.3.10.11:_ZN16OpalTransportTCPC1ER12OpalEndPointP10PTCPSocket
libopal.so.3.10.11:_ZN16OpalTransportTCPC2ER12OpalEndPointN9PIPSocket7AddressEtb
libopal.so.3.10.11:_ZN16OpalTransportTCPC2ER12OpalEndPointP10PTCPSocket
libopal.so.3.10.11:_ZN16OpalTransportTCPD0Ev
libopal.so.3.10.11:_ZN16OpalTransportTCPD1Ev
libopal.so.3.10.11:_ZN16OpalTransportTCPD2Ev
libopal.so.3.10.11:_ZN16OpalTransportUDP12SetInterfaceERK7PString
libopal.so.3.10.11:_ZN16OpalTransportUDP12WriteConnectEPFbR13OpalTransportPvES2_
libopal.so.3.10.11:_ZN16OpalTransportUDP14SetPromiscuousEN13OpalTransport16PromisciousModesE
libopal.so.3.10.11:_ZN16OpalTransportUDP15SetLocalAddressERK20OpalTransportAddress
libopal.so.3.10.11:_ZN16OpalTransportUDP16SetRemoteAddressERK20OpalTransportAddress
libopal.so.3.10.11:_ZN16OpalTransportUDP4ReadEPvi
libopal.so.3.10.11:_ZN16OpalTransportUDP7ConnectEv
libopal.so.3.10.11:_ZN16OpalTransportUDP7ReadPDUER10PBYTEArray
libopal.so.3.10.11:_ZN16OpalTransportUDP8WritePDUERK10PBYTEArray
libopal.so.3.10.11:_ZN16OpalTransportUDPC1ER12OpalEndPointN9PIPSocket7AddressEtbb
libopal.so.3.10.11:_ZN16OpalTransportUDPC1ER12OpalEndPointRK8PSafePtrI17PMonitoredSockets12PSafePtrBaseERK7PString
libopal.so.3.10.11:_ZN16OpalTransportUDPC2ER12OpalEndPointN9PIPSocket7AddressEtbb
libopal.so.3.10.11:_ZN16OpalTransportUDPC2ER12OpalEndPointRK8PSafePtrI17PMonitoredSockets12PSafePtrBaseERK7PString
libopal.so.3.10.11:_ZN16OpalTransportUDPD0Ev
libopal.so.3.10.11:_ZN16OpalTransportUDPD1Ev
libopal.so.3.10.11:_ZN16OpalTransportUDPD2Ev
libopal.so.3.10.11:_ZN16RTP_ControlFrame14ReadNextPacketEv
libopal.so.3.10.11:_ZN16RTP_ControlFrame14ReceiverReport14SetLostPacketsEj
libopal.so.3.10.11:_ZN16RTP_ControlFrame14SetPayloadSizeEi
libopal.so.3.10.11:_ZN16RTP_ControlFrame14SetPayloadTypeEj
libopal.so.3.10.11:_ZN16RTP_ControlFrame14StartNewPacketEv
libopal.so.3.10.11:_ZN16RTP_ControlFrame22StartSourceDescriptionEj
libopal.so.3.10.11:_ZN16RTP_ControlFrame24AddSourceDescriptionItemEjRK7PString
libopal.so.3.10.11:_ZN16RTP_ControlFrame5ResetEi
libopal.so.3.10.11:_ZN16RTP_ControlFrame8SetCountEj
libopal.so.3.10.11:_ZN16RTP_ControlFrame9EndPacketEv
libopal.so.3.10.11:_ZN16RTP_ControlFrame9SetFbTypeEji
libopal.so.3.10.11:_ZN16RTP_ControlFrameC1Ei
libopal.so.3.10.11:_ZN16RTP_ControlFrameC2Ei
libopal.so.3.10.11:_ZN16RTP_JitterBuffer12OnReadPacketER13RTP_DataFrame
libopal.so.3.10.11:_ZN16RTP_JitterBufferC1ER11RTP_Sessionjjji
libopal.so.3.10.11:_ZN16RTP_JitterBufferC2ER11RTP_Sessionjjji
libopal.so.3.10.11:_ZN16RTP_JitterBufferD0Ev
libopal.so.3.10.11:_ZN16RTP_JitterBufferD1Ev
libopal.so.3.10.11:_ZN16RTP_JitterBufferD2Ev
libopal.so.3.10.11:_ZN16SIPAuthenticator13GetEntityBodyEv
libopal.so.3.10.11:_ZN16SIPAuthenticator6GetURIEv
libopal.so.3.10.11:_ZN16SIPAuthenticator7GetMIMEEv
libopal.so.3.10.11:_ZN16SIPAuthenticator9GetMethodEv
libopal.so.3.10.11:_ZN16SIPAuthenticatorC1ER7SIP_PDU
libopal.so.3.10.11:_ZN16SIPAuthenticatorC2ER7SIP_PDU
libopal.so.3.10.11:_ZN16SIPDialogContext10FromStringERK7PString
libopal.so.3.10.11:_ZN16SIPDialogContext11GetNextCSeqEv
libopal.so.3.10.11:_ZN16SIPDialogContext11SetLocalURIERK6SIPURL
libopal.so.3.10.11:_ZN16SIPDialogContext12SetRemoteURIERK6SIPURL
libopal.so.3.10.11:_ZN16SIPDialogContext15IsDuplicateCSeqEj
libopal.so.3.10.11:_ZN16SIPDialogContext6UpdateER13OpalTransportRK7SIP_PDU
libopal.so.3.10.11:_ZN16SIPDialogContext8SetProxyERK6SIPURLb
libopal.so.3.10.11:_ZN16SIPDialogContextC1ERK11SIPMIMEInfo
libopal.so.3.10.11:_ZN16SIPDialogContextC1Ev
libopal.so.3.10.11:_ZN16SIPDialogContextC2ERK11SIPMIMEInfo
libopal.so.3.10.11:_ZN16SIPDialogContextC2Ev
libopal.so.3.10.11:_ZN16SIPNotifyHandler10SendNotifyEPK7PObject
libopal.so.3.10.11:_ZN16SIPNotifyHandler11SendRequestEN10SIPHandler5StateE
libopal.so.3.10.11:_ZN16SIPNotifyHandler15WriteSIPHandlerER13OpalTransportb
libopal.so.3.10.11:_ZN16SIPNotifyHandler17CreateTransactionER13OpalTransport
libopal.so.3.10.11:_ZN16SIPNotifyHandlerC1ER11SIPEndPointRK7PStringRKN12SIPSubscribe12EventPackageERK16SIPDialogContext
libopal.so.3.10.11:_ZN16SIPNotifyHandlerC2ER11SIPEndPointRK7PStringRKN12SIPSubscribe12EventPackageERK16SIPDialogContext
libopal.so.3.10.11:_ZN16SIPNotifyHandlerD0Ev
libopal.so.3.10.11:_ZN16SIPNotifyHandlerD1Ev
libopal.so.3.10.11:_ZN16SIPNotifyHandlerD2Ev
libopal.so.3.10.11:_ZN16X880_ReturnError6DecodeER11PASN_Stream
libopal.so.3.10.11:_ZN16X880_ReturnErrorC1EjN11PASN_Object8TagClassE
libopal.so.3.10.11:_ZN16X880_ReturnErrorC2EjN11PASN_Object8TagClassE
libopal.so.3.10.11:_ZN17H225_AliasAddress12CreateObjectEv
libopal.so.3.10.11:_ZN17H225_AliasAddressC1EjN11PASN_Object8TagClassE
libopal.so.3.10.11:_ZN17H225_AliasAddressC2EjN11PASN_Object8TagClassE
libopal.so.3.10.11:_ZN17H225_AliasAddresscvR14H225_MobileUIMEv
libopal.so.3.10.11:_ZN17H225_AliasAddresscvR15H225_IsupNumberEv
libopal.so.3.10.11:_ZN17H225_AliasAddresscvR16H225_PartyNumberEv
libopal.so.3.10.11:_ZN17H225_AliasAddresscvR21H225_TransportAddressEv
libopal.so.3.10.11:_ZN17H225_CallCapacity6DecodeER11PASN_Stream
libopal.so.3.10.11:_ZN17H225_CallCapacityC1EjN11PASN_Object8TagClassE
libopal.so.3.10.11:_ZN17H225_CallCapacityC2EjN11PASN_Object8TagClassE
libopal.so.3.10.11:_ZN17H225_Connect_UUIE6DecodeER11PASN_Stream
libopal.so.3.10.11:_ZN17H225_Connect_UUIEC1EjN11PASN_Object8TagClassE
libopal.so.3.10.11:_ZN17H225_Connect_UUIEC2EjN11PASN_Object8TagClassE
libopal.so.3.10.11:_ZN17H225_EndpointType6DecodeER11PASN_Stream
libopal.so.3.10.11:_ZN17H225_EndpointTypeC1EjN11PASN_Object8TagClassE
libopal.so.3.10.11:_ZN17H225_EndpointTypeC2EjN11PASN_Object8TagClassE
libopal.so.3.10.11:_ZN17H225_H245Security12CreateObjectEv
libopal.so.3.10.11:_ZN17H225_H245SecurityC1EjN11PASN_Object8TagClassE
libopal.so.3.10.11:_ZN17H225_H245SecurityC2EjN11PASN_Object8TagClassE
libopal.so.3.10.11:_ZN17H225_H245SecuritycvR25H225_NonStandardParameterEv
libopal.so.3.10.11:_ZN17H225_H245SecuritycvR25H225_SecurityCapabilitiesEv
libopal.so.3.10.11:_ZN17H225_NumberDigitsC1EjN11PASN_Object8TagClassE
libopal.so.3.10.11:_ZN17H225_NumberDigitsC2EjN11PASN_Object8TagClassE
libopal.so.3.10.11:_ZN17H225_NumberDigitsaSEPKc
libopal.so.3.10.11:_ZN17H225_NumberDigitsaSERK7PString
libopal.so.3.10.11:_ZN17H225_T120OnlyCaps6DecodeER11PASN_Stream
libopal.so.3.10.11:_ZN17H225_T120OnlyCapsC1EjN11PASN_Object8TagClassE
libopal.so.3.10.11:_ZN17H225_T120OnlyCapsC2EjN11PASN_Object8TagClassE
libopal.so.3.10.11:_ZN17H225_TerminalInfo6DecodeER11PASN_Stream
libopal.so.3.10.11:_ZN17H225_TerminalInfoC1EjN11PASN_Object8TagClassE
libopal.so.3.10.11:_ZN17H225_TerminalInfoC2EjN11PASN_Object8TagClassE
libopal.so.3.10.11:_ZN17H225_TransportQOS12CreateObjectEv
libopal.so.3.10.11:_ZN17H225_TransportQOSC1EjN11PASN_Object8TagClassE
libopal.so.3.10.11:_ZN17H225_TransportQOSC2EjN11PASN_Object8TagClassE
libopal.so.3.10.11:_ZN17H225_TransportQOScvR26H225_ArrayOf_QOSCapabilityEv
libopal.so.3.10.11:_ZN17H235AuthSimpleMD512IsCapabilityERK28H235_AuthenticationMechanismRK13PASN_ObjectId
libopal.so.3.10.11:_ZN17H235AuthSimpleMD513SetCapabilityER36H225_ArrayOf_AuthenticationMechanismR26H225_ArrayOf_PASN_ObjectId
libopal.so.3.10.11:_ZN17H235AuthSimpleMD517CreateCryptoTokenEb
libopal.so.3.10.11:_ZN17H235AuthSimpleMD519ValidateCryptoTokenERK20H225_CryptoH323TokenRK10PBYTEArray
libopal.so.3.10.11:_ZN17H235AuthSimpleMD5C1Ev
libopal.so.3.10.11:_ZN17H235AuthSimpleMD5C2Ev
libopal.so.3.10.11:_ZN17H235Authenticator13AddCapabilityEjRK7PStringR36H225_ArrayOf_AuthenticationMechanismR26H225_ArrayOf_PASN_ObjectId
libopal.so.3.10.11:_ZN17H235Authenticator13PrepareTokensER10PASN_ArrayS1_
libopal.so.3.10.11:_ZN17H235Authenticator14ValidateTokensERK10PASN_ArrayS2_RK10PBYTEArray
libopal.so.3.10.11:_ZN17H235Authenticator16CreateClearTokenEv
libopal.so.3.10.11:_ZN17H235Authenticator17CreateCryptoTokenEb
libopal.so.3.10.11:_ZN17H235Authenticator18ValidateClearTokenERK15H235_ClearToken
libopal.so.3.10.11:_ZN17H235Authenticator19ValidateCryptoTokenERK20H225_CryptoH323TokenRK10PBYTEArray
libopal.so.3.10.11:_ZN17H235Authenticator8FinaliseER10PBYTEArray
libopal.so.3.10.11:_ZN17H235AuthenticatorC1Ev
libopal.so.3.10.11:_ZN17H235AuthenticatorC2Ev
libopal.so.3.10.11:_ZN17H235_PwdCertTokenC1EjN11PASN_Object8TagClassE
libopal.so.3.10.11:_ZN17H235_PwdCertTokenC2EjN11PASN_Object8TagClassE
libopal.so.3.10.11:_ZN17H245_ConferenceIDC1EPKc
libopal.so.3.10.11:_ZN17H245_ConferenceIDC1ERK10PBYTEArray
libopal.so.3.10.11:_ZN17H245_ConferenceIDC1ERK7PString
libopal.so.3.10.11:_ZN17H245_ConferenceIDC1EjN11PASN_Object8TagClassE
libopal.so.3.10.11:_ZN17H245_ConferenceIDC2EPKc
libopal.so.3.10.11:_ZN17H245_ConferenceIDC2ERK10PBYTEArray
libopal.so.3.10.11:_ZN17H245_ConferenceIDC2ERK7PString
libopal.so.3.10.11:_ZN17H245_ConferenceIDC2EjN11PASN_Object8TagClassE
libopal.so.3.10.11:_ZN17H245_ConferenceIDaSEPKc
libopal.so.3.10.11:_ZN17H245_ConferenceIDaSERK10PBYTEArray
libopal.so.3.10.11:_ZN17H245_ConferenceIDaSERK7PString
libopal.so.3.10.11:_ZN17H245_Q2931Address6DecodeER11PASN_Stream
libopal.so.3.10.11:_ZN17H245_Q2931AddressC1EjN11PASN_Object8TagClassE
libopal.so.3.10.11:_ZN17H245_Q2931AddressC2EjN11PASN_Object8TagClassE
libopal.so.3.10.11:_ZN17H245_VCCapability6DecodeER11PASN_Stream
libopal.so.3.10.11:_ZN17H245_VCCapabilityC1EjN11PASN_Object8TagClassE
libopal.so.3.10.11:_ZN17H245_VCCapabilityC2EjN11PASN_Object8TagClassE
libopal.so.3.10.11:_ZN17H248_AuditRequest6DecodeER11PASN_Stream
libopal.so.3.10.11:_ZN17H248_AuditRequestC1EjN11PASN_Object8TagClassE
libopal.so.3.10.11:_ZN17H248_AuditRequestC2EjN11PASN_Object8TagClassE
libopal.so.3.10.11:_ZN17H248_CommandReply12CreateObjectEv
libopal.so.3.10.11:_ZN17H248_CommandReplyC1EjN11PASN_Object8TagClassE
libopal.so.3.10.11:_ZN17H248_CommandReplyC2EjN11PASN_Object8TagClassE
libopal.so.3.10.11:_ZN17H248_CommandReplycvR14H248_AmmsReplyEv
libopal.so.3.10.11:_ZN17H248_CommandReplycvR15H248_AuditReplyEv
libopal.so.3.10.11:_ZN17H248_CommandReplycvR16H248_NotifyReplyEv
libopal.so.3.10.11:_ZN17H248_CommandReplycvR23H248_ServiceChangeReplyEv
libopal.so.3.10.11:_ZN17H248_DigitMapNameC1EPKc
libopal.so.3.10.11:_ZN17H248_DigitMapNameC1ERK10PBYTEArray
libopal.so.3.10.11:_ZN17H248_DigitMapNameC1ERK7PString
libopal.so.3.10.11:_ZN17H248_DigitMapNameC1EjN11PASN_Object8TagClassE
libopal.so.3.10.11:_ZN17H248_DigitMapNameC2EPKc
libopal.so.3.10.11:_ZN17H248_DigitMapNameC2ERK10PBYTEArray
libopal.so.3.10.11:_ZN17H248_DigitMapNameC2ERK7PString
libopal.so.3.10.11:_ZN17H248_DigitMapNameC2EjN11PASN_Object8TagClassE
libopal.so.3.10.11:_ZN17H248_DigitMapNameaSEPKc
libopal.so.3.10.11:_ZN17H248_DigitMapNameaSERK10PBYTEArray
libopal.so.3.10.11:_ZN17H248_DigitMapNameaSERK7PString
libopal.so.3.10.11:_ZN17H248_IndAudSignal6DecodeER11PASN_Stream
libopal.so.3.10.11:_ZN17H248_IndAudSignalC1EjN11PASN_Object8TagClassE
libopal.so.3.10.11:_ZN17H248_IndAudSignalC2EjN11PASN_Object8TagClassE
libopal.so.3.10.11:_ZN17H248_PackagesItem6DecodeER11PASN_Stream
libopal.so.3.10.11:_ZN17H248_PackagesItemC1EjN11PASN_Object8TagClassE
libopal.so.3.10.11:_ZN17H248_PackagesItemC2EjN11PASN_Object8TagClassE
libopal.so.3.10.11:_ZN17H248_PropertyParm6DecodeER11PASN_Stream
libopal.so.3.10.11:_ZN17H248_PropertyParmC1EjN11PASN_Object8TagClassE
libopal.so.3.10.11:_ZN17H248_PropertyParmC2EjN11PASN_Object8TagClassE
libopal.so.3.10.11:_ZN17H248_ServiceStateC1EjN11PASN_Object8TagClassE
libopal.so.3.10.11:_ZN17H248_ServiceStateC2EjN11PASN_Object8TagClassE
libopal.so.3.10.11:_ZN17H248_ServiceStateaSEj
libopal.so.3.10.11:_ZN17H248_SigParameter6DecodeER11PASN_Stream
libopal.so.3.10.11:_ZN17H248_SigParameterC1EjN11PASN_Object8TagClassE
libopal.so.3.10.11:_ZN17H248_SigParameterC2EjN11PASN_Object8TagClassE
libopal.so.3.10.11:_ZN17H248_TimeNotation6DecodeER11PASN_Stream
libopal.so.3.10.11:_ZN17H248_TimeNotationC1EjN11PASN_Object8TagClassE
libopal.so.3.10.11:_ZN17H248_TimeNotationC2EjN11PASN_Object8TagClassE
libopal.so.3.10.11:_ZN17H323ChannelNumberC1Ejb
libopal.so.3.10.11:_ZN17H323ChannelNumberC2Ejb
libopal.so.3.10.11:_ZN17H323ChannelNumberppEi
libopal.so.3.10.11:_ZN17H323GatekeeperARQ11OnHandlePDUEv
libopal.so.3.10.11:_ZN17H323GatekeeperARQ15SetRejectReasonEj
libopal.so.3.10.11:_ZN17H323GatekeeperARQC1ER22H323GatekeeperListenerRK10H323RasPDU
libopal.so.3.10.11:_ZN17H323GatekeeperARQC2ER22H323GatekeeperListenerRK10H323RasPDU
libopal.so.3.10.11:_ZN17H323GatekeeperBRQ11OnHandlePDUEv
libopal.so.3.10.11:_ZN17H323GatekeeperBRQ15SetRejectReasonEj
libopal.so.3.10.11:_ZN17H323GatekeeperBRQC1ER22H323GatekeeperListenerRK10H323RasPDU
libopal.so.3.10.11:_ZN17H323GatekeeperBRQC2ER22H323GatekeeperListenerRK10H323RasPDU
libopal.so.3.10.11:_ZN17H323GatekeeperDRQ11OnHandlePDUEv
libopal.so.3.10.11:_ZN17H323GatekeeperDRQ15SetRejectReasonEj
libopal.so.3.10.11:_ZN17H323GatekeeperDRQC1ER22H323GatekeeperListenerRK10H323RasPDU
libopal.so.3.10.11:_ZN17H323GatekeeperDRQC2ER22H323GatekeeperListenerRK10H323RasPDU
libopal.so.3.10.11:_ZN17H323GatekeeperGRQ11OnHandlePDUEv
libopal.so.3.10.11:_ZN17H323GatekeeperGRQ15SetRejectReasonEj
libopal.so.3.10.11:_ZN17H323GatekeeperGRQC1ER22H323GatekeeperListenerRK10H323RasPDU
libopal.so.3.10.11:_ZN17H323GatekeeperGRQC2ER22H323GatekeeperListenerRK10H323RasPDU
libopal.so.3.10.11:_ZN17H323GatekeeperIRR11OnHandlePDUEv
libopal.so.3.10.11:_ZN17H323GatekeeperIRR15SetRejectReasonEj
libopal.so.3.10.11:_ZN17H323GatekeeperIRRC1ER22H323GatekeeperListenerRK10H323RasPDU
libopal.so.3.10.11:_ZN17H323GatekeeperIRRC2ER22H323GatekeeperListenerRK10H323RasPDU
libopal.so.3.10.11:_ZN17H323GatekeeperLRQ11OnHandlePDUEv
libopal.so.3.10.11:_ZN17H323GatekeeperLRQ15SetRejectReasonEj
libopal.so.3.10.11:_ZN17H323GatekeeperLRQC1ER22H323GatekeeperListenerRK10H323RasPDU
libopal.so.3.10.11:_ZN17H323GatekeeperLRQC2ER22H323GatekeeperListenerRK10H323RasPDU
libopal.so.3.10.11:_ZN17H323GatekeeperRRQ11OnHandlePDUEv
libopal.so.3.10.11:_ZN17H323GatekeeperRRQ15SetRejectReasonEj
libopal.so.3.10.11:_ZN17H323GatekeeperRRQC1ER22H323GatekeeperListenerRK10H323RasPDU
libopal.so.3.10.11:_ZN17H323GatekeeperRRQC2ER22H323GatekeeperListenerRK10H323RasPDU
libopal.so.3.10.11:_ZN17H323GatekeeperURQ11OnHandlePDUEv
libopal.so.3.10.11:_ZN17H323GatekeeperURQ15SetRejectReasonEj
libopal.so.3.10.11:_ZN17H323GatekeeperURQC1ER22H323GatekeeperListenerRK10H323RasPDU
libopal.so.3.10.11:_ZN17H323GatekeeperURQC2ER22H323GatekeeperListenerRK10H323RasPDU
libopal.so.3.10.11:_ZN17H323PresenceAlert18HandleNotificationEb
libopal.so.3.10.11:_ZN17H323PresenceAlive16HandleIdentifierEb
libopal.so.3.10.11:_ZN17H45011_CIIsOptArg6DecodeER11PASN_Stream
libopal.so.3.10.11:_ZN17H45011_CIIsOptArgC1EjN11PASN_Object8TagClassE
libopal.so.3.10.11:_ZN17H45011_CIIsOptArgC2EjN11PASN_Object8TagClassE
libopal.so.3.10.11:_ZN17H45011_CIIsOptRes6DecodeER11PASN_Stream
libopal.so.3.10.11:_ZN17H45011_CIIsOptResC1EjN11PASN_Object8TagClassE
libopal.so.3.10.11:_ZN17H45011_CIIsOptResC2EjN11PASN_Object8TagClassE
libopal.so.3.10.11:_ZN17H4501_ArrayOf_ROSC1EjN11PASN_Object8TagClassE
libopal.so.3.10.11:_ZN17H4501_ArrayOf_ROSC2EjN11PASN_Object8TagClassE
libopal.so.3.10.11:_ZN17H4501_InvokeIdSetC1EjN11PASN_Object8TagClassE
libopal.so.3.10.11:_ZN17H4501_InvokeIdSetC2EjN11PASN_Object8TagClassE
libopal.so.3.10.11:_ZN17H4501_InvokeIdSetaSEi
libopal.so.3.10.11:_ZN17H4501_InvokeIdSetaSEj
libopal.so.3.10.11:_ZN17H4502_CTActiveArg6DecodeER11PASN_Stream
libopal.so.3.10.11:_ZN17H4502_CTActiveArgC1EjN11PASN_Object8TagClassE
libopal.so.3.10.11:_ZN17H4502_CTActiveArgC2EjN11PASN_Object8TagClassE
libopal.so.3.10.11:_ZN17H4502_CTUpdateArg6DecodeER11PASN_Stream
libopal.so.3.10.11:_ZN17H4502_CTUpdateArgC1EjN11PASN_Object8TagClassE
libopal.so.3.10.11:_ZN17H4502_CTUpdateArgC2EjN11PASN_Object8TagClassE
libopal.so.3.10.11:_ZN17H4505_CpNotifyArg6DecodeER11PASN_Stream
libopal.so.3.10.11:_ZN17H4505_CpNotifyArgC1EjN11PASN_Object8TagClassE
libopal.so.3.10.11:_ZN17H4505_CpNotifyArgC2EjN11PASN_Object8TagClassE
libopal.so.3.10.11:_ZN17H4505_PickrequArg6DecodeER11PASN_Stream
libopal.so.3.10.11:_ZN17H4505_PickrequArgC1EjN11PASN_Object8TagClassE
libopal.so.3.10.11:_ZN17H4505_PickrequArgC2EjN11PASN_Object8TagClassE
libopal.so.3.10.11:_ZN17H4505_PickrequRes6DecodeER11PASN_Stream
libopal.so.3.10.11:_ZN17H4505_PickrequResC1EjN11PASN_Object8TagClassE
libopal.so.3.10.11:_ZN17H4505_PickrequResC2EjN11PASN_Object8TagClassE
libopal.so.3.10.11:_ZN17H4507_MsgCentreId12CreateObjectEv
libopal.so.3.10.11:_ZN17H4507_MsgCentreIdC1EjN11PASN_Object8TagClassE
libopal.so.3.10.11:_ZN17H4507_MsgCentreIdC2EjN11PASN_Object8TagClassE
libopal.so.3.10.11:_ZN17H4507_MsgCentreIdcvR21H4501_EndpointAddressEv
libopal.so.3.10.11:_ZN17H460_FeatureTable12AddParameterER24H225_EnumeratedParameter
libopal.so.3.10.11:_ZN17H460_FeatureTable12AddParameterERK14H460_FeatureID
libopal.so.3.10.11:_ZN17H460_FeatureTable12AddParameterERK14H460_FeatureIDRK19H460_FeatureContent
libopal.so.3.10.11:_ZN17H460_FeatureTable12GetParameterERK14H460_FeatureID
libopal.so.3.10.11:_ZN17H460_FeatureTable12GetParameterEi
libopal.so.3.10.11:_ZN17H460_FeatureTable12HasParameterERK14H460_FeatureID
libopal.so.3.10.11:_ZN17H460_FeatureTable15RemoveParameterERK14H460_FeatureID
libopal.so.3.10.11:_ZN17H460_FeatureTable15RemoveParameterEi
libopal.so.3.10.11:_ZN17H460_FeatureTable16ReplaceParameterERK14H460_FeatureIDRK19H460_FeatureContent
libopal.so.3.10.11:_ZN17H460_FeatureTable17GetParameterIndexERK14H460_FeatureID
libopal.so.3.10.11:_ZN17H460_FeatureTable17ParameterIsUniqueERK14H460_FeatureID
libopal.so.3.10.11:_ZN17H460_FeatureTableC1ERK32H225_ArrayOf_EnumeratedParameter
libopal.so.3.10.11:_ZN17H460_FeatureTableC1Ev
libopal.so.3.10.11:_ZN17H460_FeatureTableC2ERK32H225_ArrayOf_EnumeratedParameter
libopal.so.3.10.11:_ZN17H460_FeatureTableC2Ev
libopal.so.3.10.11:_ZN17H460_FeatureTableixEi
libopal.so.3.10.11:_ZN17H501AccessRequest11OnHandlePDUEv
libopal.so.3.10.11:_ZN17H501AccessRequest15SetRejectReasonEj
libopal.so.3.10.11:_ZN17H501AccessRequestC1ER15H323PeerElementRK7H501PDU
libopal.so.3.10.11:_ZN17H501AccessRequestC2ER15H323PeerElementRK7H501PDU
libopal.so.3.10.11:_ZN17H501_PriceElement6DecodeER11PASN_Stream
libopal.so.3.10.11:_ZN17H501_PriceElementC1EjN11PASN_Object8TagClassE
libopal.so.3.10.11:_ZN17H501_PriceElementC2EjN11PASN_Object8TagClassE
libopal.so.3.10.11:_ZN17H501_SecurityMode6DecodeER11PASN_Stream
libopal.so.3.10.11:_ZN17H501_SecurityModeC1EjN11PASN_Object8TagClassE
libopal.so.3.10.11:_ZN17H501_SecurityModeC2EjN11PASN_Object8TagClassE
libopal.so.3.10.11:_ZN17H501_UsageRequest6DecodeER11PASN_Stream
libopal.so.3.10.11:_ZN17H501_UsageRequestC1EjN11PASN_Object8TagClassE
libopal.so.3.10.11:_ZN17H501_UsageRequestC2EjN11PASN_Object8TagClassE
libopal.so.3.10.11:_ZN17IAX2CallProcessor10OnReleasedEv
libopal.so.3.10.11:_ZN17IAX2CallProcessor11SetAlertingERK7PStringb
libopal.so.3.10.11:_ZN17IAX2CallProcessor12ProcessListsEv
libopal.so.3.10.11:_ZN17IAX2CallProcessor12SendTransferERK7PStringS2_
libopal.so.3.10.11:_ZN17IAX2CallProcessor13DoStatusCheckEv
libopal.so.3.10.11:_ZN17IAX2CallProcessor13OnStatusCheckER6PTimerl
libopal.so.3.10.11:_ZN17IAX2CallProcessor14AnswerWasAckedEv
libopal.so.3.10.11:_ZN17IAX2CallProcessor14CallStopSoundsEv
libopal.so.3.10.11:_ZN17IAX2CallProcessor15RingingWasAckedEv
libopal.so.3.10.11:_ZN17IAX2CallProcessor15SendDtmfMessageEc
libopal.so.3.10.11:_ZN17IAX2CallProcessor15SendHoldReleaseEv
libopal.so.3.10.11:_ZN17IAX2CallProcessor15SendTextMessageER7PString
libopal.so.3.10.11:_ZN17IAX2CallProcessor15SetUpConnectionEv
libopal.so.3.10.11:_ZN17IAX2CallProcessor16AssignConnectionEP14IAX2Connection
libopal.so.3.10.11:_ZN17IAX2CallProcessor16ProcessFullFrameER13IAX2FullFrame
libopal.so.3.10.11:_ZN17IAX2CallProcessor16ProcessIaxCmdAckEP21IAX2FullFrameProtocol
libopal.so.3.10.11:_ZN17IAX2CallProcessor16ProcessIaxCmdMwiEP21IAX2FullFrameProtocol
libopal.so.3.10.11:_ZN17IAX2CallProcessor16ProcessIaxCmdNewEP21IAX2FullFrameProtocol
libopal.so.3.10.11:_ZN17IAX2CallProcessor16RemoteNodeIsBusyEv
libopal.so.3.10.11:_ZN17IAX2CallProcessor16ReportStatisticsEv
libopal.so.3.10.11:_ZN17IAX2CallProcessor16SendSoundMessageEP10PBYTEArray
libopal.so.3.10.11:_ZN17IAX2CallProcessor17ProcessIaxCmdDialEP21IAX2FullFrameProtocol
libopal.so.3.10.11:_ZN17IAX2CallProcessor17ProcessIaxCmdPageEP21IAX2FullFrameProtocol
libopal.so.3.10.11:_ZN17IAX2CallProcessor17ReceivedHookFlashEv
libopal.so.3.10.11:_ZN17IAX2CallProcessor17SendQuelchMessageEv
libopal.so.3.10.11:_ZN17IAX2CallProcessor18AcceptIncomingCallEv
libopal.so.3.10.11:_ZN17IAX2CallProcessor18ProcessIaxCmdDpRepEP21IAX2FullFrameProtocol
libopal.so.3.10.11:_ZN17IAX2CallProcessor18ProcessIaxCmdDpReqEP21IAX2FullFrameProtocol
libopal.so.3.10.11:_ZN17IAX2CallProcessor18ProcessIaxCmdInvalEP21IAX2FullFrameProtocol
libopal.so.3.10.11:_ZN17IAX2CallProcessor18ProcessIaxCmdTxaccEP21IAX2FullFrameProtocol
libopal.so.3.10.11:_ZN17IAX2CallProcessor18ProcessIaxCmdTxcntEP21IAX2FullFrameProtocol
libopal.so.3.10.11:_ZN17IAX2CallProcessor18ProcessIaxCmdTxrejEP21IAX2FullFrameProtocol
libopal.so.3.10.11:_ZN17IAX2CallProcessor18ProcessIaxCmdTxrelEP21IAX2FullFrameProtocol
libopal.so.3.10.11:_ZN17IAX2CallProcessor18ProcessIaxCmdTxreqEP21IAX2FullFrameProtocol
libopal.so.3.10.11:_ZN17IAX2CallProcessor19ConnectToRemoteNodeER7PString
libopal.so.3.10.11:_ZN17IAX2CallProcessor19OnNoResponseTimeoutEv
libopal.so.3.10.11:_ZN17IAX2CallProcessor19ProcessIaxCmdAcceptEP21IAX2FullFrameProtocol
libopal.so.3.10.11:_ZN17IAX2CallProcessor19ProcessIaxCmdFwDataEP21IAX2FullFrameProtocol
libopal.so.3.10.11:_ZN17IAX2CallProcessor19ProcessIaxCmdHangupEP21IAX2FullFrameProtocol
libopal.so.3.10.11:_ZN17IAX2CallProcessor19ProcessIaxCmdQuelchEP21IAX2FullFrameProtocol
libopal.so.3.10.11:_ZN17IAX2CallProcessor19ProcessIaxCmdRejectEP21IAX2FullFrameProtocol
libopal.so.3.10.11:_ZN17IAX2CallProcessor19ProcessNetworkFrameEP13IAX2FullFrame
libopal.so.3.10.11:_ZN17IAX2CallProcessor19ProcessNetworkFrameEP13IAX2MiniFrame
libopal.so.3.10.11:_ZN17IAX2CallProcessor19ProcessNetworkFrameEP16IAX2FullFrameCng
libopal.so.3.10.11:_ZN17IAX2CallProcessor19ProcessNetworkFrameEP17IAX2FullFrameDtmf
libopal.so.3.10.11:_ZN17IAX2CallProcessor19ProcessNetworkFrameEP17IAX2FullFrameHtml
libopal.so.3.10.11:_ZN17IAX2CallProcessor19ProcessNetworkFrameEP17IAX2FullFrameNull
libopal.so.3.10.11:_ZN17IAX2CallProcessor19ProcessNetworkFrameEP17IAX2FullFrameText
libopal.so.3.10.11:_ZN17IAX2CallProcessor19ProcessNetworkFrameEP18IAX2FullFrameImage
libopal.so.3.10.11:_ZN17IAX2CallProcessor19ProcessNetworkFrameEP18IAX2FullFrameVideo
libopal.so.3.10.11:_ZN17IAX2CallProcessor19ProcessNetworkFrameEP18IAX2FullFrameVoice
libopal.so.3.10.11:_ZN17IAX2CallProcessor19ProcessNetworkFrameEP21IAX2FullFrameProtocol
libopal.so.3.10.11:_ZN17IAX2CallProcessor19ProcessNetworkFrameEP27IAX2FullFrameSessionControl
libopal.so.3.10.11:_ZN17IAX2CallProcessor19ProcessNetworkFrameEP9IAX2Frame
libopal.so.3.10.11:_ZN17IAX2CallProcessor19RemoteNodeIsRingingEv
libopal.so.3.10.11:_ZN17IAX2CallProcessor19SendTransferMessageEv
libopal.so.3.10.11:_ZN17IAX2CallProcessor19SendUnQuelchMessageEv
libopal.so.3.10.11:_ZN17IAX2CallProcessor20ProcessIaxCmdAuthRepEP21IAX2FullFrameProtocol
libopal.so.3.10.11:_ZN17IAX2CallProcessor20ProcessIaxCmdAuthReqEP21IAX2FullFrameProtocol
libopal.so.3.10.11:_ZN17IAX2CallProcessor20ProcessIaxCmdFwDownlEP21IAX2FullFrameProtocol
libopal.so.3.10.11:_ZN17IAX2CallProcessor20ProcessIaxCmdTxreadyEP21IAX2FullFrameProtocol
libopal.so.3.10.11:_ZN17IAX2CallProcessor21ProcessIaxCmdTransferEP21IAX2FullFrameProtocol
libopal.so.3.10.11:_ZN17IAX2CallProcessor21ProcessIaxCmdUnquelchEP21IAX2FullFrameProtocol
libopal.so.3.10.11:_ZN17IAX2CallProcessor21RemoteNodeHasAnsweredEv
libopal.so.3.10.11:_ZN17IAX2CallProcessor21RemoteSelectedCodecOkEv
libopal.so.3.10.11:_ZN17IAX2CallProcessor21StartStatusCheckTimerEi
libopal.so.3.10.11:_ZN17IAX2CallProcessor22CheckForHangupMessagesEv
libopal.so.3.10.11:_ZN17IAX2CallProcessor22ProcessIaxCmdCallTokenEP21IAX2FullFrameProtocol
libopal.so.3.10.11:_ZN17IAX2CallProcessor22ProcessIaxCmdProvisionEP21IAX2FullFrameProtocol
libopal.so.3.10.11:_ZN17IAX2CallProcessor22ProcessIaxCmdUnsupportEP21IAX2FullFrameProtocol
libopal.so.3.10.11:_ZN17IAX2CallProcessor23BuildNewFrameForSendingEP21IAX2FullFrameProtocol
libopal.so.3.10.11:_ZN17IAX2CallProcessor23PutSoundPacketToNetworkEP10PBYTEArray
libopal.so.3.10.11:_ZN17IAX2CallProcessor25IncomingMessageOutOfOrderEP13IAX2FullFrame
libopal.so.3.10.11:_ZN17IAX2CallProcessor25ProcessIncomingAudioFrameEP9IAX2Frame
libopal.so.3.10.11:_ZN17IAX2CallProcessor25ProcessIncomingVideoFrameEP9IAX2Frame
libopal.so.3.10.11:_ZN17IAX2CallProcessor26CheckForRemoteCapabilitiesEP21IAX2FullFrameProtocol
libopal.so.3.10.11:_ZN17IAX2CallProcessor29SendAnswerMessageToRemoteNodeEv
libopal.so.3.10.11:_ZN17IAX2CallProcessor6HangupE7PString
libopal.so.3.10.11:_ZN17IAX2CallProcessor8SendDtmfERK7PString
libopal.so.3.10.11:_ZN17IAX2CallProcessor8SendHoldEv
libopal.so.3.10.11:_ZN17IAX2CallProcessor8SendTextERK7PString
libopal.so.3.10.11:_ZN17IAX2CallProcessor9ClearCallEN14OpalConnection13CallEndReasonE
libopal.so.3.10.11:_ZN17IAX2CallProcessorC1ER12IAX2EndPoint
libopal.so.3.10.11:_ZN17IAX2CallProcessorC2ER12IAX2EndPoint
libopal.so.3.10.11:_ZN17IAX2CallProcessorD0Ev
libopal.so.3.10.11:_ZN17IAX2CallProcessorD1Ev
libopal.so.3.10.11:_ZN17IAX2CallProcessorD2Ev
libopal.so.3.10.11:_ZN17IAX2FullFrameDtmfC1EP13IAX2Processor7PString
libopal.so.3.10.11:_ZN17IAX2FullFrameDtmfC1EP13IAX2Processorc
libopal.so.3.10.11:_ZN17IAX2FullFrameDtmfC1ERK13IAX2FullFrame
libopal.so.3.10.11:_ZN17IAX2FullFrameDtmfC1ERK9IAX2Frame
libopal.so.3.10.11:_ZN17IAX2FullFrameDtmfC2EP13IAX2Processor7PString
libopal.so.3.10.11:_ZN17IAX2FullFrameDtmfC2EP13IAX2Processorc
libopal.so.3.10.11:_ZN17IAX2FullFrameDtmfC2ERK13IAX2FullFrame
libopal.so.3.10.11:_ZN17IAX2FullFrameDtmfC2ERK9IAX2Frame
libopal.so.3.10.11:_ZN17IAX2FullFrameHtmlC1ERK13IAX2FullFrame
libopal.so.3.10.11:_ZN17IAX2FullFrameHtmlC1ERK9IAX2Frame
libopal.so.3.10.11:_ZN17IAX2FullFrameHtmlC2ERK13IAX2FullFrame
libopal.so.3.10.11:_ZN17IAX2FullFrameHtmlC2ERK9IAX2Frame
libopal.so.3.10.11:_ZN17IAX2FullFrameNullC1ERK13IAX2FullFrame
libopal.so.3.10.11:_ZN17IAX2FullFrameNullC1ERK9IAX2Frame
libopal.so.3.10.11:_ZN17IAX2FullFrameNullC2ERK13IAX2FullFrame
libopal.so.3.10.11:_ZN17IAX2FullFrameNullC2ERK9IAX2Frame
libopal.so.3.10.11:_ZN17IAX2FullFrameTextC1EP13IAX2ProcessorRK7PString
libopal.so.3.10.11:_ZN17IAX2FullFrameTextC1ERK13IAX2FullFrame
libopal.so.3.10.11:_ZN17IAX2FullFrameTextC1ERK9IAX2Frame
libopal.so.3.10.11:_ZN17IAX2FullFrameTextC2EP13IAX2ProcessorRK7PString
libopal.so.3.10.11:_ZN17IAX2FullFrameTextC2ERK13IAX2FullFrame
libopal.so.3.10.11:_ZN17IAX2FullFrameTextC2ERK9IAX2Frame
libopal.so.3.10.11:_ZN17IAX2IeBlockOfData11WriteBinaryEPh
libopal.so.3.10.11:_ZN17IAX2IeBlockOfDataC1EhPh
libopal.so.3.10.11:_ZN17IAX2IeBlockOfDataC2EhPh
libopal.so.3.10.11:_ZN17IAX2IeDateAndTime11WriteBinaryEPh
libopal.so.3.10.11:_ZN17IAX2IeDateAndTimeC1EhPh
libopal.so.3.10.11:_ZN17IAX2IeDateAndTimeC2EhPh
libopal.so.3.10.11:_ZN17IAX2WaitingForAck10ZeroValuesEv
libopal.so.3.10.11:_ZN17IAX2WaitingForAck17MatchingAckPacketEP13IAX2FullFrame
libopal.so.3.10.11:_ZN17IAX2WaitingForAck6AssignEP13IAX2FullFrameNS_13ResponseToAckE
libopal.so.3.10.11:_ZN17IAX2WaitingForAckC1Ev
libopal.so.3.10.11:_ZN17IAX2WaitingForAckC2Ev
libopal.so.3.10.11:_ZN17OpalFaxConnection10OnReleasedEv
libopal.so.3.10.11:_ZN17OpalFaxConnection13OnEstablishedEv
libopal.so.3.10.11:_ZN17OpalFaxConnection14OnFaxCompletedEb
libopal.so.3.10.11:_ZN17OpalFaxConnection14OpenFaxStreamsER7PThreadl
libopal.so.3.10.11:_ZN17OpalFaxConnection15OnSwitchTimeoutER6PTimerl
libopal.so.3.10.11:_ZN17OpalFaxConnection15OnUserInputToneEcj
libopal.so.3.10.11:_ZN17OpalFaxConnection16OnStopMediaPatchER14OpalMediaPatch
libopal.so.3.10.11:_ZN17OpalFaxConnection17CreateMediaStreamERK15OpalMediaFormatjb
libopal.so.3.10.11:_ZN17OpalFaxConnection17OnStartMediaPatchER14OpalMediaPatch
libopal.so.3.10.11:_ZN17OpalFaxConnection17SendUserInputToneEcj
libopal.so.3.10.11:_ZN17OpalFaxConnection21SwitchFaxMediaStreamsEb
libopal.so.3.10.11:_ZN17OpalFaxConnection25OnSwitchedFaxMediaStreamsEbb
libopal.so.3.10.11:_ZN17OpalFaxConnection26OnSwitchingFaxMediaStreamsEb
libopal.so.3.10.11:_ZN17OpalFaxConnectionC1ER8OpalCallR15OpalFaxEndPointRK7PStringbbPN14OpalConnection13StringOptionsE
libopal.so.3.10.11:_ZN17OpalFaxConnectionC2ER8OpalCallR15OpalFaxEndPointRK7PStringbbPN14OpalConnection13StringOptionsE
libopal.so.3.10.11:_ZN17OpalFaxConnectionD0Ev
libopal.so.3.10.11:_ZN17OpalFaxConnectionD1Ev
libopal.so.3.10.11:_ZN17OpalFaxConnectionD2Ev
libopal.so.3.10.11:_ZN17OpalH224MediaType25CreateSDPMediaDescriptionERK20OpalTransportAddress
libopal.so.3.10.11:_ZN17OpalH224MediaType9MediaTypeEv
libopal.so.3.10.11:_ZN17OpalH224MediaTypeC1Ev
libopal.so.3.10.11:_ZN17OpalH224MediaTypeC2Ev
libopal.so.3.10.11:_ZN17OpalIMMediaStream10ReadPacketER13RTP_DataFrame
libopal.so.3.10.11:_ZN17OpalIMMediaStream11WritePacketER13RTP_DataFrame
libopal.so.3.10.11:_ZN17OpalIMMediaStreamC1ER14OpalConnectionRK15OpalMediaFormatjb
libopal.so.3.10.11:_ZN17OpalIMMediaStreamC2ER14OpalConnectionRK15OpalMediaFormatjb
libopal.so.3.10.11:_ZN17OpalIVRConnection11OnEndDialogEv
libopal.so.3.10.11:_ZN17OpalIVRConnection11StartScriptERK7PString
libopal.so.3.10.11:_ZN17OpalIVRConnection13OnEstablishedEv
libopal.so.3.10.11:_ZN17OpalIVRConnection16OnTransferNotifyERK15PStringToStringPK14OpalConnection
libopal.so.3.10.11:_ZN17OpalIVRConnection17CreateMediaStreamERK15OpalMediaFormatjb
libopal.so.3.10.11:_ZN17OpalIVRConnection18TransferConnectionERK7PString
libopal.so.3.10.11:_ZN17OpalIVRConnection19SendUserInputStringERK7PString
libopal.so.3.10.11:_ZN17OpalIVRConnection9StartVXMLERK7PString
libopal.so.3.10.11:_ZN17OpalIVRConnectionC1ER8OpalCallR15OpalIVREndPointPvRK7PStringjPN14OpalConnection13StringOptionsE
libopal.so.3.10.11:_ZN17OpalIVRConnectionC2ER8OpalCallR15OpalIVREndPointPvRK7PStringjPN14OpalConnection13StringOptionsE
libopal.so.3.10.11:_ZN17OpalIVRConnectionD0Ev
libopal.so.3.10.11:_ZN17OpalIVRConnectionD1Ev
libopal.so.3.10.11:_ZN17OpalIVRConnectionD2Ev
libopal.so.3.10.11:_ZN17OpalIVREndPoint_C11OnEndDialogER17OpalIVRConnection
libopal.so.3.10.11:_ZN17OpalIVREndPoint_C14OnIncomingCallER19OpalLocalConnection
libopal.so.3.10.11:_ZN17OpalIVREndPoint_C14OnOutgoingCallERK19OpalLocalConnection
libopal.so.3.10.11:_ZN17OpalIVREndPoint_CC1ER13OpalManager_C
libopal.so.3.10.11:_ZN17OpalIVREndPoint_CC2ER13OpalManager_C
libopal.so.3.10.11:_ZN17OpalLocalEndPoint11OnUserInputERK19OpalLocalConnectionRK7PString
libopal.so.3.10.11:_ZN17OpalLocalEndPoint14MakeConnectionER8OpalCallRK7PStringPvjPN14OpalConnection13StringOptionsE
libopal.so.3.10.11:_ZN17OpalLocalEndPoint14OnIncomingCallER19OpalLocalConnection
libopal.so.3.10.11:_ZN17OpalLocalEndPoint14OnOutgoingCallERK19OpalLocalConnection
libopal.so.3.10.11:_ZN17OpalLocalEndPoint15OnOutgoingSetUpERK19OpalLocalConnection
libopal.so.3.10.11:_ZN17OpalLocalEndPoint15OnReadMediaDataERK19OpalLocalConnectionRK15OpalMediaStreamPviRi
libopal.so.3.10.11:_ZN17OpalLocalEndPoint16CreateConnectionER8OpalCallPvjPN14OpalConnection13StringOptionsE
libopal.so.3.10.11:_ZN17OpalLocalEndPoint16OnReadMediaFrameERK19OpalLocalConnectionRK15OpalMediaStreamR13RTP_DataFrame
libopal.so.3.10.11:_ZN17OpalLocalEndPoint16OnWriteMediaDataERK19OpalLocalConnectionRK15OpalMediaStreamPKviRi
libopal.so.3.10.11:_ZN17OpalLocalEndPoint17OnWriteMediaFrameERK19OpalLocalConnectionRK15OpalMediaStreamR13RTP_DataFrame
libopal.so.3.10.11:_ZN17OpalLocalEndPoint18AcceptIncomingCallERK7PStringPN14OpalConnection13StringOptionsE
libopal.so.3.10.11:_ZN17OpalLocalEndPoint18RejectIncomingCallERK7PStringRKN14OpalConnection13CallEndReasonE
libopal.so.3.10.11:_ZN17OpalLocalEndPoint20AlertingIncomingCallERK7PStringPN14OpalConnection13StringOptionsE
libopal.so.3.10.11:_ZN17OpalLocalEndPointC1ER11OpalManagerPKc
libopal.so.3.10.11:_ZN17OpalLocalEndPointC2ER11OpalManagerPKc
libopal.so.3.10.11:_ZN17OpalLocalEndPointD0Ev
libopal.so.3.10.11:_ZN17OpalLocalEndPointD1Ev
libopal.so.3.10.11:_ZN17OpalLocalEndPointD2Ev
libopal.so.3.10.11:_ZN17OpalMSRPMediaType25CreateSDPMediaDescriptionERK20OpalTransportAddress
libopal.so.3.10.11:_ZN17OpalMSRPMediaTypeC1Ev
libopal.so.3.10.11:_ZN17OpalMSRPMediaTypeC2Ev
libopal.so.3.10.11:_ZN17OpalMessageBuffer6DetachEv
libopal.so.3.10.11:_ZN17OpalMessageBuffer8SetErrorEPKc
libopal.so.3.10.11:_ZN17OpalMessageBuffer9SetStringEPPKcS1_
libopal.so.3.10.11:_ZN17OpalMessageBufferC1E15OpalMessageType
libopal.so.3.10.11:_ZN17OpalMessageBufferC2E15OpalMessageType
libopal.so.3.10.11:_ZN17OpalMessageBufferD1Ev
libopal.so.3.10.11:_ZN17OpalMessageBufferD2Ev
libopal.so.3.10.11:_ZN17OpalMixerEndPoint10CreateNodeEP17OpalMixerNodeInfo
libopal.so.3.10.11:_ZN17OpalMixerEndPoint14MakeConnectionER8OpalCallRK7PStringPvjPN14OpalConnection13StringOptionsE
libopal.so.3.10.11:_ZN17OpalMixerEndPoint16CreateConnectionE8PSafePtrI13OpalMixerNode12PSafePtrBaseER8OpalCallPvjPN14OpalConnection13StringOptionsE
libopal.so.3.10.11:_ZN17OpalMixerEndPoint16SetAdHocNodeInfoEP17OpalMixerNodeInfo
libopal.so.3.10.11:_ZN17OpalMixerEndPoint16SetAdHocNodeInfoERK17OpalMixerNodeInfo
libopal.so.3.10.11:_ZN17OpalMixerEndPoint17GarbageCollectionEv
libopal.so.3.10.11:_ZN17OpalMixerEndPoint7AddNodeEP17OpalMixerNodeInfo
libopal.so.3.10.11:_ZN17OpalMixerEndPoint8ShutDownEv
libopal.so.3.10.11:_ZN17OpalMixerEndPointC1ER11OpalManagerPKc
libopal.so.3.10.11:_ZN17OpalMixerEndPointC2ER11OpalManagerPKc
libopal.so.3.10.11:_ZN17OpalMixerEndPointD0Ev
libopal.so.3.10.11:_ZN17OpalMixerEndPointD1Ev
libopal.so.3.10.11:_ZN17OpalMixerEndPointD2Ev
libopal.so.3.10.11:_ZN17OpalPluginControlC1EPK22PluginCodec_DefinitionPKc
libopal.so.3.10.11:_ZN17OpalPluginControlC2EPK22PluginCodec_DefinitionPKc
libopal.so.3.10.11:_ZN17OpalRTPConnection10OnReleasedEv
libopal.so.3.10.11:_ZN17OpalRTPConnection10UseSessionERK13OpalTransportjRK13OpalMediaTypeP7RTP_QOS
libopal.so.3.10.11:_ZN17OpalRTPConnection12CloseSessionEj
libopal.so.3.10.11:_ZN17OpalRTPConnection13CreateSessionERK13OpalTransportjRK13OpalMediaTypeP7RTP_QOS
libopal.so.3.10.11:_ZN17OpalRTPConnection14OnMediaCommandER15OpalMediaStreamRK16OpalMediaCommand
libopal.so.3.10.11:_ZN17OpalRTPConnection14SessionFailingER11RTP_Session
libopal.so.3.10.11:_ZN17OpalRTPConnection15ChangeSessionIDEjj
libopal.so.3.10.11:_ZN17OpalRTPConnection15IsRTPNATEnabledERKN9PIPSocket7AddressES3_S3_b
libopal.so.3.10.11:_ZN17OpalRTPConnection16CreateRTPSessionEjRK13OpalMediaTypeb
libopal.so.3.10.11:_ZN17OpalRTPConnection16GetNextSessionIDERK13OpalMediaTypeb
libopal.so.3.10.11:_ZN17OpalRTPConnection17CreateMediaStreamERK15OpalMediaFormatjb
libopal.so.3.10.11:_ZN17OpalRTPConnection17SendUserInputToneEcj
libopal.so.3.10.11:_ZN17OpalRTPConnection18OnPatchMediaStreamEbR14OpalMediaPatch
libopal.so.3.10.11:_ZN17OpalRTPConnection24OnUserInputInlineRFC2833ER15OpalRFC2833Infol
libopal.so.3.10.11:_ZN17OpalRTPConnection25OnUserInputInlineCiscoNSEER15OpalRFC2833Infol
libopal.so.3.10.11:_ZN17OpalRTPConnection27AttachRFC2833HandlerToPatchEbR14OpalMediaPatch
libopal.so.3.10.11:_ZN17OpalRTPConnectionC1ER8OpalCallR15OpalRTPEndPointRK7PStringjPN14OpalConnection13StringOptionsE
libopal.so.3.10.11:_ZN17OpalRTPConnectionC2ER8OpalCallR15OpalRTPEndPointRK7PStringjPN14OpalConnection13StringOptionsE
libopal.so.3.10.11:_ZN17OpalRTPConnectionD0Ev
libopal.so.3.10.11:_ZN17OpalRTPConnectionD1Ev
libopal.so.3.10.11:_ZN17OpalRTPConnectionD2Ev
libopal.so.3.10.11:_ZN17OpalT140MediaType25CreateSDPMediaDescriptionERK20OpalTransportAddress
libopal.so.3.10.11:_ZN17OpalT140MediaTypeC1Ev
libopal.so.3.10.11:_ZN17OpalT140MediaTypeC2Ev
libopal.so.3.10.11:_ZN17OpalTransportTCPS6OnOpenEv
libopal.so.3.10.11:_ZN17OpalTransportTCPS7ConnectEv
libopal.so.3.10.11:_ZN17OpalTransportTCPSC1ER12OpalEndPointN9PIPSocket7AddressEtb
libopal.so.3.10.11:_ZN17OpalTransportTCPSC1ER12OpalEndPointP10PTCPSocket
libopal.so.3.10.11:_ZN17OpalTransportTCPSC2ER12OpalEndPointN9PIPSocket7AddressEtb
libopal.so.3.10.11:_ZN17OpalTransportTCPSC2ER12OpalEndPointP10PTCPSocket
libopal.so.3.10.11:_ZN17OpalTransportTCPSD0Ev
libopal.so.3.10.11:_ZN17OpalTransportTCPSD1Ev
libopal.so.3.10.11:_ZN17OpalTransportTCPSD2Ev
libopal.so.3.10.11:_ZN17SIPMessageHandler12OnReceivedOKER14SIPTransactionR7SIP_PDU
libopal.so.3.10.11:_ZN17SIPMessageHandler16UpdateParametersERKN10SIPMessage6ParamsE
libopal.so.3.10.11:_ZN17SIPMessageHandler17CreateTransactionER13OpalTransport
libopal.so.3.10.11:_ZN17SIPMessageHandler8OnFailedEN7SIP_PDU11StatusCodesE
libopal.so.3.10.11:_ZN17SIPMessageHandlerC1ER11SIPEndPointRKN10SIPMessage6ParamsE
libopal.so.3.10.11:_ZN17SIPMessageHandlerC2ER11SIPEndPointRKN10SIPMessage6ParamsE
libopal.so.3.10.11:_ZN17SIPOptionsHandler12OnReceivedOKER14SIPTransactionR7SIP_PDU
libopal.so.3.10.11:_ZN17SIPOptionsHandler17CreateTransactionER13OpalTransport
libopal.so.3.10.11:_ZN17SIPOptionsHandler8OnFailedEN7SIP_PDU11StatusCodesE
libopal.so.3.10.11:_ZN17SIPOptionsHandler8OnFailedERK7SIP_PDU
libopal.so.3.10.11:_ZN17SIPOptionsHandlerC1ER11SIPEndPointRKN10SIPOptions6ParamsE
libopal.so.3.10.11:_ZN17SIPOptionsHandlerC2ER11SIPEndPointRKN10SIPOptions6ParamsE
libopal.so.3.10.11:_ZN17SIPPublishHandler12OnReceivedOKER14SIPTransactionR7SIP_PDU
libopal.so.3.10.11:_ZN17SIPPublishHandler17CreateTransactionER13OpalTransport
libopal.so.3.10.11:_ZN17SIPPublishHandlerC1ER11SIPEndPointRKN12SIPSubscribe6ParamsERK7PString
libopal.so.3.10.11:_ZN17SIPPublishHandlerC2ER11SIPEndPointRKN12SIPSubscribe6ParamsERK7PString
libopal.so.3.10.11:_ZN17X880_ReturnResult6DecodeER11PASN_Stream
libopal.so.3.10.11:_ZN17X880_ReturnResultC1EjN11PASN_Object8TagClassE
libopal.so.3.10.11:_ZN17X880_ReturnResultC2EjN11PASN_Object8TagClassE
libopal.so.3.10.11:_ZN18H225_Alerting_UUIE6DecodeER11PASN_Stream
libopal.so.3.10.11:_ZN18H225_Alerting_UUIEC1EjN11PASN_Object8TagClassE
libopal.so.3.10.11:_ZN18H225_Alerting_UUIEC2EjN11PASN_Object8TagClassE
libopal.so.3.10.11:_ZN18H225_EncryptIntAlg12CreateObjectEv
libopal.so.3.10.11:_ZN18H225_EncryptIntAlgC1EjN11PASN_Object8TagClassE
libopal.so.3.10.11:_ZN18H225_EncryptIntAlgC2EjN11PASN_Object8TagClassE
libopal.so.3.10.11:_ZN18H225_EncryptIntAlgcvR25H225_NonStandardParameterEv
libopal.so.3.10.11:_ZN18H225_Facility_UUIE6DecodeER11PASN_Stream
libopal.so.3.10.11:_ZN18H225_Facility_UUIEC1EjN11PASN_Object8TagClassE
libopal.so.3.10.11:_ZN18H225_Facility_UUIEC2EjN11PASN_Object8TagClassE
libopal.so.3.10.11:_ZN18H225_Progress_UUIE6DecodeER11PASN_Stream
libopal.so.3.10.11:_ZN18H225_Progress_UUIEC1EjN11PASN_Object8TagClassE
libopal.so.3.10.11:_ZN18H225_Progress_UUIEC2EjN11PASN_Object8TagClassE
libopal.so.3.10.11:_ZN18H225_RehomingModel12CreateObjectEv
libopal.so.3.10.11:_ZN18H225_RehomingModelC1EjN11PASN_Object8TagClassE
libopal.so.3.10.11:_ZN18H225_RehomingModelC2EjN11PASN_Object8TagClassE
libopal.so.3.10.11:_ZN18H225_RequestSeqNumC1EjN11PASN_Object8TagClassE
libopal.so.3.10.11:_ZN18H225_RequestSeqNumC2EjN11PASN_Object8TagClassE
libopal.so.3.10.11:_ZN18H225_RequestSeqNumaSEi
libopal.so.3.10.11:_ZN18H225_RequestSeqNumaSEj
libopal.so.3.10.11:_ZN18H235AuthProcedure112IsCapabilityERK28H235_AuthenticationMechanismRK13PASN_ObjectId
libopal.so.3.10.11:_ZN18H235AuthProcedure113SetCapabilityER36H225_ArrayOf_AuthenticationMechanismR26H225_ArrayOf_PASN_ObjectId
libopal.so.3.10.11:_ZN18H235AuthProcedure117CreateCryptoTokenEb
libopal.so.3.10.11:_ZN18H235AuthProcedure119ValidateCryptoTokenERK20H225_CryptoH323TokenRK10PBYTEArray
libopal.so.3.10.11:_ZN18H235AuthProcedure18FinaliseER10PBYTEArray
libopal.so.3.10.11:_ZN18H235AuthProcedure1C1Ev
libopal.so.3.10.11:_ZN18H235AuthProcedure1C2Ev
libopal.so.3.10.11:_ZN18H235Authenticators10PreparePDUER18H323TransactionPDUR10PASN_ArrayjS3_j
libopal.so.3.10.11:_ZN18H235Authenticators11ValidatePDUERK18H323TransactionPDURK10PASN_ArrayjS5_jRK10PBYTEArray
libopal.so.3.10.11:_ZN18H245NegRequestMode12HandleRejectERK22H245_RequestModeReject
libopal.so.3.10.11:_ZN18H245NegRequestMode12StartRequestERK28H245_ArrayOf_ModeDescription
libopal.so.3.10.11:_ZN18H245NegRequestMode12StartRequestERK7PString
libopal.so.3.10.11:_ZN18H245NegRequestMode13HandleReleaseERK23H245_RequestModeRelease
libopal.so.3.10.11:_ZN18H245NegRequestMode13HandleRequestERK16H245_RequestMode
libopal.so.3.10.11:_ZN18H245NegRequestMode13HandleTimeoutEv
libopal.so.3.10.11:_ZN18H245NegRequestMode9HandleAckERK19H245_RequestModeAck
libopal.so.3.10.11:_ZN18H245NegRequestModeC1ER12H323EndPointR14H323Connection
libopal.so.3.10.11:_ZN18H245NegRequestModeC2ER12H323EndPointR14H323Connection
libopal.so.3.10.11:_ZN18H245_ATMParameters6DecodeER11PASN_Stream
libopal.so.3.10.11:_ZN18H245_ATMParametersC1EjN11PASN_Object8TagClassE
libopal.so.3.10.11:_ZN18H245_ATMParametersC2EjN11PASN_Object8TagClassE
libopal.so.3.10.11:_ZN18H245_FECCapability6DecodeER11PASN_Stream
libopal.so.3.10.11:_ZN18H245_FECCapabilityC1EjN11PASN_Object8TagClassE
libopal.so.3.10.11:_ZN18H245_FECCapabilityC2EjN11PASN_Object8TagClassE
libopal.so.3.10.11:_ZN18H245_H261VideoMode6DecodeER11PASN_Stream
libopal.so.3.10.11:_ZN18H245_H261VideoModeC1EjN11PASN_Object8TagClassE
libopal.so.3.10.11:_ZN18H245_H261VideoModeC2EjN11PASN_Object8TagClassE
libopal.so.3.10.11:_ZN18H245_H262VideoMode6DecodeER11PASN_Stream
libopal.so.3.10.11:_ZN18H245_H262VideoModeC1EjN11PASN_Object8TagClassE
libopal.so.3.10.11:_ZN18H245_H262VideoModeC2EjN11PASN_Object8TagClassE
libopal.so.3.10.11:_ZN18H245_H263VideoMode6DecodeER11PASN_Stream
libopal.so.3.10.11:_ZN18H245_H263VideoModeC1EjN11PASN_Object8TagClassE
libopal.so.3.10.11:_ZN18H245_H263VideoModeC2EjN11PASN_Object8TagClassE
libopal.so.3.10.11:_ZN18H245_MaxRedundancyC1EjN11PASN_Object8TagClassE
libopal.so.3.10.11:_ZN18H245_MaxRedundancyC2EjN11PASN_Object8TagClassE
libopal.so.3.10.11:_ZN18H245_MaxRedundancyaSEi
libopal.so.3.10.11:_ZN18H245_MaxRedundancyaSEj
libopal.so.3.10.11:_ZN18H245_QOSCapability6DecodeER11PASN_Stream
libopal.so.3.10.11:_ZN18H245_QOSCapabilityC1EjN11PASN_Object8TagClassE
libopal.so.3.10.11:_ZN18H245_QOSCapabilityC2EjN11PASN_Object8TagClassE
libopal.so.3.10.11:_ZN18H245_QOSDescriptor6DecodeER11PASN_Stream
libopal.so.3.10.11:_ZN18H245_QOSDescriptorC1EjN11PASN_Object8TagClassE
libopal.so.3.10.11:_ZN18H245_QOSDescriptorC2EjN11PASN_Object8TagClassE
libopal.so.3.10.11:_ZN18H245_T38FaxProfile6DecodeER11PASN_Stream
libopal.so.3.10.11:_ZN18H245_T38FaxProfileC1EjN11PASN_Object8TagClassE
libopal.so.3.10.11:_ZN18H245_T38FaxProfileC2EjN11PASN_Object8TagClassE
libopal.so.3.10.11:_ZN18H245_TerminalLabel6DecodeER11PASN_Stream
libopal.so.3.10.11:_ZN18H245_TerminalLabelC1EjN11PASN_Object8TagClassE
libopal.so.3.10.11:_ZN18H245_TerminalLabelC2EjN11PASN_Object8TagClassE
libopal.so.3.10.11:_ZN18H245_V75Capability6DecodeER11PASN_Stream
libopal.so.3.10.11:_ZN18H245_V75CapabilityC1EjN11PASN_Object8TagClassE
libopal.so.3.10.11:_ZN18H245_V75CapabilityC2EjN11PASN_Object8TagClassE
libopal.so.3.10.11:_ZN18H245_V75Parameters6DecodeER11PASN_Stream
libopal.so.3.10.11:_ZN18H245_V75ParametersC1EjN11PASN_Object8TagClassE
libopal.so.3.10.11:_ZN18H245_V75ParametersC2EjN11PASN_Object8TagClassE
libopal.so.3.10.11:_ZN18H245_V76Capability6DecodeER11PASN_Stream
libopal.so.3.10.11:_ZN18H245_V76CapabilityC1EjN11PASN_Object8TagClassE
libopal.so.3.10.11:_ZN18H245_V76CapabilityC2EjN11PASN_Object8TagClassE
libopal.so.3.10.11:_ZN18H245_VBDCapability6DecodeER11PASN_Stream
libopal.so.3.10.11:_ZN18H245_VBDCapabilityC1EjN11PASN_Object8TagClassE
libopal.so.3.10.11:_ZN18H245_VBDCapabilityC2EjN11PASN_Object8TagClassE
libopal.so.3.10.11:_ZN18H248_ActionRequest6DecodeER11PASN_Stream
libopal.so.3.10.11:_ZN18H248_ActionRequestC1EjN11PASN_Object8TagClassE
libopal.so.3.10.11:_ZN18H248_ActionRequestC2EjN11PASN_Object8TagClassE
libopal.so.3.10.11:_ZN18H248_AmmDescriptor12CreateObjectEv
libopal.so.3.10.11:_ZN18H248_AmmDescriptorC1EjN11PASN_Object8TagClassE
libopal.so.3.10.11:_ZN18H248_AmmDescriptorC2EjN11PASN_Object8TagClassE
libopal.so.3.10.11:_ZN18H248_AmmDescriptorcvR18H248_MuxDescriptorEv
libopal.so.3.10.11:_ZN18H248_AmmDescriptorcvR20H248_AuditDescriptorEv
libopal.so.3.10.11:_ZN18H248_AmmDescriptorcvR20H248_MediaDescriptorEv
libopal.so.3.10.11:_ZN18H248_AmmDescriptorcvR20H248_ModemDescriptorEv
libopal.so.3.10.11:_ZN18H248_AmmDescriptorcvR21H248_EventsDescriptorEv
libopal.so.3.10.11:_ZN18H248_AmmDescriptorcvR22H248_SignalsDescriptorEv
libopal.so.3.10.11:_ZN18H248_AmmDescriptorcvR23H248_DigitMapDescriptorEv
libopal.so.3.10.11:_ZN18H248_AmmDescriptorcvR26H248_EventBufferDescriptorEv
libopal.so.3.10.11:_ZN18H248_DigitMapValue6DecodeER11PASN_Stream
libopal.so.3.10.11:_ZN18H248_DigitMapValueC1EjN11PASN_Object8TagClassE
libopal.so.3.10.11:_ZN18H248_DigitMapValueC2EjN11PASN_Object8TagClassE
libopal.so.3.10.11:_ZN18H248_MegacoMessage6DecodeER11PASN_Stream
libopal.so.3.10.11:_ZN18H248_MegacoMessageC1EjN11PASN_Object8TagClassE
libopal.so.3.10.11:_ZN18H248_MegacoMessageC2EjN11PASN_Object8TagClassE
libopal.so.3.10.11:_ZN18H248_MuxDescriptor6DecodeER11PASN_Stream
libopal.so.3.10.11:_ZN18H248_MuxDescriptorC1EjN11PASN_Object8TagClassE
libopal.so.3.10.11:_ZN18H248_MuxDescriptorC2EjN11PASN_Object8TagClassE
libopal.so.3.10.11:_ZN18H248_NotifyRequest6DecodeER11PASN_Stream
libopal.so.3.10.11:_ZN18H248_NotifyRequestC1EjN11PASN_Object8TagClassE
libopal.so.3.10.11:_ZN18H248_NotifyRequestC2EjN11PASN_Object8TagClassE
libopal.so.3.10.11:_ZN18H248_ObservedEvent6DecodeER11PASN_Stream
libopal.so.3.10.11:_ZN18H248_ObservedEventC1EjN11PASN_Object8TagClassE
libopal.so.3.10.11:_ZN18H248_ObservedEventC2EjN11PASN_Object8TagClassE
libopal.so.3.10.11:_ZN18H248_PropertyGroupC1EjN11PASN_Object8TagClassE
libopal.so.3.10.11:_ZN18H248_PropertyGroupC2EjN11PASN_Object8TagClassE
libopal.so.3.10.11:_ZN18H248_SignalRequest12CreateObjectEv
libopal.so.3.10.11:_ZN18H248_SignalRequestC1EjN11PASN_Object8TagClassE
libopal.so.3.10.11:_ZN18H248_SignalRequestC2EjN11PASN_Object8TagClassE
libopal.so.3.10.11:_ZN18H248_SignalRequestcvR11H248_SignalEv
libopal.so.3.10.11:_ZN18H248_SignalRequestcvR15H248_SeqSigListEv
libopal.so.3.10.11:_ZN18H248_TerminationID6DecodeER11PASN_Stream
libopal.so.3.10.11:_ZN18H248_TerminationIDC1EjN11PASN_Object8TagClassE
libopal.so.3.10.11:_ZN18H248_TerminationIDC2EjN11PASN_Object8TagClassE
libopal.so.3.10.11:_ZN18H248_TransactionIdC1EjN11PASN_Object8TagClassE
libopal.so.3.10.11:_ZN18H248_TransactionIdC2EjN11PASN_Object8TagClassE
libopal.so.3.10.11:_ZN18H248_TransactionIdaSEi
libopal.so.3.10.11:_ZN18H248_TransactionIdaSEj
libopal.so.3.10.11:_ZN18H248_WildcardFieldC1EPKc
libopal.so.3.10.11:_ZN18H248_WildcardFieldC1ERK10PBYTEArray
libopal.so.3.10.11:_ZN18H248_WildcardFieldC1ERK7PString
libopal.so.3.10.11:_ZN18H248_WildcardFieldC1EjN11PASN_Object8TagClassE
libopal.so.3.10.11:_ZN18H248_WildcardFieldC2EPKc
libopal.so.3.10.11:_ZN18H248_WildcardFieldC2ERK10PBYTEArray
libopal.so.3.10.11:_ZN18H248_WildcardFieldC2ERK7PString
libopal.so.3.10.11:_ZN18H248_WildcardFieldC2EjN11PASN_Object8TagClassE
libopal.so.3.10.11:_ZN18H248_WildcardFieldaSEPKc
libopal.so.3.10.11:_ZN18H248_WildcardFieldaSERK10PBYTEArray
libopal.so.3.10.11:_ZN18H248_WildcardFieldaSERK7PString
libopal.so.3.10.11:_ZN18H323DataCapability13OnReceivedPDUERK13H245_DataTypeb
libopal.so.3.10.11:_ZN18H323DataCapability13OnReceivedPDUERK15H245_Capability
libopal.so.3.10.11:_ZN18H323DataCapability13OnReceivedPDUERK30H245_DataApplicationCapability
libopal.so.3.10.11:_ZN18H323DataCapability13OnReceivedPDUERK30H245_DataApplicationCapabilityN14H323Capability11CommandTypeE
libopal.so.3.10.11:_ZN18H323DataCapabilityC1Ej
libopal.so.3.10.11:_ZN18H323DataCapabilityC2Ej
libopal.so.3.10.11:_ZN18H323GatekeeperCall10OnAlertingEv
libopal.so.3.10.11:_ZN18H323GatekeeperCall11OnAdmissionER17H323GatekeeperARQ
libopal.so.3.10.11:_ZN18H323GatekeeperCall11OnBandwidthER17H323GatekeeperBRQ
libopal.so.3.10.11:_ZN18H323GatekeeperCall11OnConnectedEv
libopal.so.3.10.11:_ZN18H323GatekeeperCall11OnDisengageER17H323GatekeeperDRQ
libopal.so.3.10.11:_ZN18H323GatekeeperCall11OnHeartbeatEv
libopal.so.3.10.11:_ZN18H323GatekeeperCall12SetUsageInfoERK24H225_RasUsageInformation
libopal.so.3.10.11:_ZN18H323GatekeeperCall14OnInfoResponseER17H323GatekeeperIRRR44H225_InfoRequestResponse_perCallInfo_subtype
libopal.so.3.10.11:_ZN18H323GatekeeperCall16SetBandwidthUsedEj
libopal.so.3.10.11:_ZN18H323GatekeeperCall21TranslateAliasAddressERK17H225_AliasAddressR25H225_ArrayOf_AliasAddressR20H323TransportAddressRb
libopal.so.3.10.11:_ZN18H323GatekeeperCall25SendServiceControlSessionERK25H323ServiceControlSession
libopal.so.3.10.11:_ZN18H323GatekeeperCall28SendCallCreditServiceControlEv
libopal.so.3.10.11:_ZN18H323GatekeeperCall9DisengageEi
libopal.so.3.10.11:_ZN18H323GatekeeperCallC1ER20H323GatekeeperServerRK17PGloballyUniqueIDNS_9DirectionE
libopal.so.3.10.11:_ZN18H323GatekeeperCallC2ER20H323GatekeeperServerRK17PGloballyUniqueIDNS_9DirectionE
libopal.so.3.10.11:_ZN18H323GatekeeperCallD0Ev
libopal.so.3.10.11:_ZN18H323GatekeeperCallD1Ev
libopal.so.3.10.11:_ZN18H323GatekeeperCallD2Ev
libopal.so.3.10.11:_ZN18H323PresenceNotify18HandleNotificationEb
libopal.so.3.10.11:_ZN18H323PresenceRemove16HandleIdentifierEb
libopal.so.3.10.11:_ZN18H323PresenceStatus17HandleInstructionEb
libopal.so.3.10.11:_ZN18H323PresenceStatus18HandleNotificationEb
libopal.so.3.10.11:_ZN18H323TransactionPDU4ReadER13OpalTransport
libopal.so.3.10.11:_ZN18H323TransactionPDU5WriteER13OpalTransport
libopal.so.3.10.11:_ZN18H323TransactionPDUC1ERK18H235Authenticators
libopal.so.3.10.11:_ZN18H323TransactionPDUC1Ev
libopal.so.3.10.11:_ZN18H323TransactionPDUC2ERK18H235Authenticators
libopal.so.3.10.11:_ZN18H323TransactionPDUC2Ev
libopal.so.3.10.11:_ZN18H323_T38Capability13OnReceivedPDUERK30H245_DataApplicationCapability
libopal.so.3.10.11:_ZN18H323_T38CapabilityC1ENS_13TransportModeE
libopal.so.3.10.11:_ZN18H323_T38CapabilityC2ENS_13TransportModeE
libopal.so.3.10.11:_ZN18H45010_CoReqOptArg6DecodeER11PASN_Stream
libopal.so.3.10.11:_ZN18H45010_CoReqOptArgC1EjN11PASN_Object8TagClassE
libopal.so.3.10.11:_ZN18H45010_CoReqOptArgC2EjN11PASN_Object8TagClassE
libopal.so.3.10.11:_ZN18H45011_CIFrcRelArg6DecodeER11PASN_Stream
libopal.so.3.10.11:_ZN18H45011_CIFrcRelArgC1EjN11PASN_Object8TagClassE
libopal.so.3.10.11:_ZN18H45011_CIFrcRelArgC2EjN11PASN_Object8TagClassE
libopal.so.3.10.11:_ZN18H45011_CISilentArg6DecodeER11PASN_Stream
libopal.so.3.10.11:_ZN18H45011_CISilentArgC1EjN11PASN_Object8TagClassE
libopal.so.3.10.11:_ZN18H45011_CISilentArgC2EjN11PASN_Object8TagClassE
libopal.so.3.10.11:_ZN18H45011_CIWobOptArg6DecodeER11PASN_Stream
libopal.so.3.10.11:_ZN18H45011_CIWobOptArgC1EjN11PASN_Object8TagClassE
libopal.so.3.10.11:_ZN18H45011_CIWobOptArgC2EjN11PASN_Object8TagClassE
libopal.so.3.10.11:_ZN18H45011_CIWobOptRes6DecodeER11PASN_Stream
libopal.so.3.10.11:_ZN18H45011_CIWobOptResC1EjN11PASN_Object8TagClassE
libopal.so.3.10.11:_ZN18H45011_CIWobOptResC2EjN11PASN_Object8TagClassE
libopal.so.3.10.11:_ZN18H4501_ServiceApdus12CreateObjectEv
libopal.so.3.10.11:_ZN18H4501_ServiceApdusC1EjN11PASN_Object8TagClassE
libopal.so.3.10.11:_ZN18H4501_ServiceApdusC2EjN11PASN_Object8TagClassE
libopal.so.3.10.11:_ZN18H4501_ServiceApduscvR17H4501_ArrayOf_ROSEv
libopal.so.3.10.11:_ZN18H4502_CallIdentityC1EjN11PASN_Object8TagClassE
libopal.so.3.10.11:_ZN18H4502_CallIdentityC2EjN11PASN_Object8TagClassE
libopal.so.3.10.11:_ZN18H4502_CallIdentityaSEPKc
libopal.so.3.10.11:_ZN18H4502_CallIdentityaSERK7PString
libopal.so.3.10.11:_ZN18H4502_ExtensionSeqC1EjN11PASN_Object8TagClassE
libopal.so.3.10.11:_ZN18H4502_ExtensionSeqC2EjN11PASN_Object8TagClassE
libopal.so.3.10.11:_ZN18H4503_BasicServiceC1EjN11PASN_Object8TagClassE
libopal.so.3.10.11:_ZN18H4503_BasicServiceC2EjN11PASN_Object8TagClassE
libopal.so.3.10.11:_ZN18H4503_BasicServiceaSEj
libopal.so.3.10.11:_ZN18H4503_ExtensionSeqC1EjN11PASN_Object8TagClassE
libopal.so.3.10.11:_ZN18H4503_ExtensionSeqC2EjN11PASN_Object8TagClassE
libopal.so.3.10.11:_ZN18H4505_CpRequestArg6DecodeER11PASN_Stream
libopal.so.3.10.11:_ZN18H4505_CpRequestArgC1EjN11PASN_Object8TagClassE
libopal.so.3.10.11:_ZN18H4505_CpRequestArgC2EjN11PASN_Object8TagClassE
libopal.so.3.10.11:_ZN18H4505_CpRequestRes6DecodeER11PASN_Stream
libopal.so.3.10.11:_ZN18H4505_CpRequestResC1EjN11PASN_Object8TagClassE
libopal.so.3.10.11:_ZN18H4505_CpRequestResC2EjN11PASN_Object8TagClassE
libopal.so.3.10.11:_ZN18H4507_BasicServiceC1EjN11PASN_Object8TagClassE
libopal.so.3.10.11:_ZN18H4507_BasicServiceC2EjN11PASN_Object8TagClassE
libopal.so.3.10.11:_ZN18H4507_BasicServiceaSEj
libopal.so.3.10.11:_ZN18H4507_NbOfMessagesC1EjN11PASN_Object8TagClassE
libopal.so.3.10.11:_ZN18H4507_NbOfMessagesC2EjN11PASN_Object8TagClassE
libopal.so.3.10.11:_ZN18H4507_NbOfMessagesaSEi
libopal.so.3.10.11:_ZN18H4507_NbOfMessagesaSEj
libopal.so.3.10.11:_ZN18H4508_ExtendedNameC1EjN11PASN_Object8TagClassE
libopal.so.3.10.11:_ZN18H4508_ExtendedNameC2EjN11PASN_Object8TagClassE
libopal.so.3.10.11:_ZN18H4508_ExtendedNameaSEPKc
libopal.so.3.10.11:_ZN18H4508_ExtendedNameaSERK10PBaseArrayIwE
libopal.so.3.10.11:_ZN18H4508_ExtendedNameaSERK14PASN_BMPString
libopal.so.3.10.11:_ZN18H4508_ExtendedNameaSERK7PString
libopal.so.3.10.11:_ZN18H4509_CcRequestArg6DecodeER11PASN_Stream
libopal.so.3.10.11:_ZN18H4509_CcRequestArgC1EjN11PASN_Object8TagClassE
libopal.so.3.10.11:_ZN18H4509_CcRequestArgC2EjN11PASN_Object8TagClassE
libopal.so.3.10.11:_ZN18H4509_CcRequestRes6DecodeER11PASN_Stream
libopal.so.3.10.11:_ZN18H4509_CcRequestResC1EjN11PASN_Object8TagClassE
libopal.so.3.10.11:_ZN18H4509_CcRequestResC2EjN11PASN_Object8TagClassE
libopal.so.3.10.11:_ZN18H4609_RTCPMeasures6DecodeER11PASN_Stream
libopal.so.3.10.11:_ZN18H4609_RTCPMeasuresC1EjN11PASN_Object8TagClassE
libopal.so.3.10.11:_ZN18H4609_RTCPMeasuresC2EjN11PASN_Object8TagClassE
libopal.so.3.10.11:_ZN18H460_FeatureNonStd12HasParameterE7PString
libopal.so.3.10.11:_ZN18H460_FeatureNonStd3AddE7PStringRK19H460_FeatureContent
libopal.so.3.10.11:_ZN18H460_FeatureNonStd6RemoveERK7PString
libopal.so.3.10.11:_ZN18H460_FeatureNonStd7ReplaceERK7PStringRK19H460_FeatureContent
libopal.so.3.10.11:_ZN18H460_FeatureNonStdC1E7PString
libopal.so.3.10.11:_ZN18H460_FeatureNonStdC2E7PString
libopal.so.3.10.11:_ZN18H460_FeatureNonStdixE7PString
libopal.so.3.10.11:_ZN18H501ServiceRequest11OnHandlePDUEv
libopal.so.3.10.11:_ZN18H501ServiceRequest15SetRejectReasonEj
libopal.so.3.10.11:_ZN18H501ServiceRequestC1ER15H323PeerElementRK7H501PDU
libopal.so.3.10.11:_ZN18H501ServiceRequestC2ER15H323PeerElementRK7H501PDU
libopal.so.3.10.11:_ZN18H501_AccessRequest6DecodeER11PASN_Stream
libopal.so.3.10.11:_ZN18H501_AccessRequestC1EjN11PASN_Object8TagClassE
libopal.so.3.10.11:_ZN18H501_AccessRequestC2EjN11PASN_Object8TagClassE
libopal.so.3.10.11:_ZN18H501_Pattern_range6DecodeER11PASN_Stream
libopal.so.3.10.11:_ZN18H501_Pattern_rangeC1EjN11PASN_Object8TagClassE
libopal.so.3.10.11:_ZN18H501_Pattern_rangeC2EjN11PASN_Object8TagClassE
libopal.so.3.10.11:_ZN18H501_PriceInfoSpec6DecodeER11PASN_Stream
libopal.so.3.10.11:_ZN18H501_PriceInfoSpecC1EjN11PASN_Object8TagClassE
libopal.so.3.10.11:_ZN18H501_PriceInfoSpecC2EjN11PASN_Object8TagClassE
libopal.so.3.10.11:_ZN18IAX2FullFrameImageC1ERK13IAX2FullFrame
libopal.so.3.10.11:_ZN18IAX2FullFrameImageC1ERK9IAX2Frame
libopal.so.3.10.11:_ZN18IAX2FullFrameImageC2ERK13IAX2FullFrame
libopal.so.3.10.11:_ZN18IAX2FullFrameImageC2ERK9IAX2Frame
libopal.so.3.10.11:_ZN18IAX2FullFrameVideoC1ERK13IAX2FullFrame
libopal.so.3.10.11:_ZN18IAX2FullFrameVideoC1ERK9IAX2Frame
libopal.so.3.10.11:_ZN18IAX2FullFrameVideoC2ERK13IAX2FullFrame
libopal.so.3.10.11:_ZN18IAX2FullFrameVideoC2ERK9IAX2Frame
libopal.so.3.10.11:_ZN18IAX2FullFrameVoice15GetSubClassNameEj
libopal.so.3.10.11:_ZN18IAX2FullFrameVoice18GetOpalNameOfCodecEi
libopal.so.3.10.11:_ZN18IAX2FullFrameVoice19OpalNameToIax2ValueE7PString
libopal.so.3.10.11:_ZN18IAX2FullFrameVoiceC1EP17IAX2CallProcessorR10PBYTEArrayi
libopal.so.3.10.11:_ZN18IAX2FullFrameVoiceC1ERK13IAX2FullFrame
libopal.so.3.10.11:_ZN18IAX2FullFrameVoiceC1ERK9IAX2Frame
libopal.so.3.10.11:_ZN18IAX2FullFrameVoiceC2EP17IAX2CallProcessorR10PBYTEArrayi
libopal.so.3.10.11:_ZN18IAX2FullFrameVoiceC2ERK13IAX2FullFrame
libopal.so.3.10.11:_ZN18IAX2FullFrameVoiceC2ERK9IAX2Frame
libopal.so.3.10.11:_ZN18IAX2FullFrameVoiceD0Ev
libopal.so.3.10.11:_ZN18IAX2FullFrameVoiceD1Ev
libopal.so.3.10.11:_ZN18IAX2FullFrameVoiceD2Ev
libopal.so.3.10.11:_ZN18OpalAudioMediaType25CreateSDPMediaDescriptionERK20OpalTransportAddress
libopal.so.3.10.11:_ZN18OpalAudioMediaTypeC1Ev
libopal.so.3.10.11:_ZN18OpalAudioMediaTypeC2Ev
libopal.so.3.10.11:_ZN18OpalIVRMediaStream13InternalCloseEv
libopal.so.3.10.11:_ZN18OpalIVRMediaStream4OpenEv
libopal.so.3.10.11:_ZN18OpalIVRMediaStreamC1ER17OpalIVRConnectionRK15OpalMediaFormatjbR12PVXMLSession
libopal.so.3.10.11:_ZN18OpalIVRMediaStreamC2ER17OpalIVRConnectionRK15OpalMediaFormatjbR12PVXMLSession
libopal.so.3.10.11:_ZN18OpalLineConnection10OnReleasedEv
libopal.so.3.10.11:_ZN18OpalLineConnection11SetAlertingERK7PStringb
libopal.so.3.10.11:_ZN18OpalLineConnection12SetConnectedEv
libopal.so.3.10.11:_ZN18OpalLineConnection13StartIncomingEv
libopal.so.3.10.11:_ZN18OpalLineConnection14HandleIncomingER7PThreadl
libopal.so.3.10.11:_ZN18OpalLineConnection14SetAudioVolumeEbj
libopal.so.3.10.11:_ZN18OpalLineConnection15PromptUserInputEb
libopal.so.3.10.11:_ZN18OpalLineConnection15SetUpConnectionEv
libopal.so.3.10.11:_ZN18OpalLineConnection17CreateMediaStreamERK15OpalMediaFormatjb
libopal.so.3.10.11:_ZN18OpalLineConnection17OnOpenMediaStreamER15OpalMediaStream
libopal.so.3.10.11:_ZN18OpalLineConnection17SendUserInputToneEci
libopal.so.3.10.11:_ZN18OpalLineConnection19GetAudioSignalLevelEb
libopal.so.3.10.11:_ZN18OpalLineConnection19OnClosedMediaStreamERK15OpalMediaStream
libopal.so.3.10.11:_ZN18OpalLineConnection19SendUserInputStringERK7PString
libopal.so.3.10.11:_ZN18OpalLineConnection21GetDestinationAddressEv
libopal.so.3.10.11:_ZN18OpalLineConnection7MonitorEv
libopal.so.3.10.11:_ZN18OpalLineConnectionC1ER8OpalCallR16OpalLineEndPointR8OpalLineRK7PString
libopal.so.3.10.11:_ZN18OpalLineConnectionC2ER8OpalCallR16OpalLineEndPointR8OpalLineRK7PString
libopal.so.3.10.11:_ZN18OpalManagerConsole10InitialiseER8PArgListbRK7PString
libopal.so.3.10.11:_ZN18OpalManagerConsole17CreateSIPEndPointEv
libopal.so.3.10.11:_ZN18OpalManagerConsole18CreateH323EndPointEv
libopal.so.3.10.11:_ZN18OpalManagerConsole18CreateLineEndPointEv
libopal.so.3.10.11:_ZN18OpalManagerConsoleC1Ev
libopal.so.3.10.11:_ZN18OpalManagerConsoleC2Ev
libopal.so.3.10.11:_ZN18OpalPCSSConnection12GetAudioMuteEbRb
libopal.so.3.10.11:_ZN18OpalPCSSConnection12SetAudioMuteEbb
libopal.so.3.10.11:_ZN18OpalPCSSConnection14GetAudioVolumeEbRj
libopal.so.3.10.11:_ZN18OpalPCSSConnection14SetAudioVolumeEbj
libopal.so.3.10.11:_ZN18OpalPCSSConnection17CreateMediaStreamERK15OpalMediaFormatjb
libopal.so.3.10.11:_ZN18OpalPCSSConnection18CreateSoundChannelERK15OpalMediaFormatb
libopal.so.3.10.11:_ZN18OpalPCSSConnection18TransferConnectionERK7PString
libopal.so.3.10.11:_ZN18OpalPCSSConnection19GetAudioSignalLevelEb
libopal.so.3.10.11:_ZN18OpalPCSSConnectionC1ER8OpalCallR16OpalPCSSEndPointRK7PStringS6_jPN14OpalConnection13StringOptionsE
libopal.so.3.10.11:_ZN18OpalPCSSConnectionC2ER8OpalCallR16OpalPCSSEndPointRK7PStringS6_jPN14OpalConnection13StringOptionsE
libopal.so.3.10.11:_ZN18OpalPCSSConnectionD0Ev
libopal.so.3.10.11:_ZN18OpalPCSSConnectionD1Ev
libopal.so.3.10.11:_ZN18OpalPCSSConnectionD2Ev
libopal.so.3.10.11:_ZN18OpalPCSSEndPoint_C14OnShowIncomingERK18OpalPCSSConnection
libopal.so.3.10.11:_ZN18OpalPCSSEndPoint_C14OnShowOutgoingERK18OpalPCSSConnection
libopal.so.3.10.11:_ZN18OpalPCSSEndPoint_CC1ER13OpalManager_C
libopal.so.3.10.11:_ZN18OpalPCSSEndPoint_CC2ER13OpalManager_C
libopal.so.3.10.11:_ZN18OpalRFC4175Decoder13ConvertFramesERK13RTP_DataFrameR5PListIS0_E
libopal.so.3.10.11:_ZN18OpalRFC4175Decoder27DecodeFramesAndSetFrameSizeER5PListI13RTP_DataFrameE
libopal.so.3.10.11:_ZN18OpalRFC4175DecoderC1ERK15OpalMediaFormatS2_
libopal.so.3.10.11:_ZN18OpalRFC4175DecoderC2ERK15OpalMediaFormatS2_
libopal.so.3.10.11:_ZN18OpalRFC4175DecoderD0Ev
libopal.so.3.10.11:_ZN18OpalRFC4175DecoderD1Ev
libopal.so.3.10.11:_ZN18OpalRFC4175DecoderD2Ev
libopal.so.3.10.11:_ZN18OpalRFC4175Encoder13ConvertFramesERK13RTP_DataFrameR5PListIS0_E
libopal.so.3.10.11:_ZN18OpalRFC4175Encoder13StartEncodingERK13RTP_DataFrame
libopal.so.3.10.11:_ZN18OpalRFC4175Encoder14AddNewDstFrameEv
libopal.so.3.10.11:_ZN18OpalRFC4175Encoder15EncodeFullFrameEv
libopal.so.3.10.11:_ZN18OpalRFC4175Encoder17FinishOutputFrameEv
libopal.so.3.10.11:_ZN18OpalRFC4175Encoder21EncodeScanLineSegmentEiii
libopal.so.3.10.11:_ZN18OpalRFC4175EncoderC1ERK15OpalMediaFormatS2_
libopal.so.3.10.11:_ZN18OpalRFC4175EncoderC2ERK15OpalMediaFormatS2_
libopal.so.3.10.11:_ZN18OpalRTPMediaStream10ReadPacketER13RTP_DataFrame
libopal.so.3.10.11:_ZN18OpalRTPMediaStream11SetDataSizeEii
libopal.so.3.10.11:_ZN18OpalRTPMediaStream11WritePacketER13RTP_DataFrame
libopal.so.3.10.11:_ZN18OpalRTPMediaStream13InternalCloseEv
libopal.so.3.10.11:_ZN18OpalRTPMediaStream4OpenEv
libopal.so.3.10.11:_ZN18OpalRTPMediaStream8SetPatchEP14OpalMediaPatch
libopal.so.3.10.11:_ZN18OpalRTPMediaStream9SetPausedEbb
libopal.so.3.10.11:_ZN18OpalRTPMediaStreamC1ER17OpalRTPConnectionRK15OpalMediaFormatbR11RTP_Sessionjj
libopal.so.3.10.11:_ZN18OpalRTPMediaStreamC2ER17OpalRTPConnectionRK15OpalMediaFormatbR11RTP_Sessionjj
libopal.so.3.10.11:_ZN18OpalRTPMediaStreamD0Ev
libopal.so.3.10.11:_ZN18OpalRTPMediaStreamD1Ev
libopal.so.3.10.11:_ZN18OpalRTPMediaStreamD2Ev
libopal.so.3.10.11:_ZN18OpalRawMediaStream10SetChannelEP8PChannelb
libopal.so.3.10.11:_ZN18OpalRawMediaStream13InternalCloseEv
libopal.so.3.10.11:_ZN18OpalRawMediaStream14CollectAverageEPKhi
libopal.so.3.10.11:_ZN18OpalRawMediaStream21GetAverageSignalLevelEv
libopal.so.3.10.11:_ZN18OpalRawMediaStream8ReadDataEPhiRi
libopal.so.3.10.11:_ZN18OpalRawMediaStream9WriteDataEPKhiRi
libopal.so.3.10.11:_ZN18OpalRawMediaStreamC1ER14OpalConnectionRK15OpalMediaFormatjbP8PChannelb
libopal.so.3.10.11:_ZN18OpalRawMediaStreamC2ER14OpalConnectionRK15OpalMediaFormatjbP8PChannelb
libopal.so.3.10.11:_ZN18OpalRawMediaStreamD0Ev
libopal.so.3.10.11:_ZN18OpalRawMediaStreamD1Ev
libopal.so.3.10.11:_ZN18OpalRawMediaStreamD2Ev
libopal.so.3.10.11:_ZN18OpalSIPIMMediaType25CreateSDPMediaDescriptionERK20OpalTransportAddress
libopal.so.3.10.11:_ZN18OpalSIPIMMediaTypeC1Ev
libopal.so.3.10.11:_ZN18OpalSIPIMMediaTypeC2Ev
libopal.so.3.10.11:_ZN18OpalUDPMediaStream10ReadPacketER13RTP_DataFrame
libopal.so.3.10.11:_ZN18OpalUDPMediaStream11WritePacketER13RTP_DataFrame
libopal.so.3.10.11:_ZN18OpalUDPMediaStream13InternalCloseEv
libopal.so.3.10.11:_ZN18OpalUDPMediaStreamC1ER14OpalConnectionRK15OpalMediaFormatjbR16OpalTransportUDP
libopal.so.3.10.11:_ZN18OpalUDPMediaStreamC2ER14OpalConnectionRK15OpalMediaFormatjbR16OpalTransportUDP
libopal.so.3.10.11:_ZN18OpalUDPMediaStreamD0Ev
libopal.so.3.10.11:_ZN18OpalUDPMediaStreamD1Ev
libopal.so.3.10.11:_ZN18OpalUDPMediaStreamD2Ev
libopal.so.3.10.11:_ZN18OpalVideoMediaType25CreateSDPMediaDescriptionERK20OpalTransportAddress
libopal.so.3.10.11:_ZN18OpalVideoMediaTypeC1Ev
libopal.so.3.10.11:_ZN18OpalVideoMediaTypeC2Ev
libopal.so.3.10.11:_ZN18Opal_G711_ALaw_PCM13ConvertSampleEi
libopal.so.3.10.11:_ZN18Opal_G711_ALaw_PCMC1Ev
libopal.so.3.10.11:_ZN18Opal_G711_ALaw_PCMC2Ev
libopal.so.3.10.11:_ZN18Opal_G711_uLaw_PCM13ConvertSampleEi
libopal.so.3.10.11:_ZN18Opal_G711_uLaw_PCMC1Ev
libopal.so.3.10.11:_ZN18Opal_G711_uLaw_PCMC2Ev
libopal.so.3.10.11:_ZN18Opal_PCM_G711_ALaw13ConvertSampleEi
libopal.so.3.10.11:_ZN18Opal_PCM_G711_ALawC1Ev
libopal.so.3.10.11:_ZN18Opal_PCM_G711_ALawC2Ev
libopal.so.3.10.11:_ZN18Opal_PCM_G711_uLaw13ConvertSampleEi
libopal.so.3.10.11:_ZN18Opal_PCM_G711_uLawC1Ev
libopal.so.3.10.11:_ZN18Opal_PCM_G711_uLawC2Ev
libopal.so.3.10.11:_ZN18SIPRegisterHandler10SendStatusEN7SIP_PDU11StatusCodesEN10SIPHandler5StateE
libopal.so.3.10.11:_ZN18SIPRegisterHandler11SendRequestEN10SIPHandler5StateE
libopal.so.3.10.11:_ZN18SIPRegisterHandler12OnReceivedOKER14SIPTransactionR7SIP_PDU
libopal.so.3.10.11:_ZN18SIPRegisterHandler16UpdateParametersERKN11SIPRegister6ParamsE
libopal.so.3.10.11:_ZN18SIPRegisterHandler17CreateTransactionER13OpalTransport
libopal.so.3.10.11:_ZN18SIPRegisterHandler8OnFailedEN7SIP_PDU11StatusCodesE
libopal.so.3.10.11:_ZN18SIPRegisterHandlerC1ER11SIPEndPointRKN11SIPRegister6ParamsE
libopal.so.3.10.11:_ZN18SIPRegisterHandlerC2ER11SIPEndPointRKN11SIPRegister6ParamsE
libopal.so.3.10.11:_ZN18X880_InvokeProblemC1EjN11PASN_Object8TagClassE
libopal.so.3.10.11:_ZN18X880_InvokeProblemC2EjN11PASN_Object8TagClassE
libopal.so.3.10.11:_ZN18X880_InvokeProblemaSEi
libopal.so.3.10.11:_ZN18X880_InvokeProblemaSEj
libopal.so.3.10.11:_ZN18X880_RejectProblemC1EjN11PASN_Object8TagClassE
libopal.so.3.10.11:_ZN18X880_RejectProblemC2EjN11PASN_Object8TagClassE
libopal.so.3.10.11:_ZN18X880_RejectProblemaSEi
libopal.so.3.10.11:_ZN18X880_RejectProblemaSEj
libopal.so.3.10.11:_ZN19H225_AddressPattern12CreateObjectEv
libopal.so.3.10.11:_ZN19H225_AddressPatternC1EjN11PASN_Object8TagClassE
libopal.so.3.10.11:_ZN19H225_AddressPatternC2EjN11PASN_Object8TagClassE
libopal.so.3.10.11:_ZN19H225_AddressPatterncvR17H225_AliasAddressEv
libopal.so.3.10.11:_ZN19H225_AddressPatterncvR25H225_AddressPattern_rangeEv
libopal.so.3.10.11:_ZN19H225_CallIdentifier6DecodeER11PASN_Stream
libopal.so.3.10.11:_ZN19H225_CallIdentifierC1EjN11PASN_Object8TagClassE
libopal.so.3.10.11:_ZN19H225_CallIdentifierC2EjN11PASN_Object8TagClassE
libopal.so.3.10.11:_ZN19H225_CallsAvailable6DecodeER11PASN_Stream
libopal.so.3.10.11:_ZN19H225_CallsAvailableC1EjN11PASN_Object8TagClassE
libopal.so.3.10.11:_ZN19H225_CallsAvailableC2EjN11PASN_Object8TagClassE
libopal.so.3.10.11:_ZN19H225_ConferenceList6DecodeER11PASN_Stream
libopal.so.3.10.11:_ZN19H225_ConferenceListC1EjN11PASN_Object8TagClassE
libopal.so.3.10.11:_ZN19H225_ConferenceListC2EjN11PASN_Object8TagClassE
libopal.so.3.10.11:_ZN19H225_FacilityReason12CreateObjectEv
libopal.so.3.10.11:_ZN19H225_FacilityReasonC1EjN11PASN_Object8TagClassE
libopal.so.3.10.11:_ZN19H225_FacilityReasonC2EjN11PASN_Object8TagClassE
libopal.so.3.10.11:_ZN19H225_FastStartTokenC1EjN11PASN_Object8TagClassE
libopal.so.3.10.11:_ZN19H225_FastStartTokenC2EjN11PASN_Object8TagClassE
libopal.so.3.10.11:_ZN19H225_GatekeeperInfo6DecodeER11PASN_Stream
libopal.so.3.10.11:_ZN19H225_GatekeeperInfoC1EjN11PASN_Object8TagClassE
libopal.so.3.10.11:_ZN19H225_GatekeeperInfoC2EjN11PASN_Object8TagClassE
libopal.so.3.10.11:_ZN19H225_GroupID_memberC1EjN11PASN_Object8TagClassE
libopal.so.3.10.11:_ZN19H225_GroupID_memberC2EjN11PASN_Object8TagClassE
libopal.so.3.10.11:_ZN19H225_InfoRequestAck6DecodeER11PASN_Stream
libopal.so.3.10.11:_ZN19H225_InfoRequestAckC1EjN11PASN_Object8TagClassE
libopal.so.3.10.11:_ZN19H225_InfoRequestAckC2EjN11PASN_Object8TagClassE
libopal.so.3.10.11:_ZN19H225_InfoRequestNak6DecodeER11PASN_Stream
libopal.so.3.10.11:_ZN19H225_InfoRequestNakC1EjN11PASN_Object8TagClassE
libopal.so.3.10.11:_ZN19H225_InfoRequestNakC2EjN11PASN_Object8TagClassE
libopal.so.3.10.11:_ZN19H225_LocationReject6DecodeER11PASN_Stream
libopal.so.3.10.11:_ZN19H225_LocationRejectC1EjN11PASN_Object8TagClassE
libopal.so.3.10.11:_ZN19H225_LocationRejectC2EjN11PASN_Object8TagClassE
libopal.so.3.10.11:_ZN19H225_QseriesOptions6DecodeER11PASN_Stream
libopal.so.3.10.11:_ZN19H225_QseriesOptionsC1EjN11PASN_Object8TagClassE
libopal.so.3.10.11:_ZN19H225_QseriesOptionsC2EjN11PASN_Object8TagClassE
libopal.so.3.10.11:_ZN19H225_SecurityErrors12CreateObjectEv
libopal.so.3.10.11:_ZN19H225_SecurityErrorsC1EjN11PASN_Object8TagClassE
libopal.so.3.10.11:_ZN19H225_SecurityErrorsC2EjN11PASN_Object8TagClassE
libopal.so.3.10.11:_ZN19H225_UUIEsRequested6DecodeER11PASN_Stream
libopal.so.3.10.11:_ZN19H225_UUIEsRequestedC1EjN11PASN_Object8TagClassE
libopal.so.3.10.11:_ZN19H225_UUIEsRequestedC2EjN11PASN_Object8TagClassE
libopal.so.3.10.11:_ZN19H235_ProfileElement6DecodeER11PASN_Stream
libopal.so.3.10.11:_ZN19H235_ProfileElementC1EjN11PASN_Object8TagClassE
libopal.so.3.10.11:_ZN19H235_ProfileElementC2EjN11PASN_Object8TagClassE
libopal.so.3.10.11:_ZN19H245_CommandMessage12CreateObjectEv
libopal.so.3.10.11:_ZN19H245_CommandMessageC1EjN11PASN_Object8TagClassE
libopal.so.3.10.11:_ZN19H245_CommandMessageC2EjN11PASN_Object8TagClassE
libopal.so.3.10.11:_ZN19H245_CommandMessagecvR19H245_GenericMessageEv
libopal.so.3.10.11:_ZN19H245_CommandMessagecvR20H245_NewATMVCCommandEv
libopal.so.3.10.11:_ZN19H245_CommandMessagecvR22H245_ConferenceCommandEv
libopal.so.3.10.11:_ZN19H245_CommandMessagecvR22H245_EncryptionCommandEv
libopal.so.3.10.11:_ZN19H245_CommandMessagecvR22H245_EndSessionCommandEv
libopal.so.3.10.11:_ZN19H245_CommandMessagecvR23H245_FlowControlCommandEv
libopal.so.3.10.11:_ZN19H245_CommandMessagecvR23H245_NonStandardMessageEv
libopal.so.3.10.11:_ZN19H245_CommandMessagecvR25H245_MiscellaneousCommandEv
libopal.so.3.10.11:_ZN19H245_CommandMessagecvR29H245_CommunicationModeCommandEv
libopal.so.3.10.11:_ZN19H245_CommandMessagecvR30H245_MaintenanceLoopOffCommandEv
libopal.so.3.10.11:_ZN19H245_CommandMessagecvR30H245_SendTerminalCapabilitySetEv
libopal.so.3.10.11:_ZN19H245_CommandMessagecvR33H245_H223MultiplexReconfigurationEv
libopal.so.3.10.11:_ZN19H245_CommandMessagecvR42H245_MobileMultilinkReconfigurationCommandEv
libopal.so.3.10.11:_ZN19H245_EncryptionMode12CreateObjectEv
libopal.so.3.10.11:_ZN19H245_EncryptionModeC1EjN11PASN_Object8TagClassE
libopal.so.3.10.11:_ZN19H245_EncryptionModeC2EjN11PASN_Object8TagClassE
libopal.so.3.10.11:_ZN19H245_EncryptionModecvR25H245_NonStandardParameterEv
libopal.so.3.10.11:_ZN19H245_EncryptionSync6DecodeER11PASN_Stream
libopal.so.3.10.11:_ZN19H245_EncryptionSyncC1EjN11PASN_Object8TagClassE
libopal.so.3.10.11:_ZN19H245_EncryptionSyncC2EjN11PASN_Object8TagClassE
libopal.so.3.10.11:_ZN19H245_G729Extensions6DecodeER11PASN_Stream
libopal.so.3.10.11:_ZN19H245_G729ExtensionsC1EjN11PASN_Object8TagClassE
libopal.so.3.10.11:_ZN19H245_G729ExtensionsC2EjN11PASN_Object8TagClassE
libopal.so.3.10.11:_ZN19H245_GenericMessage6DecodeER11PASN_Stream
libopal.so.3.10.11:_ZN19H245_GenericMessageC1EjN11PASN_Object8TagClassE
libopal.so.3.10.11:_ZN19H245_GenericMessageC2EjN11PASN_Object8TagClassE
libopal.so.3.10.11:_ZN19H245_H222Capability6DecodeER11PASN_Stream
libopal.so.3.10.11:_ZN19H245_H222CapabilityC1EjN11PASN_Object8TagClassE
libopal.so.3.10.11:_ZN19H245_H222CapabilityC2EjN11PASN_Object8TagClassE
libopal.so.3.10.11:_ZN19H245_H223Capability6DecodeER11PASN_Stream
libopal.so.3.10.11:_ZN19H245_H223CapabilityC1EjN11PASN_Object8TagClassE
libopal.so.3.10.11:_ZN19H245_H223CapabilityC2EjN11PASN_Object8TagClassE
libopal.so.3.10.11:_ZN19H245_MaximumBitRateC1EjN11PASN_Object8TagClassE
libopal.so.3.10.11:_ZN19H245_MaximumBitRateC2EjN11PASN_Object8TagClassE
libopal.so.3.10.11:_ZN19H245_MaximumBitRateaSEi
libopal.so.3.10.11:_ZN19H245_MaximumBitRateaSEj
libopal.so.3.10.11:_ZN19H245_ParameterValue12CreateObjectEv
libopal.so.3.10.11:_ZN19H245_ParameterValueC1EjN11PASN_Object8TagClassE
libopal.so.3.10.11:_ZN19H245_ParameterValueC2EjN11PASN_Object8TagClassE
libopal.so.3.10.11:_ZN19H245_ParameterValuecvR29H245_ArrayOf_GenericParameterEv
libopal.so.3.10.11:_ZN19H245_RSVPParameters6DecodeER11PASN_Stream
libopal.so.3.10.11:_ZN19H245_RSVPParametersC1EjN11PASN_Object8TagClassE
libopal.so.3.10.11:_ZN19H245_RSVPParametersC2EjN11PASN_Object8TagClassE
libopal.so.3.10.11:_ZN19H245_RTPPayloadType6DecodeER11PASN_Stream
libopal.so.3.10.11:_ZN19H245_RTPPayloadTypeC1EjN11PASN_Object8TagClassE
libopal.so.3.10.11:_ZN19H245_RTPPayloadTypeC2EjN11PASN_Object8TagClassE
libopal.so.3.10.11:_ZN19H245_RequestMessage12CreateObjectEv
libopal.so.3.10.11:_ZN19H245_RequestMessageC1EjN11PASN_Object8TagClassE
libopal.so.3.10.11:_ZN19H245_RequestMessageC2EjN11PASN_Object8TagClassE
libopal.so.3.10.11:_ZN19H245_RequestMessagecvR16H245_RequestModeEv
libopal.so.3.10.11:_ZN19H245_RequestMessagecvR19H245_GenericMessageEv
libopal.so.3.10.11:_ZN19H245_RequestMessagecvR21H245_MultilinkRequestEv
libopal.so.3.10.11:_ZN19H245_RequestMessagecvR22H245_ConferenceRequestEv
libopal.so.3.10.11:_ZN19H245_RequestMessagecvR23H245_MultiplexEntrySendEv
libopal.so.3.10.11:_ZN19H245_RequestMessagecvR23H245_NonStandardMessageEv
libopal.so.3.10.11:_ZN19H245_RequestMessagecvR23H245_OpenLogicalChannelEv
libopal.so.3.10.11:_ZN19H245_RequestMessagecvR24H245_CloseLogicalChannelEv
libopal.so.3.10.11:_ZN19H245_RequestMessagecvR24H245_RequestChannelCloseEv
libopal.so.3.10.11:_ZN19H245_RequestMessagecvR26H245_RequestMultiplexEntryEv
libopal.so.3.10.11:_ZN19H245_RequestMessagecvR26H245_RoundTripDelayRequestEv
libopal.so.3.10.11:_ZN19H245_RequestMessagecvR26H245_TerminalCapabilitySetEv
libopal.so.3.10.11:_ZN19H245_RequestMessagecvR27H245_MaintenanceLoopRequestEv
libopal.so.3.10.11:_ZN19H245_RequestMessagecvR29H245_CommunicationModeRequestEv
libopal.so.3.10.11:_ZN19H245_RequestMessagecvR29H245_MasterSlaveDeterminationEv
libopal.so.3.10.11:_ZN19H245_RequestMessagecvR30H245_LogicalChannelRateRequestEv
libopal.so.3.10.11:_ZN19H245_RequestModeAck6DecodeER11PASN_Stream
libopal.so.3.10.11:_ZN19H245_RequestModeAckC1EjN11PASN_Object8TagClassE
libopal.so.3.10.11:_ZN19H245_RequestModeAckC2EjN11PASN_Object8TagClassE
libopal.so.3.10.11:_ZN19H245_SequenceNumberC1EjN11PASN_Object8TagClassE
libopal.so.3.10.11:_ZN19H245_SequenceNumberC2EjN11PASN_Object8TagClassE
libopal.so.3.10.11:_ZN19H245_SequenceNumberaSEi
libopal.so.3.10.11:_ZN19H245_SequenceNumberaSEj
libopal.so.3.10.11:_ZN19H245_TerminalNumberC1EjN11PASN_Object8TagClassE
libopal.so.3.10.11:_ZN19H245_TerminalNumberC2EjN11PASN_Object8TagClassE
libopal.so.3.10.11:_ZN19H245_TerminalNumberaSEi
libopal.so.3.10.11:_ZN19H245_TerminalNumberaSEj
libopal.so.3.10.11:_ZN19H245_UnicastAddress12CreateObjectEv
libopal.so.3.10.11:_ZN19H245_UnicastAddressC1EjN11PASN_Object8TagClassE
libopal.so.3.10.11:_ZN19H245_UnicastAddressC2EjN11PASN_Object8TagClassE
libopal.so.3.10.11:_ZN19H245_UnicastAddresscvR25H245_NonStandardParameterEv
libopal.so.3.10.11:_ZN19H245_UnicastAddresscvR29H245_UnicastAddress_iPAddressEv
libopal.so.3.10.11:_ZN19H245_UnicastAddresscvR30H245_UnicastAddress_iP6AddressEv
libopal.so.3.10.11:_ZN19H245_UnicastAddresscvR30H245_UnicastAddress_iPXAddressEv
libopal.so.3.10.11:_ZN19H245_UnicastAddresscvR40H245_UnicastAddress_iPSourceRouteAddressEv
libopal.so.3.10.11:_ZN19H248_ArrayOf_SignalC1EjN11PASN_Object8TagClassE
libopal.so.3.10.11:_ZN19H248_ArrayOf_SignalC2EjN11PASN_Object8TagClassE
libopal.so.3.10.11:_ZN19H248_CommandRequest6DecodeER11PASN_Stream
libopal.so.3.10.11:_ZN19H248_CommandRequestC1EjN11PASN_Object8TagClassE
libopal.so.3.10.11:_ZN19H248_CommandRequestC2EjN11PASN_Object8TagClassE
libopal.so.3.10.11:_ZN19H248_ContextRequest6DecodeER11PASN_Stream
libopal.so.3.10.11:_ZN19H248_ContextRequestC1EjN11PASN_Object8TagClassE
libopal.so.3.10.11:_ZN19H248_ContextRequestC2EjN11PASN_Object8TagClassE
libopal.so.3.10.11:_ZN19H248_EventParameter6DecodeER11PASN_Stream
libopal.so.3.10.11:_ZN19H248_EventParameterC1EjN11PASN_Object8TagClassE
libopal.so.3.10.11:_ZN19H248_EventParameterC2EjN11PASN_Object8TagClassE
libopal.so.3.10.11:_ZN19H248_RequestedEvent6DecodeER11PASN_Stream
libopal.so.3.10.11:_ZN19H248_RequestedEventC1EjN11PASN_Object8TagClassE
libopal.so.3.10.11:_ZN19H248_RequestedEventC2EjN11PASN_Object8TagClassE
libopal.so.3.10.11:_ZN19H248_TransactionAck6DecodeER11PASN_Stream
libopal.so.3.10.11:_ZN19H248_TransactionAckC1EjN11PASN_Object8TagClassE
libopal.so.3.10.11:_ZN19H248_TransactionAckC2EjN11PASN_Object8TagClassE
libopal.so.3.10.11:_ZN19H323AudioCapability13OnReceivedPDUERK13H245_DataTypeb
libopal.so.3.10.11:_ZN19H323AudioCapability13OnReceivedPDUERK15H245_Capability
libopal.so.3.10.11:_ZN19H323AudioCapability13OnReceivedPDUERK20H245_AudioCapabilityRj
libopal.so.3.10.11:_ZN19H323AudioCapability13OnReceivedPDUERK20H245_AudioCapabilityRjN14H323Capability11CommandTypeE
libopal.so.3.10.11:_ZN19H323AudioCapability19SetTxFramesInPacketEj
libopal.so.3.10.11:_ZN19H323AudioCapabilityC1Ev
libopal.so.3.10.11:_ZN19H323AudioCapabilityC2Ev
libopal.so.3.10.11:_ZN19H323CapabilitiesSet7SetSizeEi
libopal.so.3.10.11:_ZN19H323PresenceHandler10BuildAlertER21H460P_PresenceMessageRK25H323PresenceNotifications
libopal.so.3.10.11:_ZN19H323PresenceHandler10BuildAliveER21H460P_PresenceMessageRK23H323PresenceIdentifiers
libopal.so.3.10.11:_ZN19H323PresenceHandler11BuildNotifyER21H460P_PresenceMessageRK25H323PresenceNotifications
libopal.so.3.10.11:_ZN19H323PresenceHandler11BuildRemoveER21H460P_PresenceMessageRK23H323PresenceIdentifiers
libopal.so.3.10.11:_ZN19H323PresenceHandler11BuildStatusER21H460P_PresenceMessageRK25H323PresenceNotificationsRK24H323PresenceInstructions
libopal.so.3.10.11:_ZN19H323PresenceHandler11ReceivedPDUEPK23H225_EndpointIdentifierRK16PASN_OctetString
libopal.so.3.10.11:_ZN19H323PresenceHandler12BuildRequestER21H460P_PresenceMessageRK25H323PresenceSubscriptions
libopal.so.3.10.11:_ZN19H323PresenceHandler13BuildInstructER21H460P_PresenceMessageRK24H323PresenceInstructions
libopal.so.3.10.11:_ZN19H323PresenceHandler13BuildResponseER21H460P_PresenceMessageRK25H323PresenceSubscriptions
libopal.so.3.10.11:_ZN19H323PresenceHandler14BuildAuthorizeER21H460P_PresenceMessageRK25H323PresenceSubscriptions
libopal.so.3.10.11:_ZN19H323PresenceRequest18HandleSubscriptionEb
libopal.so.3.10.11:_ZN19H323VideoCapability13OnReceivedPDUERK13H245_DataTypeb
libopal.so.3.10.11:_ZN19H323VideoCapability13OnReceivedPDUERK15H245_Capability
libopal.so.3.10.11:_ZN19H323VideoCapability13OnReceivedPDUERK20H245_VideoCapability
libopal.so.3.10.11:_ZN19H323VideoCapability13OnReceivedPDUERK20H245_VideoCapabilityN14H323Capability11CommandTypeE
libopal.so.3.10.11:_ZN19H323_G711CapabilityC1ENS_4ModeENS_5SpeedE
libopal.so.3.10.11:_ZN19H323_G711CapabilityC2ENS_4ModeENS_5SpeedE
libopal.so.3.10.11:_ZN19H45010_CfbOvrOptArg6DecodeER11PASN_Stream
libopal.so.3.10.11:_ZN19H45010_CfbOvrOptArgC1EjN11PASN_Object8TagClassE
libopal.so.3.10.11:_ZN19H45010_CfbOvrOptArgC2EjN11PASN_Object8TagClassE
libopal.so.3.10.11:_ZN19H45011_CIGetCIPLRes6DecodeER11PASN_Stream
libopal.so.3.10.11:_ZN19H45011_CIGetCIPLResC1EjN11PASN_Object8TagClassE
libopal.so.3.10.11:_ZN19H45011_CIGetCIPLResC2EjN11PASN_Object8TagClassE
libopal.so.3.10.11:_ZN19H45011_CIRequestArg6DecodeER11PASN_Stream
libopal.so.3.10.11:_ZN19H45011_CIRequestArgC1EjN11PASN_Object8TagClassE
libopal.so.3.10.11:_ZN19H45011_CIRequestArgC2EjN11PASN_Object8TagClassE
libopal.so.3.10.11:_ZN19H45011_CIRequestRes6DecodeER11PASN_Stream
libopal.so.3.10.11:_ZN19H45011_CIRequestResC1EjN11PASN_Object8TagClassE
libopal.so.3.10.11:_ZN19H45011_CIRequestResC2EjN11PASN_Object8TagClassE
libopal.so.3.10.11:_ZN19H4502_CTCompleteArg6DecodeER11PASN_Stream
libopal.so.3.10.11:_ZN19H4502_CTCompleteArgC1EjN11PASN_Object8TagClassE
libopal.so.3.10.11:_ZN19H4502_CTCompleteArgC2EjN11PASN_Object8TagClassE
libopal.so.3.10.11:_ZN19H4502_CTIdentifyRes6DecodeER11PASN_Stream
libopal.so.3.10.11:_ZN19H4502_CTIdentifyResC1EjN11PASN_Object8TagClassE
libopal.so.3.10.11:_ZN19H4502_CTIdentifyResC2EjN11PASN_Object8TagClassE
libopal.so.3.10.11:_ZN19H4502_CTInitiateArg6DecodeER11PASN_Stream
libopal.so.3.10.11:_ZN19H4502_CTInitiateArgC1EjN11PASN_Object8TagClassE
libopal.so.3.10.11:_ZN19H4502_CTInitiateArgC2EjN11PASN_Object8TagClassE
libopal.so.3.10.11:_ZN19H4503_IntResultListC1EjN11PASN_Object8TagClassE
libopal.so.3.10.11:_ZN19H4503_IntResultListC2EjN11PASN_Object8TagClassE
libopal.so.3.10.11:_ZN19H4504_RemoteHoldArg6DecodeER11PASN_Stream
libopal.so.3.10.11:_ZN19H4504_RemoteHoldArgC1EjN11PASN_Object8TagClassE
libopal.so.3.10.11:_ZN19H4504_RemoteHoldArgC2EjN11PASN_Object8TagClassE
libopal.so.3.10.11:_ZN19H4504_RemoteHoldRes6DecodeER11PASN_Stream
libopal.so.3.10.11:_ZN19H4504_RemoteHoldResC1EjN11PASN_Object8TagClassE
libopal.so.3.10.11:_ZN19H4504_RemoteHoldResC2EjN11PASN_Object8TagClassE
libopal.so.3.10.11:_ZN19H4505_ParkConditionC1EjN11PASN_Object8TagClassE
libopal.so.3.10.11:_ZN19H4505_ParkConditionC2EjN11PASN_Object8TagClassE
libopal.so.3.10.11:_ZN19H4505_ParkConditionaSEj
libopal.so.3.10.11:_ZN19H460P_PresenceAlert6DecodeER11PASN_Stream
libopal.so.3.10.11:_ZN19H460P_PresenceAlertC1EjN11PASN_Object8TagClassE
libopal.so.3.10.11:_ZN19H460P_PresenceAlertC2EjN11PASN_Object8TagClassE
libopal.so.3.10.11:_ZN19H460P_PresenceAlive6DecodeER11PASN_Stream
libopal.so.3.10.11:_ZN19H460P_PresenceAliveC1EjN11PASN_Object8TagClassE
libopal.so.3.10.11:_ZN19H460P_PresenceAliveC2EjN11PASN_Object8TagClassE
libopal.so.3.10.11:_ZN19H460P_PresenceState12CreateObjectEv
libopal.so.3.10.11:_ZN19H460P_PresenceStateC1EjN11PASN_Object8TagClassE
libopal.so.3.10.11:_ZN19H460P_PresenceStateC2EjN11PASN_Object8TagClassE
libopal.so.3.10.11:_ZN19H460TM_MultipointTM6DecodeER11PASN_Stream
libopal.so.3.10.11:_ZN19H460TM_MultipointTMC1EjN11PASN_Object8TagClassE
libopal.so.3.10.11:_ZN19H460TM_MultipointTMC2EjN11PASN_Object8TagClassE
libopal.so.3.10.11:_ZN19H460_FeatureContentC1EP12H460_Feature
libopal.so.3.10.11:_ZN19H460_FeatureContentC1ER14PASN_BMPString
libopal.so.3.10.11:_ZN19H460_FeatureContentC1ER16PASN_OctetString
libopal.so.3.10.11:_ZN19H460_FeatureContentC1ERK12H225_Content
libopal.so.3.10.11:_ZN19H460_FeatureContentC1ERK14H460_FeatureID
libopal.so.3.10.11:_ZN19H460_FeatureContentC1ERK17H225_AliasAddress
libopal.so.3.10.11:_ZN19H460_FeatureContentC1ERK17H460_FeatureTable
libopal.so.3.10.11:_ZN19H460_FeatureContentC1ERK17PGloballyUniqueID
libopal.so.3.10.11:_ZN19H460_FeatureContentC1ERK20H323TransportAddress
libopal.so.3.10.11:_ZN19H460_FeatureContentC1ERK4PURL
libopal.so.3.10.11:_ZN19H460_FeatureContentC1ERK7PString
libopal.so.3.10.11:_ZN19H460_FeatureContentC1Eb
libopal.so.3.10.11:_ZN19H460_FeatureContentC1Ejj
libopal.so.3.10.11:_ZN19H460_FeatureContentC1Ev
libopal.so.3.10.11:_ZN19H460_FeatureContentC2EP12H460_Feature
libopal.so.3.10.11:_ZN19H460_FeatureContentC2ER14PASN_BMPString
libopal.so.3.10.11:_ZN19H460_FeatureContentC2ER16PASN_OctetString
libopal.so.3.10.11:_ZN19H460_FeatureContentC2ERK12H225_Content
libopal.so.3.10.11:_ZN19H460_FeatureContentC2ERK14H460_FeatureID
libopal.so.3.10.11:_ZN19H460_FeatureContentC2ERK17H225_AliasAddress
libopal.so.3.10.11:_ZN19H460_FeatureContentC2ERK17H460_FeatureTable
libopal.so.3.10.11:_ZN19H460_FeatureContentC2ERK17PGloballyUniqueID
libopal.so.3.10.11:_ZN19H460_FeatureContentC2ERK20H323TransportAddress
libopal.so.3.10.11:_ZN19H460_FeatureContentC2ERK4PURL
libopal.so.3.10.11:_ZN19H460_FeatureContentC2ERK7PString
libopal.so.3.10.11:_ZN19H460_FeatureContentC2Eb
libopal.so.3.10.11:_ZN19H460_FeatureContentC2Ejj
libopal.so.3.10.11:_ZN19H460_FeatureContentC2Ev
libopal.so.3.10.11:_ZN19H501_DescriptorInfo6DecodeER11PASN_Stream
libopal.so.3.10.11:_ZN19H501_DescriptorInfoC1EjN11PASN_Object8TagClassE
libopal.so.3.10.11:_ZN19H501_DescriptorInfoC2EjN11PASN_Object8TagClassE
libopal.so.3.10.11:_ZN19H501_ServiceRelease6DecodeER11PASN_Stream
libopal.so.3.10.11:_ZN19H501_ServiceReleaseC1EjN11PASN_Object8TagClassE
libopal.so.3.10.11:_ZN19H501_ServiceReleaseC2EjN11PASN_Object8TagClassE
libopal.so.3.10.11:_ZN19H501_ServiceRequest6DecodeER11PASN_Stream
libopal.so.3.10.11:_ZN19H501_ServiceRequestC1EjN11PASN_Object8TagClassE
libopal.so.3.10.11:_ZN19H501_ServiceRequestC2EjN11PASN_Object8TagClassE
libopal.so.3.10.11:_ZN19H501_UsageRejection6DecodeER11PASN_Stream
libopal.so.3.10.11:_ZN19H501_UsageRejectionC1EjN11PASN_Object8TagClassE
libopal.so.3.10.11:_ZN19H501_UsageRejectionC2EjN11PASN_Object8TagClassE
libopal.so.3.10.11:_ZN19IAX2SequenceNumbers10SetInSeqNoEi
libopal.so.3.10.11:_ZN19IAX2SequenceNumbers11SetOutSeqNoEi
libopal.so.3.10.11:_ZN19IAX2SequenceNumbers12CopyContentsERS_
libopal.so.3.10.11:_ZN19IAX2SequenceNumbers13SetInOutSeqNoEii
libopal.so.3.10.11:_ZN19IAX2SequenceNumbers13ZeroAllValuesEv
libopal.so.3.10.11:_ZN19IAX2SequenceNumbers17IsFirstReplyFrameEv
libopal.so.3.10.11:_ZN19IAX2SequenceNumbers17IsSequenceNosZeroEv
libopal.so.3.10.11:_ZN19IAX2SequenceNumbers18SetAckSequenceInfoERS_
libopal.so.3.10.11:_ZN19IAX2SequenceNumbers22IncomingMessageInOrderER13IAX2FullFrame
libopal.so.3.10.11:_ZN19IAX2SequenceNumbers25MassageSequenceForSendingER13IAX2FullFrame
libopal.so.3.10.11:_ZN19IAX2SequenceNumbers7InSeqNoEv
libopal.so.3.10.11:_ZN19IAX2SequenceNumbers8OutSeqNoEv
libopal.so.3.10.11:_ZN19IAX2SequenceNumberseqERS_
libopal.so.3.10.11:_ZN19IAX2SequenceNumbersneERS_
libopal.so.3.10.11:_ZN19OpalFileMediaStream8ReadDataEPhiRi
libopal.so.3.10.11:_ZN19OpalFileMediaStream9WriteDataEPKhiRi
libopal.so.3.10.11:_ZN19OpalFileMediaStreamC1ER14OpalConnectionRK15OpalMediaFormatjbP5PFileb
libopal.so.3.10.11:_ZN19OpalFileMediaStreamC1ER14OpalConnectionRK15OpalMediaFormatjbRK9PFilePath
libopal.so.3.10.11:_ZN19OpalFileMediaStreamC2ER14OpalConnectionRK15OpalMediaFormatjbP5PFileb
libopal.so.3.10.11:_ZN19OpalFileMediaStreamC2ER14OpalConnectionRK15OpalMediaFormatjbRK9PFilePath
libopal.so.3.10.11:_ZN19OpalH224MediaFormatC1EPKcN13RTP_DataFrame12PayloadTypesE
libopal.so.3.10.11:_ZN19OpalH224MediaFormatC2EPKcN13RTP_DataFrame12PayloadTypesE
libopal.so.3.10.11:_ZN19OpalH224MediaStream10ReadPacketER13RTP_DataFrame
libopal.so.3.10.11:_ZN19OpalH224MediaStream11WritePacketER13RTP_DataFrame
libopal.so.3.10.11:_ZN19OpalH224MediaStream13InternalCloseEv
libopal.so.3.10.11:_ZN19OpalH224MediaStream17OnStartMediaPatchEv
libopal.so.3.10.11:_ZN19OpalH224MediaStreamC1ER14OpalConnectionR15OpalH224HandlerRK15OpalMediaFormatjb
libopal.so.3.10.11:_ZN19OpalH224MediaStreamC2ER14OpalConnectionR15OpalH224HandlerRK15OpalMediaFormatjb
libopal.so.3.10.11:_ZN19OpalH224MediaStreamD0Ev
libopal.so.3.10.11:_ZN19OpalH224MediaStreamD1Ev
libopal.so.3.10.11:_ZN19OpalH224MediaStreamD2Ev
libopal.so.3.10.11:_ZN19OpalIAX2MediaStream10ReadPacketER13RTP_DataFrame
libopal.so.3.10.11:_ZN19OpalIAX2MediaStream4OpenEv
libopal.so.3.10.11:_ZN19OpalIAX2MediaStream5StartEv
libopal.so.3.10.11:_ZN19OpalIAX2MediaStream9WriteDataEPKhiRi
libopal.so.3.10.11:_ZN19OpalIAX2MediaStreamC1ER14IAX2ConnectionRK15OpalMediaFormatjb
libopal.so.3.10.11:_ZN19OpalIAX2MediaStreamC2ER14IAX2ConnectionRK15OpalMediaFormatjb
libopal.so.3.10.11:_ZN19OpalIAX2MediaStreamD0Ev
libopal.so.3.10.11:_ZN19OpalIAX2MediaStreamD1Ev
libopal.so.3.10.11:_ZN19OpalIAX2MediaStreamD2Ev
libopal.so.3.10.11:_ZN19OpalLIDRegistrationC1EPKc
libopal.so.3.10.11:_ZN19OpalLIDRegistrationC2EPKc
libopal.so.3.10.11:_ZN19OpalLIDRegistrationD0Ev
libopal.so.3.10.11:_ZN19OpalLIDRegistrationD1Ev
libopal.so.3.10.11:_ZN19OpalLIDRegistrationD2Ev
libopal.so.3.10.11:_ZN19OpalLineMediaStream10ReadPacketER13RTP_DataFrame
libopal.so.3.10.11:_ZN19OpalLineMediaStream11SetDataSizeEii
libopal.so.3.10.11:_ZN19OpalLineMediaStream11WritePacketER13RTP_DataFrame
libopal.so.3.10.11:_ZN19OpalLineMediaStream13InternalCloseEv
libopal.so.3.10.11:_ZN19OpalLineMediaStream4OpenEv
libopal.so.3.10.11:_ZN19OpalLineMediaStream8ReadDataEPhiRi
libopal.so.3.10.11:_ZN19OpalLineMediaStream9WriteDataEPKhiRi
libopal.so.3.10.11:_ZN19OpalLineMediaStreamC1ER18OpalLineConnectionRK15OpalMediaFormatjbR8OpalLine
libopal.so.3.10.11:_ZN19OpalLineMediaStreamC2ER18OpalLineConnectionRK15OpalMediaFormatjbR8OpalLine
libopal.so.3.10.11:_ZN19OpalLineMediaStreamD0Ev
libopal.so.3.10.11:_ZN19OpalLineMediaStreamD1Ev
libopal.so.3.10.11:_ZN19OpalLineMediaStreamD2Ev
libopal.so.3.10.11:_ZN19OpalLocalConnection10OnIncomingEv
libopal.so.3.10.11:_ZN19OpalLocalConnection10OnOutgoingEv
libopal.so.3.10.11:_ZN19OpalLocalConnection11SetAlertingERK7PStringb
libopal.so.3.10.11:_ZN19OpalLocalConnection12SetConnectedEv
libopal.so.3.10.11:_ZN19OpalLocalConnection14AcceptIncomingEv
libopal.so.3.10.11:_ZN19OpalLocalConnection15OnOutgoingSetUpEv
libopal.so.3.10.11:_ZN19OpalLocalConnection15OpenMediaStreamERK15OpalMediaFormatjb
libopal.so.3.10.11:_ZN19OpalLocalConnection15SetUpConnectionEv
libopal.so.3.10.11:_ZN19OpalLocalConnection16AlertingIncomingEv
libopal.so.3.10.11:_ZN19OpalLocalConnection17CreateMediaStreamERK15OpalMediaFormatjb
libopal.so.3.10.11:_ZN19OpalLocalConnection19SendUserInputStringERK7PString
libopal.so.3.10.11:_ZN19OpalLocalConnection20OnApplyStringOptionsEv
libopal.so.3.10.11:_ZN19OpalLocalConnectionC1ER8OpalCallR17OpalLocalEndPointPvjPN14OpalConnection13StringOptionsEc
libopal.so.3.10.11:_ZN19OpalLocalConnectionC2ER8OpalCallR17OpalLocalEndPointPvjPN14OpalConnection13StringOptionsEc
libopal.so.3.10.11:_ZN19OpalLocalConnectionD0Ev
libopal.so.3.10.11:_ZN19OpalLocalConnectionD1Ev
libopal.so.3.10.11:_ZN19OpalLocalConnectionD2Ev
libopal.so.3.10.11:_ZN19OpalLocalEndPoint_C14OnIncomingCallER19OpalLocalConnection
libopal.so.3.10.11:_ZN19OpalLocalEndPoint_C14OnOutgoingCallERK19OpalLocalConnection
libopal.so.3.10.11:_ZN19OpalLocalEndPoint_C15OnReadMediaDataERK19OpalLocalConnectionRK15OpalMediaStreamPviRi
libopal.so.3.10.11:_ZN19OpalLocalEndPoint_C16OnReadMediaFrameERK19OpalLocalConnectionRK15OpalMediaStreamR13RTP_DataFrame
libopal.so.3.10.11:_ZN19OpalLocalEndPoint_C16OnWriteMediaDataERK19OpalLocalConnectionRK15OpalMediaStreamPKviRi
libopal.so.3.10.11:_ZN19OpalLocalEndPoint_C17OnWriteMediaFrameERK19OpalLocalConnectionRK15OpalMediaStreamR13RTP_DataFrame
libopal.so.3.10.11:_ZN19OpalLocalEndPoint_CC1ER13OpalManager_C
libopal.so.3.10.11:_ZN19OpalLocalEndPoint_CC2ER13OpalManager_C
libopal.so.3.10.11:_ZN19OpalMSRPMediaStream10ReadPacketER13RTP_DataFrame
libopal.so.3.10.11:_ZN19OpalMSRPMediaStream11WritePacketER13RTP_DataFrame
libopal.so.3.10.11:_ZN19OpalMSRPMediaStream13OnReceiveMSRPER15OpalMSRPManagerRNS0_12IncomingMSRPE
libopal.so.3.10.11:_ZN19OpalMSRPMediaStream4OpenEv
libopal.so.3.10.11:_ZN19OpalMSRPMediaStreamC1ER14OpalConnectionRK15OpalMediaFormatjbR20OpalMSRPMediaSession
libopal.so.3.10.11:_ZN19OpalMSRPMediaStreamC2ER14OpalConnectionRK15OpalMediaFormatjbR20OpalMSRPMediaSession
libopal.so.3.10.11:_ZN19OpalMSRPMediaStreamD0Ev
libopal.so.3.10.11:_ZN19OpalMSRPMediaStreamD1Ev
libopal.so.3.10.11:_ZN19OpalMSRPMediaStreamD2Ev
libopal.so.3.10.11:_ZN19OpalMediaFormatList6RemoveERK12PStringArray
libopal.so.3.10.11:_ZN19OpalMediaFormatList7ReorderERK12PStringArray
libopal.so.3.10.11:_ZN19OpalMediaFormatListC1ERK15OpalMediaFormat
libopal.so.3.10.11:_ZN19OpalMediaFormatListC1Ev
libopal.so.3.10.11:_ZN19OpalMediaFormatListC2ERK15OpalMediaFormat
libopal.so.3.10.11:_ZN19OpalMediaFormatListC2Ev
libopal.so.3.10.11:_ZN19OpalMediaFormatListmIERK15OpalMediaFormat
libopal.so.3.10.11:_ZN19OpalMediaFormatListmIERKS_
libopal.so.3.10.11:_ZN19OpalMediaFormatListpLERK15OpalMediaFormat
libopal.so.3.10.11:_ZN19OpalMediaFormatListpLERK7PString
libopal.so.3.10.11:_ZN19OpalMediaFormatListpLERKS_
libopal.so.3.10.11:_ZN19OpalMediaFormatPairC1ERK15OpalMediaFormatS2_
libopal.so.3.10.11:_ZN19OpalMediaFormatPairC2ERK15OpalMediaFormatS2_
libopal.so.3.10.11:_ZN19OpalMediaOptionEnum6AssignERK15OpalMediaOption
libopal.so.3.10.11:_ZN19OpalMediaOptionEnum8ReadFromERSi
libopal.so.3.10.11:_ZN19OpalMediaOptionEnum8SetValueEi
libopal.so.3.10.11:_ZN19OpalMediaOptionEnumC1EPKcb
libopal.so.3.10.11:_ZN19OpalMediaOptionEnumC1EPKcbPKS1_iN15OpalMediaOption9MergeTypeEi
libopal.so.3.10.11:_ZN19OpalMediaOptionEnumC2EPKcb
libopal.so.3.10.11:_ZN19OpalMediaOptionEnumC2EPKcbPKS1_iN15OpalMediaOption9MergeTypeEi
libopal.so.3.10.11:_ZN19OpalMediaStatistics3FaxC1Ev
libopal.so.3.10.11:_ZN19OpalMediaStatistics3FaxC2Ev
libopal.so.3.10.11:_ZN19OpalMediaStatisticsC1Ev
libopal.so.3.10.11:_ZN19OpalMediaStatisticsC2Ev
libopal.so.3.10.11:_ZN19OpalMixerConnection10OnReleasedEv
libopal.so.3.10.11:_ZN19OpalMixerConnection13SetListenOnlyEb
libopal.so.3.10.11:_ZN19OpalMixerConnection17CreateMediaStreamERK15OpalMediaFormatjb
libopal.so.3.10.11:_ZN19OpalMixerConnection17OnStartMediaPatchER14OpalMediaPatch
libopal.so.3.10.11:_ZN19OpalMixerConnection17SendUserInputToneEcj
libopal.so.3.10.11:_ZN19OpalMixerConnection19SendUserInputStringERK7PString
libopal.so.3.10.11:_ZN19OpalMixerConnection20OnApplyStringOptionsEv
libopal.so.3.10.11:_ZN19OpalMixerConnectionC1E8PSafePtrI13OpalMixerNode12PSafePtrBaseER8OpalCallR17OpalMixerEndPointPvjPN14OpalConnection13StringOptionsE
libopal.so.3.10.11:_ZN19OpalMixerConnectionC2E8PSafePtrI13OpalMixerNode12PSafePtrBaseER8OpalCallR17OpalMixerEndPointPvjPN14OpalConnection13StringOptionsE
libopal.so.3.10.11:_ZN19OpalMixerConnectionD0Ev
libopal.so.3.10.11:_ZN19OpalMixerConnectionD1Ev
libopal.so.3.10.11:_ZN19OpalMixerConnectionD2Ev
libopal.so.3.10.11:_ZN19OpalNullMediaStream8ReadDataEPhiRi
libopal.so.3.10.11:_ZN19OpalNullMediaStream9SetPausedEbb
libopal.so.3.10.11:_ZN19OpalNullMediaStream9WriteDataEPKhiRi
libopal.so.3.10.11:_ZN19OpalNullMediaStreamC1ER14OpalConnectionRK15OpalMediaFormatjbb
libopal.so.3.10.11:_ZN19OpalNullMediaStreamC1ER14OpalConnectionRK15OpalMediaFormatjbbb
libopal.so.3.10.11:_ZN19OpalNullMediaStreamC2ER14OpalConnectionRK15OpalMediaFormatjbb
libopal.so.3.10.11:_ZN19OpalNullMediaStreamC2ER14OpalConnectionRK15OpalMediaFormatjbbb
libopal.so.3.10.11:_ZN19OpalRTPAVPMediaTypeC1EPKcS1_jN13OpalMediaType13AutoStartModeE
libopal.so.3.10.11:_ZN19OpalRTPAVPMediaTypeC2EPKcS1_jN13OpalMediaType13AutoStartModeE
libopal.so.3.10.11:_ZN19OpalRTPMediaSession17CreateMediaStreamERK15OpalMediaFormatjb
libopal.so.3.10.11:_ZN19OpalRTPMediaSession25CreateSDPMediaDescriptionERK20OpalTransportAddress
libopal.so.3.10.11:_ZN19OpalRTPMediaSession5CloseEv
libopal.so.3.10.11:_ZN19OpalRTPMediaSession6AttachEP11RTP_Session
libopal.so.3.10.11:_ZN19OpalRTPMediaSessionC1ER14OpalConnectionRK13OpalMediaTypej
libopal.so.3.10.11:_ZN19OpalRTPMediaSessionC1ERKS_
libopal.so.3.10.11:_ZN19OpalRTPMediaSessionC2ER14OpalConnectionRK13OpalMediaTypej
libopal.so.3.10.11:_ZN19OpalRTPMediaSessionC2ERKS_
libopal.so.3.10.11:_ZN19OpalRTPMediaSessionD0Ev
libopal.so.3.10.11:_ZN19OpalRTPMediaSessionD1Ev
libopal.so.3.10.11:_ZN19OpalRTPMediaSessionD2Ev
libopal.so.3.10.11:_ZN19OpalSilenceDetector12SetClockRateEi
libopal.so.3.10.11:_ZN19OpalSilenceDetector13AdaptiveResetEv
libopal.so.3.10.11:_ZN19OpalSilenceDetector13SetParametersERKNS_6ParamsEi
libopal.so.3.10.11:_ZN19OpalSilenceDetector14ReceivedPacketER13RTP_DataFramel
libopal.so.3.10.11:_ZN19OpalSilenceDetectorC1ERKNS_6ParamsE
libopal.so.3.10.11:_ZN19OpalSilenceDetectorC2ERKNS_6ParamsE
libopal.so.3.10.11:_ZN19OpalVideoTranscoder14ExecuteCommandERK16OpalMediaCommand
libopal.so.3.10.11:_ZN19OpalVideoTranscoder18UpdateMediaFormatsERK15OpalMediaFormatS2_
libopal.so.3.10.11:_ZN19OpalVideoTranscoder7ConvertERK13RTP_DataFrameRS0_
libopal.so.3.10.11:_ZN19OpalVideoTranscoderC1ERK15OpalMediaFormatS2_
libopal.so.3.10.11:_ZN19OpalVideoTranscoderC2ERK15OpalMediaFormatS2_
libopal.so.3.10.11:_ZN19SDPMediaDescription10PostDecodeERK19OpalMediaFormatList
libopal.so.3.10.11:_ZN19SDPMediaDescription12SetAttributeERK7PStringS2_
libopal.so.3.10.11:_ZN19SDPMediaDescription14AddMediaFormatERK15OpalMediaFormat
libopal.so.3.10.11:_ZN19SDPMediaDescription15AddMediaFormatsERK19OpalMediaFormatListRK13OpalMediaType
libopal.so.3.10.11:_ZN19SDPMediaDescription17AddSDPMediaFormatEP14SDPMediaFormat
libopal.so.3.10.11:_ZN19SDPMediaDescription19ProcessMediaOptionsER14SDPMediaFormatRK15OpalMediaFormat
libopal.so.3.10.11:_ZN19SDPMediaDescription19SetTransportAddressERK20OpalTransportAddress
libopal.so.3.10.11:_ZN19SDPMediaDescription21CreateSDPMediaFormatsERK12PStringArray
libopal.so.3.10.11:_ZN19SDPMediaDescription6DecodeERK12PStringArray
libopal.so.3.10.11:_ZN19SDPMediaDescription6DecodeEcRK7PString
libopal.so.3.10.11:_ZN19SDPMediaDescription9PreEncodeEv
libopal.so.3.10.11:_ZN19SDPMediaDescriptionC1ERK20OpalTransportAddressRK13OpalMediaType
libopal.so.3.10.11:_ZN19SDPMediaDescriptionC2ERK20OpalTransportAddressRK13OpalMediaType
libopal.so.3.10.11:_ZN19SIPSubscribeHandler10SendStatusEN7SIP_PDU11StatusCodesEN10SIPHandler5StateE
libopal.so.3.10.11:_ZN19SIPSubscribeHandler11SendRequestEN10SIPHandler5StateE
libopal.so.3.10.11:_ZN19SIPSubscribeHandler12OnReceivedOKER14SIPTransactionR7SIP_PDU
libopal.so.3.10.11:_ZN19SIPSubscribeHandler14DispatchNOTIFYER7SIP_PDUS1_
libopal.so.3.10.11:_ZN19SIPSubscribeHandler15WriteSIPHandlerER13OpalTransportb
libopal.so.3.10.11:_ZN19SIPSubscribeHandler16OnReceivedNOTIFYER7SIP_PDU
libopal.so.3.10.11:_ZN19SIPSubscribeHandler16UpdateParametersERKN12SIPSubscribe6ParamsE
libopal.so.3.10.11:_ZN19SIPSubscribeHandler17CreateTransactionER13OpalTransport
libopal.so.3.10.11:_ZN19SIPSubscribeHandler8OnFailedERK7SIP_PDU
libopal.so.3.10.11:_ZN19SIPSubscribeHandlerC1ER11SIPEndPointRKN12SIPSubscribe6ParamsE
libopal.so.3.10.11:_ZN19SIPSubscribeHandlerC2ER11SIPEndPointRKN12SIPSubscribe6ParamsE
libopal.so.3.10.11:_ZN19SIPSubscribeHandlerD0Ev
libopal.so.3.10.11:_ZN19SIPSubscribeHandlerD1Ev
libopal.so.3.10.11:_ZN19SIPSubscribeHandlerD2Ev
libopal.so.3.10.11:_ZN19X880_GeneralProblemC1EjN11PASN_Object8TagClassE
libopal.so.3.10.11:_ZN19X880_GeneralProblemC2EjN11PASN_Object8TagClassE
libopal.so.3.10.11:_ZN19X880_GeneralProblemaSEi
libopal.so.3.10.11:_ZN19X880_GeneralProblemaSEj
libopal.so.3.10.11:_ZN19X880_Reject_problem12CreateObjectEv
libopal.so.3.10.11:_ZN19X880_Reject_problemC1EjN11PASN_Object8TagClassE
libopal.so.3.10.11:_ZN19X880_Reject_problemC2EjN11PASN_Object8TagClassE
libopal.so.3.10.11:_ZN19X880_Reject_problemcvR18X880_InvokeProblemEv
libopal.so.3.10.11:_ZN19X880_Reject_problemcvR19X880_GeneralProblemEv
libopal.so.3.10.11:_ZN19X880_Reject_problemcvR23X880_ReturnErrorProblemEv
libopal.so.3.10.11:_ZN19X880_Reject_problemcvR24X880_ReturnResultProblemEv
libopal.so.3.10.11:_ZN20H225_AdmissionReject6DecodeER11PASN_Stream
libopal.so.3.10.11:_ZN20H225_AdmissionRejectC1EjN11PASN_Object8TagClassE
libopal.so.3.10.11:_ZN20H225_AdmissionRejectC2EjN11PASN_Object8TagClassE
libopal.so.3.10.11:_ZN20H225_BandwidthReject6DecodeER11PASN_Stream
libopal.so.3.10.11:_ZN20H225_BandwidthRejectC1EjN11PASN_Object8TagClassE
libopal.so.3.10.11:_ZN20H225_BandwidthRejectC2EjN11PASN_Object8TagClassE
libopal.so.3.10.11:_ZN20H225_CryptoH323Token12CreateObjectEv
libopal.so.3.10.11:_ZN20H225_CryptoH323TokenC1EjN11PASN_Object8TagClassE
libopal.so.3.10.11:_ZN20H225_CryptoH323TokenC2EjN11PASN_Object8TagClassE
libopal.so.3.10.11:_ZN20H225_CryptoH323TokencvR11H235_SIGNEDI24H235_EncodedPwdCertTokenEEv
libopal.so.3.10.11:_ZN20H225_CryptoH323TokencvR11H235_SIGNEDI26H225_EncodedFastStartTokenEEv
libopal.so.3.10.11:_ZN20H225_CryptoH323TokencvR14H235_ENCRYPTEDI24H235_EncodedPwdCertTokenEEv
libopal.so.3.10.11:_ZN20H225_CryptoH323TokencvR16H235_CryptoTokenEv
libopal.so.3.10.11:_ZN20H225_CryptoH323TokencvR36H225_CryptoH323Token_cryptoEPPwdHashEv
libopal.so.3.10.11:_ZN20H225_CryptoH323TokencvR36H225_CryptoH323Token_cryptoGKPwdHashEv
libopal.so.3.10.11:_ZN20H225_DisengageReason12CreateObjectEv
libopal.so.3.10.11:_ZN20H225_DisengageReasonC1EjN11PASN_Object8TagClassE
libopal.so.3.10.11:_ZN20H225_DisengageReasonC2EjN11PASN_Object8TagClassE
libopal.so.3.10.11:_ZN20H225_DisengageReject6DecodeER11PASN_Stream
libopal.so.3.10.11:_ZN20H225_DisengageRejectC1EjN11PASN_Object8TagClassE
libopal.so.3.10.11:_ZN20H225_DisengageRejectC2EjN11PASN_Object8TagClassE
libopal.so.3.10.11:_ZN20H225_H221NonStandard6DecodeER11PASN_Stream
libopal.so.3.10.11:_ZN20H225_H221NonStandardC1EjN11PASN_Object8TagClassE
libopal.so.3.10.11:_ZN20H225_H221NonStandardC2EjN11PASN_Object8TagClassE
libopal.so.3.10.11:_ZN20H225_LocationConfirm6DecodeER11PASN_Stream
libopal.so.3.10.11:_ZN20H225_LocationConfirmC1EjN11PASN_Object8TagClassE
libopal.so.3.10.11:_ZN20H225_LocationConfirmC2EjN11PASN_Object8TagClassE
libopal.so.3.10.11:_ZN20H225_LocationRequest6DecodeER11PASN_Stream
libopal.so.3.10.11:_ZN20H225_LocationRequestC1EjN11PASN_Object8TagClassE
libopal.so.3.10.11:_ZN20H225_LocationRequestC2EjN11PASN_Object8TagClassE
libopal.so.3.10.11:_ZN20H225_NatureOfAddress12CreateObjectEv
libopal.so.3.10.11:_ZN20H225_NatureOfAddressC1EjN11PASN_Object8TagClassE
libopal.so.3.10.11:_ZN20H225_NatureOfAddressC2EjN11PASN_Object8TagClassE
libopal.so.3.10.11:_ZN20H225_SecurityErrors212CreateObjectEv
libopal.so.3.10.11:_ZN20H225_SecurityErrors2C1EjN11PASN_Object8TagClassE
libopal.so.3.10.11:_ZN20H225_SecurityErrors2C2EjN11PASN_Object8TagClassE
libopal.so.3.10.11:_ZN20H225_StimulusControl6DecodeER11PASN_Stream
libopal.so.3.10.11:_ZN20H225_StimulusControlC1EjN11PASN_Object8TagClassE
libopal.so.3.10.11:_ZN20H225_StimulusControlC2EjN11PASN_Object8TagClassE
libopal.so.3.10.11:_ZN20H225_SupportedPrefix6DecodeER11PASN_Stream
libopal.so.3.10.11:_ZN20H225_SupportedPrefixC1EjN11PASN_Object8TagClassE
libopal.so.3.10.11:_ZN20H225_SupportedPrefixC2EjN11PASN_Object8TagClassE
libopal.so.3.10.11:_ZN20H235_ChallengeStringC1EPKc
libopal.so.3.10.11:_ZN20H235_ChallengeStringC1ERK10PBYTEArray
libopal.so.3.10.11:_ZN20H235_ChallengeStringC1ERK7PString
libopal.so.3.10.11:_ZN20H235_ChallengeStringC1EjN11PASN_Object8TagClassE
libopal.so.3.10.11:_ZN20H235_ChallengeStringC2EPKc
libopal.so.3.10.11:_ZN20H235_ChallengeStringC2ERK10PBYTEArray
libopal.so.3.10.11:_ZN20H235_ChallengeStringC2ERK7PString
libopal.so.3.10.11:_ZN20H235_ChallengeStringC2EjN11PASN_Object8TagClassE
libopal.so.3.10.11:_ZN20H235_ChallengeStringaSEPKc
libopal.so.3.10.11:_ZN20H235_ChallengeStringaSERK10PBYTEArray
libopal.so.3.10.11:_ZN20H235_ChallengeStringaSERK7PString
libopal.so.3.10.11:_ZN20H235_ECGDSASignature6DecodeER11PASN_Stream
libopal.so.3.10.11:_ZN20H235_ECGDSASignatureC1EjN11PASN_Object8TagClassE
libopal.so.3.10.11:_ZN20H235_ECGDSASignatureC2EjN11PASN_Object8TagClassE
libopal.so.3.10.11:_ZN20H235_KeySyncMaterial6DecodeER11PASN_Stream
libopal.so.3.10.11:_ZN20H235_KeySyncMaterialC1EjN11PASN_Object8TagClassE
libopal.so.3.10.11:_ZN20H235_KeySyncMaterialC2EjN11PASN_Object8TagClassE
libopal.so.3.10.11:_ZN20H245_AudioCapability12CreateObjectEv
libopal.so.3.10.11:_ZN20H245_AudioCapabilityC1EjN11PASN_Object8TagClassE
libopal.so.3.10.11:_ZN20H245_AudioCapabilityC2EjN11PASN_Object8TagClassE
libopal.so.3.10.11:_ZN20H245_AudioCapabilitycvR18H245_VBDCapabilityEv
libopal.so.3.10.11:_ZN20H245_AudioCapabilitycvR19H245_G729ExtensionsEv
libopal.so.3.10.11:_ZN20H245_AudioCapabilitycvR22H245_GenericCapabilityEv
libopal.so.3.10.11:_ZN20H245_AudioCapabilitycvR23H245_GSMAudioCapabilityEv
libopal.so.3.10.11:_ZN20H245_AudioCapabilitycvR25H245_NonStandardParameterEv
libopal.so.3.10.11:_ZN20H245_AudioCapabilitycvR26H245_AudioCapability_g7231Ev
libopal.so.3.10.11:_ZN20H245_AudioCapabilitycvR26H245_G7231AnnexCCapabilityEv
libopal.so.3.10.11:_ZN20H245_AudioCapabilitycvR27H245_IS11172AudioCapabilityEv
libopal.so.3.10.11:_ZN20H245_AudioCapabilitycvR27H245_IS13818AudioCapabilityEv
libopal.so.3.10.11:_ZN20H245_AudioCapabilitycvR28H245_NoPTAudioToneCapabilityEv
libopal.so.3.10.11:_ZN20H245_AudioCapabilitycvR38H245_NoPTAudioTelephonyEventCapabilityEv
libopal.so.3.10.11:_ZN20H245_AudioMode_g723112CreateObjectEv
libopal.so.3.10.11:_ZN20H245_AudioMode_g7231C1EjN11PASN_Object8TagClassE
libopal.so.3.10.11:_ZN20H245_AudioMode_g7231C2EjN11PASN_Object8TagClassE
libopal.so.3.10.11:_ZN20H245_CompressionType12CreateObjectEv
libopal.so.3.10.11:_ZN20H245_CompressionTypeC1EjN11PASN_Object8TagClassE
libopal.so.3.10.11:_ZN20H245_CompressionTypeC2EjN11PASN_Object8TagClassE
libopal.so.3.10.11:_ZN20H245_CompressionTypecvR11H245_V42bisEv
libopal.so.3.10.11:_ZN20H245_FECData_rfc27336DecodeER11PASN_Stream
libopal.so.3.10.11:_ZN20H245_FECData_rfc2733C1EjN11PASN_Object8TagClassE
libopal.so.3.10.11:_ZN20H245_FECData_rfc2733C2EjN11PASN_Object8TagClassE
libopal.so.3.10.11:_ZN20H245_G7231AnnexCMode6DecodeER11PASN_Stream
libopal.so.3.10.11:_ZN20H245_G7231AnnexCModeC1EjN11PASN_Object8TagClassE
libopal.so.3.10.11:_ZN20H245_G7231AnnexCModeC2EjN11PASN_Object8TagClassE
libopal.so.3.10.11:_ZN20H245_H2250Capability6DecodeER11PASN_Stream
libopal.so.3.10.11:_ZN20H245_H2250CapabilityC1EjN11PASN_Object8TagClassE
libopal.so.3.10.11:_ZN20H245_H2250CapabilityC2EjN11PASN_Object8TagClassE
libopal.so.3.10.11:_ZN20H245_ModeDescriptionC1EjN11PASN_Object8TagClassE
libopal.so.3.10.11:_ZN20H245_ModeDescriptionC2EjN11PASN_Object8TagClassE
libopal.so.3.10.11:_ZN20H245_ModeElementType12CreateObjectEv
libopal.so.3.10.11:_ZN20H245_ModeElementTypeC1EjN11PASN_Object8TagClassE
libopal.so.3.10.11:_ZN20H245_ModeElementTypeC2EjN11PASN_Object8TagClassE
libopal.so.3.10.11:_ZN20H245_ModeElementTypecvR12H245_FECModeEv
libopal.so.3.10.11:_ZN20H245_ModeElementTypecvR13H245_DataModeEv
libopal.so.3.10.11:_ZN20H245_ModeElementTypecvR13H245_H235ModeEv
libopal.so.3.10.11:_ZN20H245_ModeElementTypecvR14H245_AudioModeEv
libopal.so.3.10.11:_ZN20H245_ModeElementTypecvR14H245_VideoModeEv
libopal.so.3.10.11:_ZN20H245_ModeElementTypecvR15H245_DepFECModeEv
libopal.so.3.10.11:_ZN20H245_ModeElementTypecvR19H245_EncryptionModeEv
libopal.so.3.10.11:_ZN20H245_ModeElementTypecvR25H245_NonStandardParameterEv
libopal.so.3.10.11:_ZN20H245_ModeElementTypecvR29H245_RedundancyEncodingDTModeEv
libopal.so.3.10.11:_ZN20H245_ModeElementTypecvR30H245_MultiplePayloadStreamModeEv
libopal.so.3.10.11:_ZN20H245_ModeElementTypecvR31H245_MultiplexedStreamParameterEv
libopal.so.3.10.11:_ZN20H245_MultiplexFormat12CreateObjectEv
libopal.so.3.10.11:_ZN20H245_MultiplexFormatC1EjN11PASN_Object8TagClassE
libopal.so.3.10.11:_ZN20H245_MultiplexFormatC2EjN11PASN_Object8TagClassE
libopal.so.3.10.11:_ZN20H245_MultiplexFormatcvR19H245_H222CapabilityEv
libopal.so.3.10.11:_ZN20H245_MultiplexFormatcvR19H245_H223CapabilityEv
libopal.so.3.10.11:_ZN20H245_MultiplexFormatcvR25H245_NonStandardParameterEv
libopal.so.3.10.11:_ZN20H245_NewATMVCCommand6DecodeER11PASN_Stream
libopal.so.3.10.11:_ZN20H245_NewATMVCCommandC1EjN11PASN_Object8TagClassE
libopal.so.3.10.11:_ZN20H245_NewATMVCCommandC2EjN11PASN_Object8TagClassE
libopal.so.3.10.11:_ZN20H245_RemoteMCRequest12CreateObjectEv
libopal.so.3.10.11:_ZN20H245_RemoteMCRequestC1EjN11PASN_Object8TagClassE
libopal.so.3.10.11:_ZN20H245_RemoteMCRequestC2EjN11PASN_Object8TagClassE
libopal.so.3.10.11:_ZN20H245_ResponseMessage12CreateObjectEv
libopal.so.3.10.11:_ZN20H245_ResponseMessageC1EjN11PASN_Object8TagClassE
libopal.so.3.10.11:_ZN20H245_ResponseMessageC2EjN11PASN_Object8TagClassE
libopal.so.3.10.11:_ZN20H245_ResponseMessagecvR19H245_GenericMessageEv
libopal.so.3.10.11:_ZN20H245_ResponseMessagecvR19H245_RequestModeAckEv
libopal.so.3.10.11:_ZN20H245_ResponseMessagecvR22H245_MultilinkResponseEv
libopal.so.3.10.11:_ZN20H245_ResponseMessagecvR22H245_RequestModeRejectEv
libopal.so.3.10.11:_ZN20H245_ResponseMessagecvR23H245_ConferenceResponseEv
libopal.so.3.10.11:_ZN20H245_ResponseMessagecvR23H245_MaintenanceLoopAckEv
libopal.so.3.10.11:_ZN20H245_ResponseMessagecvR23H245_NonStandardMessageEv
libopal.so.3.10.11:_ZN20H245_ResponseMessagecvR26H245_MaintenanceLoopRejectEv
libopal.so.3.10.11:_ZN20H245_ResponseMessagecvR26H245_MultiplexEntrySendAckEv
libopal.so.3.10.11:_ZN20H245_ResponseMessagecvR26H245_OpenLogicalChannelAckEv
libopal.so.3.10.11:_ZN20H245_ResponseMessagecvR27H245_CloseLogicalChannelAckEv
libopal.so.3.10.11:_ZN20H245_ResponseMessagecvR27H245_RequestChannelCloseAckEv
libopal.so.3.10.11:_ZN20H245_ResponseMessagecvR27H245_RoundTripDelayResponseEv
libopal.so.3.10.11:_ZN20H245_ResponseMessagecvR29H245_LogicalChannelRateRejectEv
libopal.so.3.10.11:_ZN20H245_ResponseMessagecvR29H245_MultiplexEntrySendRejectEv
libopal.so.3.10.11:_ZN20H245_ResponseMessagecvR29H245_OpenLogicalChannelRejectEv
libopal.so.3.10.11:_ZN20H245_ResponseMessagecvR29H245_RequestMultiplexEntryAckEv
libopal.so.3.10.11:_ZN20H245_ResponseMessagecvR29H245_TerminalCapabilitySetAckEv
libopal.so.3.10.11:_ZN20H245_ResponseMessagecvR30H245_CommunicationModeResponseEv
libopal.so.3.10.11:_ZN20H245_ResponseMessagecvR30H245_RequestChannelCloseRejectEv
libopal.so.3.10.11:_ZN20H245_ResponseMessagecvR32H245_MasterSlaveDeterminationAckEv
libopal.so.3.10.11:_ZN20H245_ResponseMessagecvR32H245_RequestMultiplexEntryRejectEv
libopal.so.3.10.11:_ZN20H245_ResponseMessagecvR32H245_TerminalCapabilitySetRejectEv
libopal.so.3.10.11:_ZN20H245_ResponseMessagecvR34H245_LogicalChannelRateAcknowledgeEv
libopal.so.3.10.11:_ZN20H245_ResponseMessagecvR35H245_MasterSlaveDeterminationRejectEv
libopal.so.3.10.11:_ZN20H245_ServicePriority6DecodeER11PASN_Stream
libopal.so.3.10.11:_ZN20H245_ServicePriorityC1EjN11PASN_Object8TagClassE
libopal.so.3.10.11:_ZN20H245_ServicePriorityC2EjN11PASN_Object8TagClassE
libopal.so.3.10.11:_ZN20H245_VideoCapability12CreateObjectEv
libopal.so.3.10.11:_ZN20H245_VideoCapabilityC1EjN11PASN_Object8TagClassE
libopal.so.3.10.11:_ZN20H245_VideoCapabilityC2EjN11PASN_Object8TagClassE
libopal.so.3.10.11:_ZN20H245_VideoCapabilitycvR22H245_GenericCapabilityEv
libopal.so.3.10.11:_ZN20H245_VideoCapabilitycvR24H245_H261VideoCapabilityEv
libopal.so.3.10.11:_ZN20H245_VideoCapabilitycvR24H245_H262VideoCapabilityEv
libopal.so.3.10.11:_ZN20H245_VideoCapabilitycvR24H245_H263VideoCapabilityEv
libopal.so.3.10.11:_ZN20H245_VideoCapabilitycvR25H245_NonStandardParameterEv
libopal.so.3.10.11:_ZN20H245_VideoCapabilitycvR27H245_IS11172VideoCapabilityEv
libopal.so.3.10.11:_ZN20H245_VideoCapabilitycvR28H245_ExtendedVideoCapabilityEv
libopal.so.3.10.11:_ZN20H248_AuditDescriptor6DecodeER11PASN_Stream
libopal.so.3.10.11:_ZN20H248_AuditDescriptorC1EjN11PASN_Object8TagClassE
libopal.so.3.10.11:_ZN20H248_AuditDescriptorC2EjN11PASN_Object8TagClassE
libopal.so.3.10.11:_ZN20H248_ErrorDescriptor6DecodeER11PASN_Stream
libopal.so.3.10.11:_ZN20H248_ErrorDescriptorC1EjN11PASN_Object8TagClassE
libopal.so.3.10.11:_ZN20H248_ErrorDescriptorC2EjN11PASN_Object8TagClassE
libopal.so.3.10.11:_ZN20H248_H221NonStandard6DecodeER11PASN_Stream
libopal.so.3.10.11:_ZN20H248_H221NonStandardC1EjN11PASN_Object8TagClassE
libopal.so.3.10.11:_ZN20H248_H221NonStandardC2EjN11PASN_Object8TagClassE
libopal.so.3.10.11:_ZN20H248_MediaDescriptor6DecodeER11PASN_Stream
libopal.so.3.10.11:_ZN20H248_MediaDescriptorC1EjN11PASN_Object8TagClassE
libopal.so.3.10.11:_ZN20H248_MediaDescriptorC2EjN11PASN_Object8TagClassE
libopal.so.3.10.11:_ZN20H248_ModemDescriptor6DecodeER11PASN_Stream
libopal.so.3.10.11:_ZN20H248_ModemDescriptorC1EjN11PASN_Object8TagClassE
libopal.so.3.10.11:_ZN20H248_ModemDescriptorC2EjN11PASN_Object8TagClassE
libopal.so.3.10.11:_ZN20H248_NonStandardData6DecodeER11PASN_Stream
libopal.so.3.10.11:_ZN20H248_NonStandardDataC1EjN11PASN_Object8TagClassE
libopal.so.3.10.11:_ZN20H248_NonStandardDataC2EjN11PASN_Object8TagClassE
libopal.so.3.10.11:_ZN20H248_SubtractRequest6DecodeER11PASN_Stream
libopal.so.3.10.11:_ZN20H248_SubtractRequestC1EjN11PASN_Object8TagClassE
libopal.so.3.10.11:_ZN20H248_SubtractRequestC2EjN11PASN_Object8TagClassE
libopal.so.3.10.11:_ZN20H248_TopologyRequest6DecodeER11PASN_Stream
libopal.so.3.10.11:_ZN20H248_TopologyRequestC1EjN11PASN_Object8TagClassE
libopal.so.3.10.11:_ZN20H248_TopologyRequestC2EjN11PASN_Object8TagClassE
libopal.so.3.10.11:_ZN20H323GatekeeperServer10CreateCallERK17PGloballyUniqueIDN18H323GatekeeperCall9DirectionE
libopal.so.3.10.11:_ZN20H323GatekeeperServer10OnLocationER17H323GatekeeperLRQ
libopal.so.3.10.11:_ZN20H323GatekeeperServer10RemoveCallEP18H323GatekeeperCall
libopal.so.3.10.11:_ZN20H323GatekeeperServer11AddEndPointEP22H323RegisteredEndPoint
libopal.so.3.10.11:_ZN20H323GatekeeperServer11MonitorMainER7PThreadl
libopal.so.3.10.11:_ZN20H323GatekeeperServer11OnAdmissionER17H323GatekeeperARQ
libopal.so.3.10.11:_ZN20H323GatekeeperServer11OnBandwidthER17H323GatekeeperBRQ
libopal.so.3.10.11:_ZN20H323GatekeeperServer11OnDiscoveryER17H323GatekeeperGRQ
libopal.so.3.10.11:_ZN20H323GatekeeperServer11OnDisengageER17H323GatekeeperDRQ
libopal.so.3.10.11:_ZN20H323GatekeeperServer11RemoveAliasER22H323RegisteredEndPointRK7PString
libopal.so.3.10.11:_ZN20H323GatekeeperServer14CreateListenerEP13OpalTransport
libopal.so.3.10.11:_ZN20H323GatekeeperServer14OnInfoResponseER17H323GatekeeperIRR
libopal.so.3.10.11:_ZN20H323GatekeeperServer14OnRegistrationER17H323GatekeeperRRQ
libopal.so.3.10.11:_ZN20H323GatekeeperServer14RemoveEndPointEP22H323RegisteredEndPoint
libopal.so.3.10.11:_ZN20H323GatekeeperServer14SetPeerElementEP15H323PeerElement
libopal.so.3.10.11:_ZN20H323GatekeeperServer15OpenPeerElementERK20H323TransportAddressbb
libopal.so.3.10.11:_ZN20H323GatekeeperServer16OnUnregistrationER17H323GatekeeperURQ
libopal.so.3.10.11:_ZN20H323GatekeeperServer17AllocateBandwidthEjj
libopal.so.3.10.11:_ZN20H323GatekeeperServer17CreatePeerElementERK20H323TransportAddress
libopal.so.3.10.11:_ZN20H323GatekeeperServer21TranslateAliasAddressERK17H225_AliasAddressR25H225_ArrayOf_AliasAddressR20H323TransportAddressRbP18H323GatekeeperCall
libopal.so.3.10.11:_ZN20H323GatekeeperServer22CheckAliasStringPolicyERK22H323RegisteredEndPointRK21H225_AdmissionRequestRK7PString
libopal.so.3.10.11:_ZN20H323GatekeeperServer23CheckAliasAddressPolicyERK22H323RegisteredEndPointRK21H225_AdmissionRequestRK17H225_AliasAddress
libopal.so.3.10.11:_ZN20H323GatekeeperServer23FindDestinationEndPointERK17PGloballyUniqueIDN18H323GatekeeperCall9DirectionE
libopal.so.3.10.11:_ZN20H323GatekeeperServer23SetGatekeeperIdentifierERK7PStringb
libopal.so.3.10.11:_ZN20H323GatekeeperServer24CheckSignalAddressPolicyERK22H323RegisteredEndPointRK21H225_AdmissionRequestRK20H323TransportAddress
libopal.so.3.10.11:_ZN20H323GatekeeperServer24CreateEndPointIdentifierEv
libopal.so.3.10.11:_ZN20H323GatekeeperServer24CreateRegisteredEndPointER17H323GatekeeperRRQ
libopal.so.3.10.11:_ZN20H323GatekeeperServer24FindEndPointByIdentifierERK7PString11PSafetyMode
libopal.so.3.10.11:_ZN20H323GatekeeperServer25FindEndPointByAliasStringERK7PString11PSafetyMode
libopal.so.3.10.11:_ZN20H323GatekeeperServer26FindEndPointByAliasAddressERK17H225_AliasAddress11PSafetyMode
libopal.so.3.10.11:_ZN20H323GatekeeperServer26FindEndPointByPartialAliasERK7PString11PSafetyMode
libopal.so.3.10.11:_ZN20H323GatekeeperServer26FindEndPointByPrefixStringERK7PString11PSafetyMode
libopal.so.3.10.11:_ZN20H323GatekeeperServer27FindEndPointBySignalAddressERK20H323TransportAddress11PSafetyMode
libopal.so.3.10.11:_ZN20H323GatekeeperServer29FindEndPointBySignalAddressesERK29H225_ArrayOf_TransportAddress11PSafetyMode
libopal.so.3.10.11:_ZN20H323GatekeeperServer33GetAdmissionRequestAuthenticationER17H323GatekeeperARQR18H235Authenticators
libopal.so.3.10.11:_ZN20H323GatekeeperServer36TranslateAliasAddressToSignalAddressERK17H225_AliasAddressR20H323TransportAddress
libopal.so.3.10.11:_ZN20H323GatekeeperServer8FindCallERK17PGloballyUniqueIDN18H323GatekeeperCall9DirectionE11PSafetyMode
libopal.so.3.10.11:_ZN20H323GatekeeperServer8FindCallERK17PGloballyUniqueIDb11PSafetyMode
libopal.so.3.10.11:_ZN20H323GatekeeperServer8FindCallERK7PString11PSafetyMode
libopal.so.3.10.11:_ZN20H323GatekeeperServerC1ER12H323EndPoint
libopal.so.3.10.11:_ZN20H323GatekeeperServerC2ER12H323EndPoint
libopal.so.3.10.11:_ZN20H323GatekeeperServerD0Ev
libopal.so.3.10.11:_ZN20H323GatekeeperServerD1Ev
libopal.so.3.10.11:_ZN20H323GatekeeperServerD2Ev
libopal.so.3.10.11:_ZN20H323PresenceInstruct17HandleInstructionEb
libopal.so.3.10.11:_ZN20H323PresenceResponse18HandleSubscriptionEb
libopal.so.3.10.11:_ZN20H323TransportAddressC1ERK21H225_TransportAddressPKc
libopal.so.3.10.11:_ZN20H323TransportAddressC1ERK21H245_TransportAddressPKc
libopal.so.3.10.11:_ZN20H323TransportAddressC2ERK21H225_TransportAddressPKc
libopal.so.3.10.11:_ZN20H323TransportAddressC2ERK21H245_TransportAddressPKc
libopal.so.3.10.11:_ZN20H323_RealTimeChannel13OnReceivedPDUERK23H245_OpenLogicalChannelRj
libopal.so.3.10.11:_ZN20H323_RealTimeChannel13OnReceivedPDUERK34H245_H2250LogicalChannelParametersRj
libopal.so.3.10.11:_ZN20H323_RealTimeChannel16OnReceivedAckPDUERK26H245_OpenLogicalChannelAck
libopal.so.3.10.11:_ZN20H323_RealTimeChannel16OnReceivedAckPDUERK37H245_H2250LogicalChannelAckParameters
libopal.so.3.10.11:_ZN20H323_RealTimeChannelC1ER14H323ConnectionRK14H323CapabilityN11H323Channel10DirectionsE
libopal.so.3.10.11:_ZN20H323_RealTimeChannelC2ER14H323ConnectionRK14H323CapabilityN11H323Channel10DirectionsE
libopal.so.3.10.11:_ZN20H45010_RUAlertOptArg6DecodeER11PASN_Stream
libopal.so.3.10.11:_ZN20H45010_RUAlertOptArgC1EjN11PASN_Object8TagClassE
libopal.so.3.10.11:_ZN20H45010_RUAlertOptArgC2EjN11PASN_Object8TagClassE
libopal.so.3.10.11:_ZN20H4501_NSAPSubaddressC1EPKc
libopal.so.3.10.11:_ZN20H4501_NSAPSubaddressC1ERK10PBYTEArray
libopal.so.3.10.11:_ZN20H4501_NSAPSubaddressC1ERK7PString
libopal.so.3.10.11:_ZN20H4501_NSAPSubaddressC1EjN11PASN_Object8TagClassE
libopal.so.3.10.11:_ZN20H4501_NSAPSubaddressC2EPKc
libopal.so.3.10.11:_ZN20H4501_NSAPSubaddressC2ERK10PBYTEArray
libopal.so.3.10.11:_ZN20H4501_NSAPSubaddressC2ERK7PString
libopal.so.3.10.11:_ZN20H4501_NSAPSubaddressC2EjN11PASN_Object8TagClassE
libopal.so.3.10.11:_ZN20H4501_NSAPSubaddressaSEPKc
libopal.so.3.10.11:_ZN20H4501_NSAPSubaddressaSERK10PBYTEArray
libopal.so.3.10.11:_ZN20H4501_NSAPSubaddressaSERK7PString
libopal.so.3.10.11:_ZN20H4501_NumberScreened6DecodeER11PASN_Stream
libopal.so.3.10.11:_ZN20H4501_NumberScreenedC1EjN11PASN_Object8TagClassE
libopal.so.3.10.11:_ZN20H4501_NumberScreenedC2EjN11PASN_Object8TagClassE
libopal.so.3.10.11:_ZN20H4502_EndDesignationC1EjN11PASN_Object8TagClassE
libopal.so.3.10.11:_ZN20H4502_EndDesignationC2EjN11PASN_Object8TagClassE
libopal.so.3.10.11:_ZN20H4502_EndDesignationaSEj
libopal.so.3.10.11:_ZN20H4504_HoldNotificArg6DecodeER11PASN_Stream
libopal.so.3.10.11:_ZN20H4504_HoldNotificArgC1EjN11PASN_Object8TagClassE
libopal.so.3.10.11:_ZN20H4504_HoldNotificArgC2EjN11PASN_Object8TagClassE
libopal.so.3.10.11:_ZN20H4504_MixedExtension12CreateObjectEv
libopal.so.3.10.11:_ZN20H4504_MixedExtensionC1EjN11PASN_Object8TagClassE
libopal.so.3.10.11:_ZN20H4504_MixedExtensionC2EjN11PASN_Object8TagClassE
libopal.so.3.10.11:_ZN20H4504_MixedExtensioncvR15H4501_ExtensionEv
libopal.so.3.10.11:_ZN20H4504_MixedExtensioncvR25H225_NonStandardParameterEv
libopal.so.3.10.11:_ZN20H4506_CallWaitingArg6DecodeER11PASN_Stream
libopal.so.3.10.11:_ZN20H4506_CallWaitingArgC1EjN11PASN_Object8TagClassE
libopal.so.3.10.11:_ZN20H4506_CallWaitingArgC2EjN11PASN_Object8TagClassE
libopal.so.3.10.11:_ZN20H4507_MWIActivateArg6DecodeER11PASN_Stream
libopal.so.3.10.11:_ZN20H4507_MWIActivateArgC1EjN11PASN_Object8TagClassE
libopal.so.3.10.11:_ZN20H4507_MWIActivateArgC2EjN11PASN_Object8TagClassE
libopal.so.3.10.11:_ZN20H4508_NameOperationsC1EjN11PASN_Object8TagClassE
libopal.so.3.10.11:_ZN20H4508_NameOperationsC2EjN11PASN_Object8TagClassE
libopal.so.3.10.11:_ZN20H4508_NameOperationsaSEj
libopal.so.3.10.11:_ZN20H460P_PresenceNotify6DecodeER11PASN_Stream
libopal.so.3.10.11:_ZN20H460P_PresenceNotifyC1EjN11PASN_Object8TagClassE
libopal.so.3.10.11:_ZN20H460P_PresenceNotifyC2EjN11PASN_Object8TagClassE
libopal.so.3.10.11:_ZN20H460P_PresenceRemove6DecodeER11PASN_Stream
libopal.so.3.10.11:_ZN20H460P_PresenceRemoveC1EjN11PASN_Object8TagClassE
libopal.so.3.10.11:_ZN20H460P_PresenceRemoveC2EjN11PASN_Object8TagClassE
libopal.so.3.10.11:_ZN20H460P_PresenceStatus6DecodeER11PASN_Stream
libopal.so.3.10.11:_ZN20H460P_PresenceStatusC1EjN11PASN_Object8TagClassE
libopal.so.3.10.11:_ZN20H460P_PresenceStatusC2EjN11PASN_Object8TagClassE
libopal.so.3.10.11:_ZN20H501DescriptorUpdate11OnHandlePDUEv
libopal.so.3.10.11:_ZN20H501DescriptorUpdate15SetRejectReasonEj
libopal.so.3.10.11:_ZN20H501DescriptorUpdateC1ER15H323PeerElementRK7H501PDU
libopal.so.3.10.11:_ZN20H501DescriptorUpdateC2ER15H323PeerElementRK7H501PDU
libopal.so.3.10.11:_ZN20H501_AccessRejection6DecodeER11PASN_Stream
libopal.so.3.10.11:_ZN20H501_AccessRejectionC1EjN11PASN_Object8TagClassE
libopal.so.3.10.11:_ZN20H501_AccessRejectionC2EjN11PASN_Object8TagClassE
libopal.so.3.10.11:_ZN20H501_AddressTemplate6DecodeER11PASN_Stream
libopal.so.3.10.11:_ZN20H501_AddressTemplateC1EjN11PASN_Object8TagClassE
libopal.so.3.10.11:_ZN20H501_AddressTemplateC2EjN11PASN_Object8TagClassE
libopal.so.3.10.11:_ZN20H501_AlternatePEInfo6DecodeER11PASN_Stream
libopal.so.3.10.11:_ZN20H501_AlternatePEInfoC1EjN11PASN_Object8TagClassE
libopal.so.3.10.11:_ZN20H501_AlternatePEInfoC2EjN11PASN_Object8TagClassE
libopal.so.3.10.11:_ZN20H501_ArrayOf_PatternC1EjN11PASN_Object8TagClassE
libopal.so.3.10.11:_ZN20H501_ArrayOf_PatternC2EjN11PASN_Object8TagClassE
libopal.so.3.10.11:_ZN20H501_CallInformation6DecodeER11PASN_Stream
libopal.so.3.10.11:_ZN20H501_CallInformationC1EjN11PASN_Object8TagClassE
libopal.so.3.10.11:_ZN20H501_CallInformationC2EjN11PASN_Object8TagClassE
libopal.so.3.10.11:_ZN20H501_GlobalTimeStampC1EjN11PASN_Object8TagClassE
libopal.so.3.10.11:_ZN20H501_GlobalTimeStampC2EjN11PASN_Object8TagClassE
libopal.so.3.10.11:_ZN20H501_GlobalTimeStampaSEPKc
libopal.so.3.10.11:_ZN20H501_GlobalTimeStampaSERK7PString
libopal.so.3.10.11:_ZN20H501_ProtocolVersionC1EjN11PASN_Object8TagClassE
libopal.so.3.10.11:_ZN20H501_ProtocolVersionC2EjN11PASN_Object8TagClassE
libopal.so.3.10.11:_ZN20H501_UsageCallStatus12CreateObjectEv
libopal.so.3.10.11:_ZN20H501_UsageCallStatusC1EjN11PASN_Object8TagClassE
libopal.so.3.10.11:_ZN20H501_UsageCallStatusC2EjN11PASN_Object8TagClassE
libopal.so.3.10.11:_ZN20H501_UsageIndication6DecodeER11PASN_Stream
libopal.so.3.10.11:_ZN20H501_UsageIndicationC1EjN11PASN_Object8TagClassE
libopal.so.3.10.11:_ZN20H501_UsageIndicationC2EjN11PASN_Object8TagClassE
libopal.so.3.10.11:_ZN20H501_UserInformation6DecodeER11PASN_Stream
libopal.so.3.10.11:_ZN20H501_UserInformationC1EjN11PASN_Object8TagClassE
libopal.so.3.10.11:_ZN20H501_UserInformationC2EjN11PASN_Object8TagClassE
libopal.so.3.10.11:_ZN20IAX2SpecialProcessor12ProcessListsEv
libopal.so.3.10.11:_ZN20IAX2SpecialProcessor16ProcessFullFrameER13IAX2FullFrame
libopal.so.3.10.11:_ZN20IAX2SpecialProcessor17ProcessIaxCmdPokeEP21IAX2FullFrameProtocol
libopal.so.3.10.11:_ZN20IAX2SpecialProcessor19OnNoResponseTimeoutEv
libopal.so.3.10.11:_ZN20IAX2SpecialProcessor19ProcessNetworkFrameEP13IAX2MiniFrame
libopal.so.3.10.11:_ZN20IAX2SpecialProcessor19ProcessNetworkFrameEP21IAX2FullFrameProtocol
libopal.so.3.10.11:_ZN20IAX2SpecialProcessorC1ER12IAX2EndPoint
libopal.so.3.10.11:_ZN20IAX2SpecialProcessorC2ER12IAX2EndPoint
libopal.so.3.10.11:_ZN20IAX2SpecialProcessorD0Ev
libopal.so.3.10.11:_ZN20IAX2SpecialProcessorD1Ev
libopal.so.3.10.11:_ZN20IAX2SpecialProcessorD2Ev
libopal.so.3.10.11:_ZN20OpalAudioMediaStream11SetDataSizeEii
libopal.so.3.10.11:_ZN20OpalAudioMediaStreamC1ER14OpalConnectionRK15OpalMediaFormatjbijP13PSoundChannelb
libopal.so.3.10.11:_ZN20OpalAudioMediaStreamC1ER14OpalConnectionRK15OpalMediaFormatjbijRK7PString
libopal.so.3.10.11:_ZN20OpalAudioMediaStreamC2ER14OpalConnectionRK15OpalMediaFormatjbijP13PSoundChannelb
libopal.so.3.10.11:_ZN20OpalAudioMediaStreamC2ER14OpalConnectionRK15OpalMediaFormatjbijRK7PString
libopal.so.3.10.11:_ZN20OpalFramedTranscoder12ConvertFrameEPKhPh
libopal.so.3.10.11:_ZN20OpalFramedTranscoder12ConvertFrameEPKhRiPhS2_
libopal.so.3.10.11:_ZN20OpalFramedTranscoder14CalculateSizesEv
libopal.so.3.10.11:_ZN20OpalFramedTranscoder18ConvertSilentFrameEPh
libopal.so.3.10.11:_ZN20OpalFramedTranscoder18UpdateMediaFormatsERK15OpalMediaFormatS2_
libopal.so.3.10.11:_ZN20OpalFramedTranscoder7ConvertERK13RTP_DataFrameRS0_
libopal.so.3.10.11:_ZN20OpalFramedTranscoderC1ERK15OpalMediaFormatS2_
libopal.so.3.10.11:_ZN20OpalFramedTranscoderC2ERK15OpalMediaFormatS2_
libopal.so.3.10.11:_ZN20OpalLocalMediaStream10ReadPacketER13RTP_DataFrame
libopal.so.3.10.11:_ZN20OpalLocalMediaStream11WritePacketER13RTP_DataFrame
libopal.so.3.10.11:_ZN20OpalLocalMediaStream8ReadDataEPhiRi
libopal.so.3.10.11:_ZN20OpalLocalMediaStream9WriteDataEPKhiRi
libopal.so.3.10.11:_ZN20OpalLocalMediaStreamC1ER19OpalLocalConnectionRK15OpalMediaFormatjbN17OpalLocalEndPoint13SynchronicityE
libopal.so.3.10.11:_ZN20OpalLocalMediaStreamC2ER19OpalLocalConnectionRK15OpalMediaFormatjbN17OpalLocalEndPoint13SynchronicityE
libopal.so.3.10.11:_ZN20OpalMSRPMediaSession11WritePacketER13RTP_DataFrame
libopal.so.3.10.11:_ZN20OpalMSRPMediaSession13SetConnectionER8PSafePtrIN15OpalMSRPManager10ConnectionE12PSafePtrBaseE
libopal.so.3.10.11:_ZN20OpalMSRPMediaSession17CreateMediaStreamERK15OpalMediaFormatjb
libopal.so.3.10.11:_ZN20OpalMSRPMediaSession21SetRemoteMediaAddressERK20OpalTransportAddressRK19OpalMediaFormatList
libopal.so.3.10.11:_ZN20OpalMSRPMediaSession25CreateSDPMediaDescriptionERK20OpalTransportAddress
libopal.so.3.10.11:_ZN20OpalMSRPMediaSession5CloseEv
libopal.so.3.10.11:_ZN20OpalMSRPMediaSession8OpenMSRPERK4PURL
libopal.so.3.10.11:_ZN20OpalMSRPMediaSession9CloseMSRPEv
libopal.so.3.10.11:_ZN20OpalMSRPMediaSessionC1ER14OpalConnectionj
libopal.so.3.10.11:_ZN20OpalMSRPMediaSessionC1ERKS_
libopal.so.3.10.11:_ZN20OpalMSRPMediaSessionC2ER14OpalConnectionj
libopal.so.3.10.11:_ZN20OpalMSRPMediaSessionC2ERKS_
libopal.so.3.10.11:_ZN20OpalMSRPMediaSessionD0Ev
libopal.so.3.10.11:_ZN20OpalMSRPMediaSessionD1Ev
libopal.so.3.10.11:_ZN20OpalMSRPMediaSessionD2Ev
libopal.so.3.10.11:_ZN20OpalMixerMediaStream11WritePacketER13RTP_DataFrame
libopal.so.3.10.11:_ZN20OpalMixerMediaStream13InternalCloseEv
libopal.so.3.10.11:_ZN20OpalMixerMediaStream4OpenEv
libopal.so.3.10.11:_ZN20OpalMixerMediaStreamC1ER14OpalConnectionRK15OpalMediaFormatjb8PSafePtrI13OpalMixerNode12PSafePtrBaseEb
libopal.so.3.10.11:_ZN20OpalMixerMediaStreamC2ER14OpalConnectionRK15OpalMediaFormatjb8PSafePtrI13OpalMixerNode12PSafePtrBaseEb
libopal.so.3.10.11:_ZN20OpalMixerMediaStreamD0Ev
libopal.so.3.10.11:_ZN20OpalMixerMediaStreamD1Ev
libopal.so.3.10.11:_ZN20OpalMixerMediaStreamD2Ev
libopal.so.3.10.11:_ZN20OpalMixerNodeManager10CreateNodeEP17OpalMixerNodeInfo
libopal.so.3.10.11:_ZN20OpalMixerNodeManager10RemoveNodeER13OpalMixerNode
libopal.so.3.10.11:_ZN20OpalMixerNodeManager11AddNodeNameE7PStringP13OpalMixerNode
libopal.so.3.10.11:_ZN20OpalMixerNodeManager14QueueUserInputERK8PSafePtrI13OpalMixerNode12PSafePtrBaseEPK19OpalMixerConnectionRK7PString
libopal.so.3.10.11:_ZN20OpalMixerNodeManager14RemoveNodeNameE7PString
libopal.so.3.10.11:_ZN20OpalMixerNodeManager15RemoveNodeNamesE11PStringList
libopal.so.3.10.11:_ZN20OpalMixerNodeManager17GarbageCollectionEv
libopal.so.3.10.11:_ZN20OpalMixerNodeManager7AddNodeEP13OpalMixerNode
libopal.so.3.10.11:_ZN20OpalMixerNodeManager7AddNodeEP17OpalMixerNodeInfo
libopal.so.3.10.11:_ZN20OpalMixerNodeManager8FindNodeERK7PString11PSafetyMode
libopal.so.3.10.11:_ZN20OpalMixerNodeManager8ShutDownEv
libopal.so.3.10.11:_ZN20OpalMixerNodeManager9UserInput4WorkEv
libopal.so.3.10.11:_ZN20OpalMixerNodeManagerC1Ev
libopal.so.3.10.11:_ZN20OpalMixerNodeManagerC2Ev
libopal.so.3.10.11:_ZN20OpalMixerNodeManagerD0Ev
libopal.so.3.10.11:_ZN20OpalMixerNodeManagerD1Ev
libopal.so.3.10.11:_ZN20OpalMixerNodeManagerD2Ev
libopal.so.3.10.11:_ZN20OpalPluginLIDManager10OnShutdownEv
libopal.so.3.10.11:_ZN20OpalPluginLIDManager12OnLoadPluginER9PDynaLinkl
libopal.so.3.10.11:_ZN20OpalPluginLIDManagerC1EP14PPluginManager
libopal.so.3.10.11:_ZN20OpalPluginLIDManagerC2EP14PPluginManager
libopal.so.3.10.11:_ZN20OpalPluginLIDManagerD0Ev
libopal.so.3.10.11:_ZN20OpalPluginLIDManagerD1Ev
libopal.so.3.10.11:_ZN20OpalPluginLIDManagerD2Ev
libopal.so.3.10.11:_ZN20OpalPluginTranscoder13UpdateOptionsERK15OpalMediaFormat
libopal.so.3.10.11:_ZN20OpalPluginTranscoder14ExecuteCommandERK16OpalMediaCommand
libopal.so.3.10.11:_ZN20OpalPluginTranscoderC1EPK22PluginCodec_Definitionb
libopal.so.3.10.11:_ZN20OpalPluginTranscoderC2EPK22PluginCodec_Definitionb
libopal.so.3.10.11:_ZN20OpalPluginTranscoderD1Ev
libopal.so.3.10.11:_ZN20OpalPluginTranscoderD2Ev
libopal.so.3.10.11:_ZN20OpalTransportAddress20SetInternalTransportEtPKc
libopal.so.3.10.11:_ZN20OpalTransportAddressC1EPKctS1_
libopal.so.3.10.11:_ZN20OpalTransportAddressC1ERK7PStringtPKc
libopal.so.3.10.11:_ZN20OpalTransportAddressC1ERKN9PIPSocket7AddressEtPKc
libopal.so.3.10.11:_ZN20OpalTransportAddressC1Ev
libopal.so.3.10.11:_ZN20OpalTransportAddressC2EPKctS1_
libopal.so.3.10.11:_ZN20OpalTransportAddressC2ERK7PStringtPKc
libopal.so.3.10.11:_ZN20OpalTransportAddressC2ERKN9PIPSocket7AddressEtPKc
libopal.so.3.10.11:_ZN20OpalTransportAddressC2Ev
libopal.so.3.10.11:_ZN20OpalVideoMediaStream11SetDataSizeEii
libopal.so.3.10.11:_ZN20OpalVideoMediaStream13InternalCloseEv
libopal.so.3.10.11:_ZN20OpalVideoMediaStream25InternalUpdateMediaFormatERK15OpalMediaFormat
libopal.so.3.10.11:_ZN20OpalVideoMediaStream4OpenEv
libopal.so.3.10.11:_ZN20OpalVideoMediaStream8ReadDataEPhiRi
libopal.so.3.10.11:_ZN20OpalVideoMediaStream9WriteDataEPKhiRi
libopal.so.3.10.11:_ZN20OpalVideoMediaStreamC1ER14OpalConnectionRK15OpalMediaFormatjP17PVideoInputDeviceP18PVideoOutputDevicebb
libopal.so.3.10.11:_ZN20OpalVideoMediaStreamC2ER14OpalConnectionRK15OpalMediaFormatjP17PVideoInputDeviceP18PVideoOutputDevicebb
libopal.so.3.10.11:_ZN20OpalVideoMediaStreamD0Ev
libopal.so.3.10.11:_ZN20OpalVideoMediaStreamD1Ev
libopal.so.3.10.11:_ZN20OpalVideoMediaStreamD2Ev
libopal.so.3.10.11:_ZN20OpalVideoPictureLossC1Ejj
libopal.so.3.10.11:_ZN20OpalVideoPictureLossC2Ejj
libopal.so.3.10.11:_ZN20OpalWAVRecordManager10OpenStreamERK7PStringRK15OpalMediaFormat
libopal.so.3.10.11:_ZN20OpalWAVRecordManager10WriteAudioERK7PStringRK13RTP_DataFrame
libopal.so.3.10.11:_ZN20OpalWAVRecordManager10WriteVideoERK7PStringRK13RTP_DataFrame
libopal.so.3.10.11:_ZN20OpalWAVRecordManager11CloseStreamERK7PString
libopal.so.3.10.11:_ZN20OpalWAVRecordManager5CloseEv
libopal.so.3.10.11:_ZN20OpalWAVRecordManager5Mixer4OpenERK9PFilePathRKN17OpalRecordManager7OptionsE
libopal.so.3.10.11:_ZN20OpalWAVRecordManager5Mixer7OnMixedERP13RTP_DataFrame
libopal.so.3.10.11:_ZN20OpalWAVRecordManager8OpenFileERK9PFilePath
libopal.so.3.10.11:_ZN20OpalWAVRecordManagerC1Ev
libopal.so.3.10.11:_ZN20OpalWAVRecordManagerC2Ev
libopal.so.3.10.11:_ZN20OpalWAVRecordManagerD0Ev
libopal.so.3.10.11:_ZN20OpalWAVRecordManagerD1Ev
libopal.so.3.10.11:_ZN20OpalWAVRecordManagerD2Ev
libopal.so.3.10.11:_ZN20T38_Type_of_msg_dataC1EjN11PASN_Object8TagClassE
libopal.so.3.10.11:_ZN20T38_Type_of_msg_dataC2EjN11PASN_Object8TagClassE
libopal.so.3.10.11:_ZN20T38_Type_of_msg_dataaSEj
libopal.so.3.10.11:_ZN21H225_AdmissionConfirm6DecodeER11PASN_Stream
libopal.so.3.10.11:_ZN21H225_AdmissionConfirmC1EjN11PASN_Object8TagClassE
libopal.so.3.10.11:_ZN21H225_AdmissionConfirmC2EjN11PASN_Object8TagClassE
libopal.so.3.10.11:_ZN21H225_AdmissionRequest6DecodeER11PASN_Stream
libopal.so.3.10.11:_ZN21H225_AdmissionRequestC1EjN11PASN_Object8TagClassE
libopal.so.3.10.11:_ZN21H225_AdmissionRequestC2EjN11PASN_Object8TagClassE
libopal.so.3.10.11:_ZN21H225_ArrayOf_DataRateC1EjN11PASN_Object8TagClassE
libopal.so.3.10.11:_ZN21H225_ArrayOf_DataRateC2EjN11PASN_Object8TagClassE
libopal.so.3.10.11:_ZN21H225_ArrayOf_EndpointC1EjN11PASN_Object8TagClassE
libopal.so.3.10.11:_ZN21H225_ArrayOf_EndpointC2EjN11PASN_Object8TagClassE
libopal.so.3.10.11:_ZN21H225_BandRejectReason12CreateObjectEv
libopal.so.3.10.11:_ZN21H225_BandRejectReasonC1EjN11PASN_Object8TagClassE
libopal.so.3.10.11:_ZN21H225_BandRejectReasonC2EjN11PASN_Object8TagClassE
libopal.so.3.10.11:_ZN21H225_BandRejectReasoncvR20H225_SecurityErrors2Ev
libopal.so.3.10.11:_ZN21H225_BandwidthConfirm6DecodeER11PASN_Stream
libopal.so.3.10.11:_ZN21H225_BandwidthConfirmC1EjN11PASN_Object8TagClassE
libopal.so.3.10.11:_ZN21H225_BandwidthConfirmC2EjN11PASN_Object8TagClassE
libopal.so.3.10.11:_ZN21H225_BandwidthDetails6DecodeER11PASN_Stream
libopal.so.3.10.11:_ZN21H225_BandwidthDetailsC1EjN11PASN_Object8TagClassE
libopal.so.3.10.11:_ZN21H225_BandwidthDetailsC2EjN11PASN_Object8TagClassE
libopal.so.3.10.11:_ZN21H225_BandwidthRequest6DecodeER11PASN_Stream
libopal.so.3.10.11:_ZN21H225_BandwidthRequestC1EjN11PASN_Object8TagClassE
libopal.so.3.10.11:_ZN21H225_BandwidthRequestC2EjN11PASN_Object8TagClassE
libopal.so.3.10.11:_ZN21H225_CallCapacityInfo6DecodeER11PASN_Stream
libopal.so.3.10.11:_ZN21H225_CallCapacityInfoC1EjN11PASN_Object8TagClassE
libopal.so.3.10.11:_ZN21H225_CallCapacityInfoC2EjN11PASN_Object8TagClassE
libopal.so.3.10.11:_ZN21H225_DisengageConfirm6DecodeER11PASN_Stream
libopal.so.3.10.11:_ZN21H225_DisengageConfirmC1EjN11PASN_Object8TagClassE
libopal.so.3.10.11:_ZN21H225_DisengageConfirmC2EjN11PASN_Object8TagClassE
libopal.so.3.10.11:_ZN21H225_DisengageRequest6DecodeER11PASN_Stream
libopal.so.3.10.11:_ZN21H225_DisengageRequestC1EjN11PASN_Object8TagClassE
libopal.so.3.10.11:_ZN21H225_DisengageRequestC2EjN11PASN_Object8TagClassE
libopal.so.3.10.11:_ZN21H225_GatekeeperReject6DecodeER11PASN_Stream
libopal.so.3.10.11:_ZN21H225_GatekeeperRejectC1EjN11PASN_Object8TagClassE
libopal.so.3.10.11:_ZN21H225_GatekeeperRejectC2EjN11PASN_Object8TagClassE
libopal.so.3.10.11:_ZN21H225_GloballyUniqueIDC1EPKc
libopal.so.3.10.11:_ZN21H225_GloballyUniqueIDC1ERK10PBYTEArray
libopal.so.3.10.11:_ZN21H225_GloballyUniqueIDC1ERK7PString
libopal.so.3.10.11:_ZN21H225_GloballyUniqueIDC1EjN11PASN_Object8TagClassE
libopal.so.3.10.11:_ZN21H225_GloballyUniqueIDC2EPKc
libopal.so.3.10.11:_ZN21H225_GloballyUniqueIDC2ERK10PBYTEArray
libopal.so.3.10.11:_ZN21H225_GloballyUniqueIDC2ERK7PString
libopal.so.3.10.11:_ZN21H225_GloballyUniqueIDC2EjN11PASN_Object8TagClassE
libopal.so.3.10.11:_ZN21H225_GloballyUniqueIDaSEPKc
libopal.so.3.10.11:_ZN21H225_GloballyUniqueIDaSERK10PBYTEArray
libopal.so.3.10.11:_ZN21H225_GloballyUniqueIDaSERK7PString
libopal.so.3.10.11:_ZN21H225_Information_UUIE6DecodeER11PASN_Stream
libopal.so.3.10.11:_ZN21H225_Information_UUIEC1EjN11PASN_Object8TagClassE
libopal.so.3.10.11:_ZN21H225_Information_UUIEC2EjN11PASN_Object8TagClassE
libopal.so.3.10.11:_ZN21H225_TransportAddress12CreateObjectEv
libopal.so.3.10.11:_ZN21H225_TransportAddressC1EjN11PASN_Object8TagClassE
libopal.so.3.10.11:_ZN21H225_TransportAddressC2EjN11PASN_Object8TagClassE
libopal.so.3.10.11:_ZN21H225_TransportAddresscvR25H225_NonStandardParameterEv
libopal.so.3.10.11:_ZN21H225_TransportAddresscvR31H225_TransportAddress_ipAddressEv
libopal.so.3.10.11:_ZN21H225_TransportAddresscvR32H225_TransportAddress_ip6AddressEv
libopal.so.3.10.11:_ZN21H225_TransportAddresscvR32H225_TransportAddress_ipxAddressEv
libopal.so.3.10.11:_ZN21H225_TransportAddresscvR35H225_TransportAddress_ipSourceRouteEv
libopal.so.3.10.11:_ZN21H225_VendorIdentifier6DecodeER11PASN_Stream
libopal.so.3.10.11:_ZN21H225_VendorIdentifierC1EjN11PASN_Object8TagClassE
libopal.so.3.10.11:_ZN21H225_VendorIdentifierC2EjN11PASN_Object8TagClassE
libopal.so.3.10.11:_ZN21H235_ECKASDH_eckasdh26DecodeER11PASN_Stream
libopal.so.3.10.11:_ZN21H235_ECKASDH_eckasdh2C1EjN11PASN_Object8TagClassE
libopal.so.3.10.11:_ZN21H235_ECKASDH_eckasdh2C2EjN11PASN_Object8TagClassE
libopal.so.3.10.11:_ZN21H235_ECKASDH_eckasdhp6DecodeER11PASN_Stream
libopal.so.3.10.11:_ZN21H235_ECKASDH_eckasdhpC1EjN11PASN_Object8TagClassE
libopal.so.3.10.11:_ZN21H235_ECKASDH_eckasdhpC2EjN11PASN_Object8TagClassE
libopal.so.3.10.11:_ZN21H235_EncodedReturnSigC1EjN11PASN_Object8TagClassE
libopal.so.3.10.11:_ZN21H235_EncodedReturnSigC2EjN11PASN_Object8TagClassE
libopal.so.3.10.11:_ZN21H235_TypedCertificate6DecodeER11PASN_Stream
libopal.so.3.10.11:_ZN21H235_TypedCertificateC1EjN11PASN_Object8TagClassE
libopal.so.3.10.11:_ZN21H235_TypedCertificateC2EjN11PASN_Object8TagClassE
libopal.so.3.10.11:_ZN21H245NegLogicalChannel10GetChannelEv
libopal.so.3.10.11:_ZN21H245NegLogicalChannel10HandleOpenERK23H245_OpenLogicalChannel
libopal.so.3.10.11:_ZN21H245NegLogicalChannel11HandleCloseERK24H245_CloseLogicalChannel
libopal.so.3.10.11:_ZN21H245NegLogicalChannel12GetStateNameENS_6StatesE
libopal.so.3.10.11:_ZN21H245NegLogicalChannel12HandleRejectERK29H245_OpenLogicalChannelReject
libopal.so.3.10.11:_ZN21H245NegLogicalChannel13HandleOpenAckERK26H245_OpenLogicalChannelAck
libopal.so.3.10.11:_ZN21H245NegLogicalChannel13HandleTimeoutEv
libopal.so.3.10.11:_ZN21H245NegLogicalChannel14HandleCloseAckERK27H245_CloseLogicalChannelAck
libopal.so.3.10.11:_ZN21H245NegLogicalChannel17HandleOpenConfirmERK30H245_OpenLogicalChannelConfirm
libopal.so.3.10.11:_ZN21H245NegLogicalChannel18HandleRequestCloseERK24H245_RequestChannelClose
libopal.so.3.10.11:_ZN21H245NegLogicalChannel21HandleRequestCloseAckERK27H245_RequestChannelCloseAck
libopal.so.3.10.11:_ZN21H245NegLogicalChannel24HandleRequestCloseRejectERK30H245_RequestChannelCloseReject
libopal.so.3.10.11:_ZN21H245NegLogicalChannel25HandleRequestCloseReleaseERK31H245_RequestChannelCloseRelease
libopal.so.3.10.11:_ZN21H245NegLogicalChannel4OpenERK14H323Capabilityjj
libopal.so.3.10.11:_ZN21H245NegLogicalChannel5CloseEv
libopal.so.3.10.11:_ZN21H245NegLogicalChannel7ReleaseEv
libopal.so.3.10.11:_ZN21H245NegLogicalChannelC1ER12H323EndPointR14H323ConnectionR11H323Channel
libopal.so.3.10.11:_ZN21H245NegLogicalChannelC1ER12H323EndPointR14H323ConnectionRK17H323ChannelNumber
libopal.so.3.10.11:_ZN21H245NegLogicalChannelC2ER12H323EndPointR14H323ConnectionR11H323Channel
libopal.so.3.10.11:_ZN21H245NegLogicalChannelC2ER12H323EndPointR14H323ConnectionRK17H323ChannelNumber
libopal.so.3.10.11:_ZN21H245NegLogicalChannelD0Ev
libopal.so.3.10.11:_ZN21H245NegLogicalChannelD1Ev
libopal.so.3.10.11:_ZN21H245NegLogicalChannelD2Ev
libopal.so.3.10.11:_ZN21H245NegRoundTripDelay12StartRequestEv
libopal.so.3.10.11:_ZN21H245NegRoundTripDelay13HandleRequestERK26H245_RoundTripDelayRequest
libopal.so.3.10.11:_ZN21H245NegRoundTripDelay13HandleTimeoutEv
libopal.so.3.10.11:_ZN21H245NegRoundTripDelay14HandleResponseERK27H245_RoundTripDelayResponse
libopal.so.3.10.11:_ZN21H245NegRoundTripDelayC1ER12H323EndPointR14H323Connection
libopal.so.3.10.11:_ZN21H245NegRoundTripDelayC2ER12H323EndPointR14H323Connection
libopal.so.3.10.11:_ZN21H245_DepFECCapability12CreateObjectEv
libopal.so.3.10.11:_ZN21H245_DepFECCapabilityC1EjN11PASN_Object8TagClassE
libopal.so.3.10.11:_ZN21H245_DepFECCapabilityC2EjN11PASN_Object8TagClassE
libopal.so.3.10.11:_ZN21H245_DepFECCapabilitycvR29H245_DepFECCapability_rfc2733Ev
libopal.so.3.10.11:_ZN21H245_GenericParameter6DecodeER11PASN_Stream
libopal.so.3.10.11:_ZN21H245_GenericParameterC1EjN11PASN_Object8TagClassE
libopal.so.3.10.11:_ZN21H245_GenericParameterC2EjN11PASN_Object8TagClassE
libopal.so.3.10.11:_ZN21H245_IS11172AudioMode6DecodeER11PASN_Stream
libopal.so.3.10.11:_ZN21H245_IS11172AudioModeC1EjN11PASN_Object8TagClassE
libopal.so.3.10.11:_ZN21H245_IS11172AudioModeC2EjN11PASN_Object8TagClassE
libopal.so.3.10.11:_ZN21H245_IS11172VideoMode6DecodeER11PASN_Stream
libopal.so.3.10.11:_ZN21H245_IS11172VideoModeC1EjN11PASN_Object8TagClassE
libopal.so.3.10.11:_ZN21H245_IS11172VideoModeC2EjN11PASN_Object8TagClassE
libopal.so.3.10.11:_ZN21H245_IS13818AudioMode6DecodeER11PASN_Stream
libopal.so.3.10.11:_ZN21H245_IS13818AudioModeC1EjN11PASN_Object8TagClassE
libopal.so.3.10.11:_ZN21H245_IS13818AudioModeC2EjN11PASN_Object8TagClassE
libopal.so.3.10.11:_ZN21H245_JitterIndication6DecodeER11PASN_Stream
libopal.so.3.10.11:_ZN21H245_JitterIndicationC1EjN11PASN_Object8TagClassE
libopal.so.3.10.11:_ZN21H245_JitterIndicationC2EjN11PASN_Object8TagClassE
libopal.so.3.10.11:_ZN21H245_MulticastAddress12CreateObjectEv
libopal.so.3.10.11:_ZN21H245_MulticastAddressC1EjN11PASN_Object8TagClassE
libopal.so.3.10.11:_ZN21H245_MulticastAddressC2EjN11PASN_Object8TagClassE
libopal.so.3.10.11:_ZN21H245_MulticastAddresscvR25H245_NonStandardParameterEv
libopal.so.3.10.11:_ZN21H245_MulticastAddresscvR31H245_MulticastAddress_iPAddressEv
libopal.so.3.10.11:_ZN21H245_MulticastAddresscvR32H245_MulticastAddress_iP6AddressEv
libopal.so.3.10.11:_ZN21H245_MultilinkRequest12CreateObjectEv
libopal.so.3.10.11:_ZN21H245_MultilinkRequestC1EjN11PASN_Object8TagClassE
libopal.so.3.10.11:_ZN21H245_MultilinkRequestC2EjN11PASN_Object8TagClassE
libopal.so.3.10.11:_ZN21H245_MultilinkRequestcvR23H245_NonStandardMessageEv
libopal.so.3.10.11:_ZN21H245_MultilinkRequestcvR35H245_MultilinkRequest_addConnectionEv
libopal.so.3.10.11:_ZN21H245_MultilinkRequestcvR37H245_MultilinkRequest_callInformationEv
libopal.so.3.10.11:_ZN21H245_MultilinkRequestcvR38H245_MultilinkRequest_removeConnectionEv
libopal.so.3.10.11:_ZN21H245_MultilinkRequestcvR43H245_MultilinkRequest_maximumHeaderIntervalEv
libopal.so.3.10.11:_ZN21H245_MultiplexElement6DecodeER11PASN_Stream
libopal.so.3.10.11:_ZN21H245_MultiplexElementC1EjN11PASN_Object8TagClassE
libopal.so.3.10.11:_ZN21H245_MultiplexElementC2EjN11PASN_Object8TagClassE
libopal.so.3.10.11:_ZN21H245_PictureReference12CreateObjectEv
libopal.so.3.10.11:_ZN21H245_PictureReferenceC1EjN11PASN_Object8TagClassE
libopal.so.3.10.11:_ZN21H245_PictureReferenceC2EjN11PASN_Object8TagClassE
libopal.so.3.10.11:_ZN21H245_RemoteMCResponse12CreateObjectEv
libopal.so.3.10.11:_ZN21H245_RemoteMCResponseC1EjN11PASN_Object8TagClassE
libopal.so.3.10.11:_ZN21H245_RemoteMCResponseC2EjN11PASN_Object8TagClassE
libopal.so.3.10.11:_ZN21H245_RemoteMCResponsecvR28H245_RemoteMCResponse_rejectEv
libopal.so.3.10.11:_ZN21H245_T38FaxTcpOptions6DecodeER11PASN_Stream
libopal.so.3.10.11:_ZN21H245_T38FaxTcpOptionsC1EjN11PASN_Object8TagClassE
libopal.so.3.10.11:_ZN21H245_T38FaxTcpOptionsC2EjN11PASN_Object8TagClassE
libopal.so.3.10.11:_ZN21H245_T38FaxUdpOptions6DecodeER11PASN_Stream
libopal.so.3.10.11:_ZN21H245_T38FaxUdpOptionsC1EjN11PASN_Object8TagClassE
libopal.so.3.10.11:_ZN21H245_T38FaxUdpOptionsC2EjN11PASN_Object8TagClassE
libopal.so.3.10.11:_ZN21H245_TransportAddress12CreateObjectEv
libopal.so.3.10.11:_ZN21H245_TransportAddressC1EjN11PASN_Object8TagClassE
libopal.so.3.10.11:_ZN21H245_TransportAddressC2EjN11PASN_Object8TagClassE
libopal.so.3.10.11:_ZN21H245_TransportAddresscvR19H245_UnicastAddressEv
libopal.so.3.10.11:_ZN21H245_TransportAddresscvR21H245_MulticastAddressEv
libopal.so.3.10.11:_ZN21H248_EventsDescriptor6DecodeER11PASN_Stream
libopal.so.3.10.11:_ZN21H248_EventsDescriptorC1EjN11PASN_Object8TagClassE
libopal.so.3.10.11:_ZN21H248_EventsDescriptorC2EjN11PASN_Object8TagClassE
libopal.so.3.10.11:_ZN21H248_IndAudSeqSigList6DecodeER11PASN_Stream
libopal.so.3.10.11:_ZN21H248_IndAudSeqSigListC1EjN11PASN_Object8TagClassE
libopal.so.3.10.11:_ZN21H248_IndAudSeqSigListC2EjN11PASN_Object8TagClassE
libopal.so.3.10.11:_ZN21H248_NotifyCompletionC1EjN11PASN_Object8TagClassE
libopal.so.3.10.11:_ZN21H248_NotifyCompletionC2EjN11PASN_Object8TagClassE
libopal.so.3.10.11:_ZN21H248_RequestedActions6DecodeER11PASN_Stream
libopal.so.3.10.11:_ZN21H248_RequestedActionsC1EjN11PASN_Object8TagClassE
libopal.so.3.10.11:_ZN21H248_RequestedActionsC2EjN11PASN_Object8TagClassE
libopal.so.3.10.11:_ZN21H248_StreamDescriptor6DecodeER11PASN_Stream
libopal.so.3.10.11:_ZN21H248_StreamDescriptorC1EjN11PASN_Object8TagClassE
libopal.so.3.10.11:_ZN21H248_StreamDescriptorC2EjN11PASN_Object8TagClassE
libopal.so.3.10.11:_ZN21H248_TerminationAuditC1EjN11PASN_Object8TagClassE
libopal.so.3.10.11:_ZN21H248_TerminationAuditC2EjN11PASN_Object8TagClassE
libopal.so.3.10.11:_ZN21H248_TransactionReply6DecodeER11PASN_Stream
libopal.so.3.10.11:_ZN21H248_TransactionReplyC1EjN11PASN_Object8TagClassE
libopal.so.3.10.11:_ZN21H248_TransactionReplyC2EjN11PASN_Object8TagClassE
libopal.so.3.10.11:_ZN21H323GatekeeperRequest17CheckCryptoTokensEv
libopal.so.3.10.11:_ZN21H323GatekeeperRequest21GetRegisteredEndPointEv
libopal.so.3.10.11:_ZN21H323GatekeeperRequest25CheckGatekeeperIdentifierEv
libopal.so.3.10.11:_ZN21H323GatekeeperRequest8WritePDUER18H323TransactionPDU
libopal.so.3.10.11:_ZN21H323GatekeeperRequestC1ER22H323GatekeeperListenerRK10H323RasPDU
libopal.so.3.10.11:_ZN21H323GatekeeperRequestC2ER22H323GatekeeperListenerRK10H323RasPDU
libopal.so.3.10.11:_ZN21H323PresenceAuthorize18HandleSubscriptionEb
libopal.so.3.10.11:_ZN21H323TransactionServer11AddListenerEP13OpalTransport
libopal.so.3.10.11:_ZN21H323TransactionServer11AddListenerEP14H323Transactor
libopal.so.3.10.11:_ZN21H323TransactionServer11AddListenerERK20H323TransportAddress
libopal.so.3.10.11:_ZN21H323TransactionServer12AddListenersERK25H323TransportAddressArray
libopal.so.3.10.11:_ZN21H323TransactionServer14RemoveListenerEP14H323Transactor
libopal.so.3.10.11:_ZN21H323TransactionServerC1ER12H323EndPoint
libopal.so.3.10.11:_ZN21H323TransactionServerC2ER12H323EndPoint
libopal.so.3.10.11:_ZN21H323TransactionServerD0Ev
libopal.so.3.10.11:_ZN21H323TransactionServerD1Ev
libopal.so.3.10.11:_ZN21H323TransactionServerD2Ev
libopal.so.3.10.11:_ZN21H45011_CIFrcRelOptRes6DecodeER11PASN_Stream
libopal.so.3.10.11:_ZN21H45011_CIFrcRelOptResC1EjN11PASN_Object8TagClassE
libopal.so.3.10.11:_ZN21H45011_CIFrcRelOptResC2EjN11PASN_Object8TagClassE
libopal.so.3.10.11:_ZN21H45011_CISilentOptRes6DecodeER11PASN_Stream
libopal.so.3.10.11:_ZN21H45011_CISilentOptResC1EjN11PASN_Object8TagClassE
libopal.so.3.10.11:_ZN21H45011_CISilentOptResC2EjN11PASN_Object8TagClassE
libopal.so.3.10.11:_ZN21H4501_AddressScreened6DecodeER11PASN_Stream
libopal.so.3.10.11:_ZN21H4501_AddressScreenedC1EjN11PASN_Object8TagClassE
libopal.so.3.10.11:_ZN21H4501_AddressScreenedC2EjN11PASN_Object8TagClassE
libopal.so.3.10.11:_ZN21H4501_EndpointAddress6DecodeER11PASN_Stream
libopal.so.3.10.11:_ZN21H4501_EndpointAddressC1EjN11PASN_Object8TagClassE
libopal.so.3.10.11:_ZN21H4501_EndpointAddressC2EjN11PASN_Object8TagClassE
libopal.so.3.10.11:_ZN21H4501_PartySubaddress12CreateObjectEv
libopal.so.3.10.11:_ZN21H4501_PartySubaddressC1EjN11PASN_Object8TagClassE
libopal.so.3.10.11:_ZN21H4501_PartySubaddressC2EjN11PASN_Object8TagClassE
libopal.so.3.10.11:_ZN21H4501_PartySubaddresscvR20H4501_NSAPSubaddressEv
libopal.so.3.10.11:_ZN21H4501_PartySubaddresscvR29H4501_UserSpecifiedSubaddressEv
libopal.so.3.10.11:_ZN21H4503_DiversionReasonC1EjN11PASN_Object8TagClassE
libopal.so.3.10.11:_ZN21H4503_DiversionReasonC2EjN11PASN_Object8TagClassE
libopal.so.3.10.11:_ZN21H4503_DiversionReasonaSEj
libopal.so.3.10.11:_ZN21H460P_PresenceMessage12CreateObjectEv
libopal.so.3.10.11:_ZN21H460P_PresenceMessageC1EjN11PASN_Object8TagClassE
libopal.so.3.10.11:_ZN21H460P_PresenceMessageC2EjN11PASN_Object8TagClassE
libopal.so.3.10.11:_ZN21H460P_PresenceMessagecvR19H460P_PresenceAlertEv
libopal.so.3.10.11:_ZN21H460P_PresenceMessagecvR19H460P_PresenceAliveEv
libopal.so.3.10.11:_ZN21H460P_PresenceMessagecvR20H460P_PresenceNotifyEv
libopal.so.3.10.11:_ZN21H460P_PresenceMessagecvR20H460P_PresenceRemoveEv
libopal.so.3.10.11:_ZN21H460P_PresenceMessagecvR20H460P_PresenceStatusEv
libopal.so.3.10.11:_ZN21H460P_PresenceMessagecvR21H460P_PresenceRequestEv
libopal.so.3.10.11:_ZN21H460P_PresenceMessagecvR22H460P_PresenceInstructEv
libopal.so.3.10.11:_ZN21H460P_PresenceMessagecvR22H460P_PresenceResponseEv
libopal.so.3.10.11:_ZN21H460P_PresenceMessagecvR23H460P_PresenceAuthorizeEv
libopal.so.3.10.11:_ZN21H460P_PresenceRequest6DecodeER11PASN_Stream
libopal.so.3.10.11:_ZN21H460P_PresenceRequestC1EjN11PASN_Object8TagClassE
libopal.so.3.10.11:_ZN21H460P_PresenceRequestC2EjN11PASN_Object8TagClassE
libopal.so.3.10.11:_ZN21H460_FeatureParameterC1ERK14H460_FeatureID
libopal.so.3.10.11:_ZN21H460_FeatureParameterC1ERK24H225_EnumeratedParameter
libopal.so.3.10.11:_ZN21H460_FeatureParameterC1ERK7OpalOID
libopal.so.3.10.11:_ZN21H460_FeatureParameterC1ERK7PString
libopal.so.3.10.11:_ZN21H460_FeatureParameterC1Ej
libopal.so.3.10.11:_ZN21H460_FeatureParameterC1Ev
libopal.so.3.10.11:_ZN21H460_FeatureParameterC2ERK14H460_FeatureID
libopal.so.3.10.11:_ZN21H460_FeatureParameterC2ERK24H225_EnumeratedParameter
libopal.so.3.10.11:_ZN21H460_FeatureParameterC2ERK7OpalOID
libopal.so.3.10.11:_ZN21H460_FeatureParameterC2ERK7PString
libopal.so.3.10.11:_ZN21H460_FeatureParameterC2Ej
libopal.so.3.10.11:_ZN21H460_FeatureParameterC2Ev
libopal.so.3.10.11:_ZN21H460_FeatureParameteraSEP12H460_Feature
libopal.so.3.10.11:_ZN21H460_FeatureParameteraSERK14H460_FeatureID
libopal.so.3.10.11:_ZN21H460_FeatureParameteraSERK14PASN_BMPString
libopal.so.3.10.11:_ZN21H460_FeatureParameteraSERK16PASN_OctetString
libopal.so.3.10.11:_ZN21H460_FeatureParameteraSERK17H225_AliasAddress
libopal.so.3.10.11:_ZN21H460_FeatureParameteraSERK17H460_FeatureTable
libopal.so.3.10.11:_ZN21H460_FeatureParameteraSERK20H323TransportAddress
libopal.so.3.10.11:_ZN21H460_FeatureParameteraSERK7PString
libopal.so.3.10.11:_ZN21H460_FeatureParameteraSERKb
libopal.so.3.10.11:_ZN21H460_FeatureParameteraSERKj
libopal.so.3.10.11:_ZN21H460_FeatureParametercv17PGloballyUniqueIDEv
libopal.so.3.10.11:_ZN21H460_FeatureParametercv20H323TransportAddressEv
libopal.so.3.10.11:_ZN21H460_FeatureParametercvR14H460_FeatureIDEv
libopal.so.3.10.11:_ZN21H460_FeatureParametercvR14PASN_BMPStringEv
libopal.so.3.10.11:_ZN21H460_FeatureParametercvR16PASN_OctetStringEv
libopal.so.3.10.11:_ZN21H460_FeatureParametercvR17H225_AliasAddressEv
libopal.so.3.10.11:_ZN21H460_FeatureParametercvR32H225_ArrayOf_EnumeratedParameterEv
libopal.so.3.10.11:_ZN21H460_FeatureParametercvR4PURLEv
libopal.so.3.10.11:_ZN21H460_FeatureParametercvR7PStringEv
libopal.so.3.10.11:_ZN21H460_FeatureParametercvbEv
libopal.so.3.10.11:_ZN21H460_FeatureParametercvjEv
libopal.so.3.10.11:_ZN21H501_DescriptorUpdate6DecodeER11PASN_Stream
libopal.so.3.10.11:_ZN21H501_DescriptorUpdateC1EjN11PASN_Object8TagClassE
libopal.so.3.10.11:_ZN21H501_DescriptorUpdateC2EjN11PASN_Object8TagClassE
libopal.so.3.10.11:_ZN21H501_PartyInformation6DecodeER11PASN_Stream
libopal.so.3.10.11:_ZN21H501_PartyInformationC1EjN11PASN_Object8TagClassE
libopal.so.3.10.11:_ZN21H501_PartyInformationC2EjN11PASN_Object8TagClassE
libopal.so.3.10.11:_ZN21H501_RouteInformation6DecodeER11PASN_Stream
libopal.so.3.10.11:_ZN21H501_RouteInformationC1EjN11PASN_Object8TagClassE
libopal.so.3.10.11:_ZN21H501_RouteInformationC2EjN11PASN_Object8TagClassE
libopal.so.3.10.11:_ZN21H501_ServiceRejection6DecodeER11PASN_Stream
libopal.so.3.10.11:_ZN21H501_ServiceRejectionC1EjN11PASN_Object8TagClassE
libopal.so.3.10.11:_ZN21H501_ServiceRejectionC2EjN11PASN_Object8TagClassE
libopal.so.3.10.11:_ZN21H501_TerminationCause6DecodeER11PASN_Stream
libopal.so.3.10.11:_ZN21H501_TerminationCauseC1EjN11PASN_Object8TagClassE
libopal.so.3.10.11:_ZN21H501_TerminationCauseC2EjN11PASN_Object8TagClassE
libopal.so.3.10.11:_ZN21IAX2FullFrameProtocol14GetCallTokenIeER15IAX2IeCallToken
libopal.so.3.10.11:_ZN21IAX2FullFrameProtocol15GetSubClassNameEi
libopal.so.3.10.11:_ZN21IAX2FullFrameProtocol19GetRemoteCapabilityERjS0_
libopal.so.3.10.11:_ZN21IAX2FullFrameProtocol19WriteIeAsBinaryDataEv
libopal.so.3.10.11:_ZN21IAX2FullFrameProtocol20CopyDataFromIeListToER10IAX2IeData
libopal.so.3.10.11:_ZN21IAX2FullFrameProtocol23ReadInformationElementsEv
libopal.so.3.10.11:_ZN21IAX2FullFrameProtocol25SetRetransmissionRequiredEv
libopal.so.3.10.11:_ZN21IAX2FullFrameProtocolC1EP13IAX2ProcessorNS_10ProtocolScEN13IAX2FullFrame18ConnectionRequiredE
libopal.so.3.10.11:_ZN21IAX2FullFrameProtocolC1EP13IAX2ProcessorNS_10ProtocolScEP13IAX2FullFrameNS3_18ConnectionRequiredE
libopal.so.3.10.11:_ZN21IAX2FullFrameProtocolC1EP13IAX2ProcessoriN13IAX2FullFrame18ConnectionRequiredE
libopal.so.3.10.11:_ZN21IAX2FullFrameProtocolC1ERK13IAX2FullFrame
libopal.so.3.10.11:_ZN21IAX2FullFrameProtocolC1ERK9IAX2Frame
libopal.so.3.10.11:_ZN21IAX2FullFrameProtocolC2EP13IAX2ProcessorNS_10ProtocolScEN13IAX2FullFrame18ConnectionRequiredE
libopal.so.3.10.11:_ZN21IAX2FullFrameProtocolC2EP13IAX2ProcessorNS_10ProtocolScEP13IAX2FullFrameNS3_18ConnectionRequiredE
libopal.so.3.10.11:_ZN21IAX2FullFrameProtocolC2EP13IAX2ProcessoriN13IAX2FullFrame18ConnectionRequiredE
libopal.so.3.10.11:_ZN21IAX2FullFrameProtocolC2ERK13IAX2FullFrame
libopal.so.3.10.11:_ZN21IAX2FullFrameProtocolC2ERK9IAX2Frame
libopal.so.3.10.11:_ZN21IAX2FullFrameProtocolD0Ev
libopal.so.3.10.11:_ZN21IAX2FullFrameProtocolD1Ev
libopal.so.3.10.11:_ZN21IAX2FullFrameProtocolD2Ev
libopal.so.3.10.11:_ZN21OpalBitRateCalculator10GetBitRateEv
libopal.so.3.10.11:_ZN21OpalBitRateCalculator15GetTrialBitRateEi
libopal.so.3.10.11:_ZN21OpalBitRateCalculator17GetAverageBitRateEv
libopal.so.3.10.11:_ZN21OpalBitRateCalculator5FlushEv
libopal.so.3.10.11:_ZN21OpalBitRateCalculator5FlushEx
libopal.so.3.10.11:_ZN21OpalBitRateCalculator5ResetEv
libopal.so.3.10.11:_ZN21OpalBitRateCalculator6GetNowEv
libopal.so.3.10.11:_ZN21OpalBitRateCalculator9AddPacketEib
libopal.so.3.10.11:_ZN21OpalBitRateCalculator9SetQuantaEj
libopal.so.3.10.11:_ZN21OpalBitRateCalculatorC1Ev
libopal.so.3.10.11:_ZN21OpalBitRateCalculatorC2Ev
libopal.so.3.10.11:_ZN21OpalMediaOptionOctets6AssignERK15OpalMediaOption
libopal.so.3.10.11:_ZN21OpalMediaOptionOctets8ReadFromERSi
libopal.so.3.10.11:_ZN21OpalMediaOptionOctets8SetValueEPKhi
libopal.so.3.10.11:_ZN21OpalMediaOptionOctets8SetValueERK10PBYTEArray
libopal.so.3.10.11:_ZN21OpalMediaOptionOctetsC1EPKcbb
libopal.so.3.10.11:_ZN21OpalMediaOptionOctetsC1EPKcbbPKhi
libopal.so.3.10.11:_ZN21OpalMediaOptionOctetsC1EPKcbbRK10PBYTEArray
libopal.so.3.10.11:_ZN21OpalMediaOptionOctetsC2EPKcbb
libopal.so.3.10.11:_ZN21OpalMediaOptionOctetsC2EPKcbbPKhi
libopal.so.3.10.11:_ZN21OpalMediaOptionOctetsC2EPKcbbRK10PBYTEArray
libopal.so.3.10.11:_ZN21OpalMediaOptionString5MergeERK15OpalMediaOption
libopal.so.3.10.11:_ZN21OpalMediaOptionString6AssignERK15OpalMediaOption
libopal.so.3.10.11:_ZN21OpalMediaOptionString8ReadFromERSi
libopal.so.3.10.11:_ZN21OpalMediaOptionString8SetValueERK7PString
libopal.so.3.10.11:_ZN21OpalMediaOptionStringC1EPKcb
libopal.so.3.10.11:_ZN21OpalMediaOptionStringC1EPKcbRK7PString
libopal.so.3.10.11:_ZN21OpalMediaOptionStringC2EPKcb
libopal.so.3.10.11:_ZN21OpalMediaOptionStringC2EPKcbRK7PString
libopal.so.3.10.11:_ZN21OpalMediaStreamPacing4PaceEbiRb
libopal.so.3.10.11:_ZN21OpalMediaStreamPacingC1ERK15OpalMediaFormat
libopal.so.3.10.11:_ZN21OpalMediaStreamPacingC2ERK15OpalMediaFormat
libopal.so.3.10.11:_ZN21OpalPassiveMediaPatch5StartEv
libopal.so.3.10.11:_ZN21OpalPassiveMediaPatchC1ER15OpalMediaStream
libopal.so.3.10.11:_ZN21OpalPassiveMediaPatchC2ER15OpalMediaStream
libopal.so.3.10.11:_ZN21OpalRFC2833EventsMaskC1EPKc
libopal.so.3.10.11:_ZN21OpalRFC2833EventsMaskC1Eb
libopal.so.3.10.11:_ZN21OpalRFC2833EventsMaskC2EPKc
libopal.so.3.10.11:_ZN21OpalRFC2833EventsMaskC2Eb
libopal.so.3.10.11:_ZN21OpalRFC2833EventsMaskaNERKS_
libopal.so.3.10.11:_ZN21OpalRFC4175Transcoder17RFC4175HeaderSizeEi
libopal.so.3.10.11:_ZN21OpalRFC4175TranscoderC1ERK15OpalMediaFormatS2_
libopal.so.3.10.11:_ZN21OpalRFC4175TranscoderC2ERK15OpalMediaFormatS2_
libopal.so.3.10.11:_ZN21OpalRTPSessionManager10AddSessionEP11RTP_SessionRK13OpalMediaType
libopal.so.3.10.11:_ZN21OpalRTPSessionManager12CloseSessionEj
libopal.so.3.10.11:_ZN21OpalRTPSessionManager15AddMediaSessionEP16OpalMediaSessionRK13OpalMediaType
libopal.so.3.10.11:_ZN21OpalRTPSessionManager15ChangeSessionIDEjj
libopal.so.3.10.11:_ZN21OpalRTPSessionManager16GetNextSessionIDEv
libopal.so.3.10.11:_ZN21OpalRTPSessionManager18AllSessionsFailingEv
libopal.so.3.10.11:_ZN21OpalRTPSessionManagerC1ER17OpalRTPConnection
libopal.so.3.10.11:_ZN21OpalRTPSessionManagerC1ERKS_
libopal.so.3.10.11:_ZN21OpalRTPSessionManagerC2ER17OpalRTPConnection
libopal.so.3.10.11:_ZN21OpalRTPSessionManagerC2ERKS_
libopal.so.3.10.11:_ZN21OpalRTPSessionManagerD0Ev
libopal.so.3.10.11:_ZN21OpalRTPSessionManagerD1Ev
libopal.so.3.10.11:_ZN21OpalRTPSessionManagerD2Ev
libopal.so.3.10.11:_ZN21OpalSIPIMMediaSession17CreateMediaStreamERK15OpalMediaFormatjb
libopal.so.3.10.11:_ZN21OpalSIPIMMediaSession21SetRemoteMediaAddressERK20OpalTransportAddressRK19OpalMediaFormatList
libopal.so.3.10.11:_ZN21OpalSIPIMMediaSession25CreateSDPMediaDescriptionERK20OpalTransportAddress
libopal.so.3.10.11:_ZN21OpalSIPIMMediaSessionC1ER14OpalConnectionj
libopal.so.3.10.11:_ZN21OpalSIPIMMediaSessionC1ERKS_
libopal.so.3.10.11:_ZN21OpalSIPIMMediaSessionC2ER14OpalConnectionj
libopal.so.3.10.11:_ZN21OpalSIPIMMediaSessionC2ERKS_
libopal.so.3.10.11:_ZN21Opal_Linear16Mono_PCMC1Ev
libopal.so.3.10.11:_ZN21Opal_Linear16Mono_PCMC2Ev
libopal.so.3.10.11:_ZN21Opal_PCM_Linear16MonoC1Ev
libopal.so.3.10.11:_ZN21Opal_PCM_Linear16MonoC2Ev
libopal.so.3.10.11:_ZN21SDPSessionDescription10ParseOwnerERK7PString
libopal.so.3.10.11:_ZN21SDPSessionDescription11SetUserNameERK7PString
libopal.so.3.10.11:_ZN21SDPSessionDescription14SetSessionNameERK7PString
libopal.so.3.10.11:_ZN21SDPSessionDescription24SetDefaultConnectAddressERK20OpalTransportAddress
libopal.so.3.10.11:_ZN21SDPSessionDescription28ConferenceTotalBandwidthTypeEv
libopal.so.3.10.11:_ZN21SDPSessionDescription32ApplicationSpecificBandwidthTypeEv
libopal.so.3.10.11:_ZN21SDPSessionDescription33TransportIndependentBandwidthTypeEv
libopal.so.3.10.11:_ZN21SDPSessionDescription6DecodeERK7PStringRK19OpalMediaFormatList
libopal.so.3.10.11:_ZN21SDPSessionDescriptionC1EljRK20OpalTransportAddress
libopal.so.3.10.11:_ZN21SDPSessionDescriptionC2EljRK20OpalTransportAddress
libopal.so.3.10.11:_ZN21SIPDialogNotification12GetEventNameENS_6EventsE
libopal.so.3.10.11:_ZN21SIPDialogNotification12GetStateNameENS_6StatesE
libopal.so.3.10.11:_ZN21SIPDialogNotificationC1ERK7PString
libopal.so.3.10.11:_ZN21SIPDialogNotificationC2ERK7PString
libopal.so.3.10.11:_ZN21SIPNTLMAuthentication5ParseERK7PStringb
libopal.so.3.10.11:_ZN21SIPNTLMAuthenticationC1Ev
libopal.so.3.10.11:_ZN21SIPNTLMAuthenticationC2Ev
libopal.so.3.10.11:_ZN22H225_CircuitIdentifier6DecodeER11PASN_Stream
libopal.so.3.10.11:_ZN22H225_CircuitIdentifierC1EjN11PASN_Object8TagClassE
libopal.so.3.10.11:_ZN22H225_CircuitIdentifierC2EjN11PASN_Object8TagClassE
libopal.so.3.10.11:_ZN22H225_FeatureDescriptorC1EjN11PASN_Object8TagClassE
libopal.so.3.10.11:_ZN22H225_FeatureDescriptorC2EjN11PASN_Object8TagClassE
libopal.so.3.10.11:_ZN22H225_GatekeeperConfirm6DecodeER11PASN_Stream
libopal.so.3.10.11:_ZN22H225_GatekeeperConfirmC1EjN11PASN_Object8TagClassE
libopal.so.3.10.11:_ZN22H225_GatekeeperConfirmC2EjN11PASN_Object8TagClassE
libopal.so.3.10.11:_ZN22H225_GatekeeperRequest6DecodeER11PASN_Stream
libopal.so.3.10.11:_ZN22H225_GatekeeperRequestC1EjN11PASN_Object8TagClassE
libopal.so.3.10.11:_ZN22H225_GatekeeperRequestC2EjN11PASN_Object8TagClassE
libopal.so.3.10.11:_ZN22H225_GenericIdentifier12CreateObjectEv
libopal.so.3.10.11:_ZN22H225_GenericIdentifierC1EjN11PASN_Object8TagClassE
libopal.so.3.10.11:_ZN22H225_GenericIdentifierC2EjN11PASN_Object8TagClassE
libopal.so.3.10.11:_ZN22H225_GenericIdentifiercvR21H225_GloballyUniqueIDEv
libopal.so.3.10.11:_ZN22H225_PublicPartyNumber6DecodeER11PASN_Stream
libopal.so.3.10.11:_ZN22H225_PublicPartyNumberC1EjN11PASN_Object8TagClassE
libopal.so.3.10.11:_ZN22H225_PublicPartyNumberC2EjN11PASN_Object8TagClassE
libopal.so.3.10.11:_ZN22H225_RasUsageInfoTypes6DecodeER11PASN_Stream
libopal.so.3.10.11:_ZN22H225_RasUsageInfoTypesC1EjN11PASN_Object8TagClassE
libopal.so.3.10.11:_ZN22H225_RasUsageInfoTypesC2EjN11PASN_Object8TagClassE
libopal.so.3.10.11:_ZN22H225_RequestInProgress6DecodeER11PASN_Stream
libopal.so.3.10.11:_ZN22H225_RequestInProgressC1EjN11PASN_Object8TagClassE
libopal.so.3.10.11:_ZN22H225_RequestInProgressC2EjN11PASN_Object8TagClassE
libopal.so.3.10.11:_ZN22H225_ScnConnectionType12CreateObjectEv
libopal.so.3.10.11:_ZN22H225_ScnConnectionTypeC1EjN11PASN_Object8TagClassE
libopal.so.3.10.11:_ZN22H225_ScnConnectionTypeC2EjN11PASN_Object8TagClassE
libopal.so.3.10.11:_ZN22H225_TunnelledProtocol6DecodeER11PASN_Stream
libopal.so.3.10.11:_ZN22H225_TunnelledProtocolC1EjN11PASN_Object8TagClassE
libopal.so.3.10.11:_ZN22H225_TunnelledProtocolC2EjN11PASN_Object8TagClassE
libopal.so.3.10.11:_ZN22H225_UnregRejectReason12CreateObjectEv
libopal.so.3.10.11:_ZN22H225_UnregRejectReasonC1EjN11PASN_Object8TagClassE
libopal.so.3.10.11:_ZN22H225_UnregRejectReasonC2EjN11PASN_Object8TagClassE
libopal.so.3.10.11:_ZN22H225_UnregRejectReasoncvR20H225_SecurityErrors2Ev
libopal.so.3.10.11:_ZN22H235_AuthenticationBES12CreateObjectEv
libopal.so.3.10.11:_ZN22H235_AuthenticationBESC1EjN11PASN_Object8TagClassE
libopal.so.3.10.11:_ZN22H235_AuthenticationBESC2EjN11PASN_Object8TagClassE
libopal.so.3.10.11:_ZN22H235_KeySignedMaterial6DecodeER11PASN_Stream
libopal.so.3.10.11:_ZN22H235_KeySignedMaterialC1EjN11PASN_Object8TagClassE
libopal.so.3.10.11:_ZN22H235_KeySignedMaterialC2EjN11PASN_Object8TagClassE
libopal.so.3.10.11:_ZN22H235_V3KeySyncMaterial6DecodeER11PASN_Stream
libopal.so.3.10.11:_ZN22H235_V3KeySyncMaterialC1EjN11PASN_Object8TagClassE
libopal.so.3.10.11:_ZN22H235_V3KeySyncMaterialC2EjN11PASN_Object8TagClassE
libopal.so.3.10.11:_ZN22H245NegLogicalChannels10HandleOpenERK23H245_OpenLogicalChannel
libopal.so.3.10.11:_ZN22H245NegLogicalChannels11FindChannelEjb
libopal.so.3.10.11:_ZN22H245NegLogicalChannels11HandleCloseERK24H245_CloseLogicalChannel
libopal.so.3.10.11:_ZN22H245NegLogicalChannels12GetChannelAtEi
libopal.so.3.10.11:_ZN22H245NegLogicalChannels12HandleRejectERK29H245_OpenLogicalChannelReject
libopal.so.3.10.11:_ZN22H245NegLogicalChannels13HandleOpenAckERK26H245_OpenLogicalChannelAck
libopal.so.3.10.11:_ZN22H245NegLogicalChannels14HandleCloseAckERK27H245_CloseLogicalChannelAck
libopal.so.3.10.11:_ZN22H245NegLogicalChannels17HandleOpenConfirmERK30H245_OpenLogicalChannelConfirm
libopal.so.3.10.11:_ZN22H245NegLogicalChannels18HandleRequestCloseERK24H245_RequestChannelClose
libopal.so.3.10.11:_ZN22H245NegLogicalChannels20FindChannelBySessionEjb
libopal.so.3.10.11:_ZN22H245NegLogicalChannels20GetNextChannelNumberEv
libopal.so.3.10.11:_ZN22H245NegLogicalChannels21FindNegLogicalChannelEjb
libopal.so.3.10.11:_ZN22H245NegLogicalChannels21HandleRequestCloseAckERK27H245_RequestChannelCloseAck
libopal.so.3.10.11:_ZN22H245NegLogicalChannels22GetNegLogicalChannelAtEi
libopal.so.3.10.11:_ZN22H245NegLogicalChannels24HandleRequestCloseRejectERK30H245_RequestChannelCloseReject
libopal.so.3.10.11:_ZN22H245NegLogicalChannels25HandleRequestCloseReleaseERK31H245_RequestChannelCloseRelease
libopal.so.3.10.11:_ZN22H245NegLogicalChannels3AddER11H323Channel
libopal.so.3.10.11:_ZN22H245NegLogicalChannels4OpenERK14H323Capabilityjj
libopal.so.3.10.11:_ZN22H245NegLogicalChannels5CloseEjb
libopal.so.3.10.11:_ZN22H245NegLogicalChannels9RemoveAllEv
libopal.so.3.10.11:_ZN22H245NegLogicalChannelsC1ER12H323EndPointR14H323Connection
libopal.so.3.10.11:_ZN22H245NegLogicalChannelsC2ER12H323EndPointR14H323Connection
libopal.so.3.10.11:_ZN22H245_ConferenceCommand12CreateObjectEv
libopal.so.3.10.11:_ZN22H245_ConferenceCommandC1EjN11PASN_Object8TagClassE
libopal.so.3.10.11:_ZN22H245_ConferenceCommandC2EjN11PASN_Object8TagClassE
libopal.so.3.10.11:_ZN22H245_ConferenceCommandcvR18H245_TerminalLabelEv
libopal.so.3.10.11:_ZN22H245_ConferenceCommandcvR25H245_LogicalChannelNumberEv
libopal.so.3.10.11:_ZN22H245_ConferenceCommandcvR34H245_SubstituteConferenceIDCommandEv
libopal.so.3.10.11:_ZN22H245_ConferenceRequest12CreateObjectEv
libopal.so.3.10.11:_ZN22H245_ConferenceRequestC1EjN11PASN_Object8TagClassE
libopal.so.3.10.11:_ZN22H245_ConferenceRequestC2EjN11PASN_Object8TagClassE
libopal.so.3.10.11:_ZN22H245_ConferenceRequestcvR18H245_TerminalLabelEv
libopal.so.3.10.11:_ZN22H245_ConferenceRequestcvR20H245_RemoteMCRequestEv
libopal.so.3.10.11:_ZN22H245_ConferenceRequestcvR25H245_LogicalChannelNumberEv
libopal.so.3.10.11:_ZN22H245_ConferenceRequestcvR49H245_ConferenceRequest_requestTerminalCertificateEv
libopal.so.3.10.11:_ZN22H245_EncryptionCommand12CreateObjectEv
libopal.so.3.10.11:_ZN22H245_EncryptionCommandC1EjN11PASN_Object8TagClassE
libopal.so.3.10.11:_ZN22H245_EncryptionCommandC2EjN11PASN_Object8TagClassE
libopal.so.3.10.11:_ZN22H245_EncryptionCommandcvR44H245_EncryptionCommand_encryptionAlgorithmIDEv
libopal.so.3.10.11:_ZN22H245_EndSessionCommand12CreateObjectEv
libopal.so.3.10.11:_ZN22H245_EndSessionCommandC1EjN11PASN_Object8TagClassE
libopal.so.3.10.11:_ZN22H245_EndSessionCommandC2EjN11PASN_Object8TagClassE
libopal.so.3.10.11:_ZN22H245_EndSessionCommandcvR25H245_NonStandardParameterEv
libopal.so.3.10.11:_ZN22H245_EndSessionCommandcvR31H245_ArrayOf_GenericInformationEv
libopal.so.3.10.11:_ZN22H245_EndSessionCommandcvR34H245_EndSessionCommand_gstnOptionsEv
libopal.so.3.10.11:_ZN22H245_EndSessionCommandcvR34H245_EndSessionCommand_isdnOptionsEv
libopal.so.3.10.11:_ZN22H245_GenericCapability6DecodeER11PASN_Stream
libopal.so.3.10.11:_ZN22H245_GenericCapabilityC1EjN11PASN_Object8TagClassE
libopal.so.3.10.11:_ZN22H245_GenericCapabilityC2EjN11PASN_Object8TagClassE
libopal.so.3.10.11:_ZN22H245_IndicationMessage12CreateObjectEv
libopal.so.3.10.11:_ZN22H245_IndicationMessageC1EjN11PASN_Object8TagClassE
libopal.so.3.10.11:_ZN22H245_IndicationMessageC2EjN11PASN_Object8TagClassE
libopal.so.3.10.11:_ZN22H245_IndicationMessagecvR19H245_GenericMessageEv
libopal.so.3.10.11:_ZN22H245_IndicationMessagecvR21H245_JitterIndicationEv
libopal.so.3.10.11:_ZN22H245_IndicationMessagecvR23H245_H223SkewIndicationEv
libopal.so.3.10.11:_ZN22H245_IndicationMessagecvR23H245_NewATMVCIndicationEv
libopal.so.3.10.11:_ZN22H245_IndicationMessagecvR23H245_NonStandardMessageEv
libopal.so.3.10.11:_ZN22H245_IndicationMessagecvR23H245_RequestModeReleaseEv
libopal.so.3.10.11:_ZN22H245_IndicationMessagecvR24H245_MultilinkIndicationEv
libopal.so.3.10.11:_ZN22H245_IndicationMessagecvR24H245_UserInputIndicationEv
libopal.so.3.10.11:_ZN22H245_IndicationMessagecvR25H245_ConferenceIndicationEv
libopal.so.3.10.11:_ZN22H245_IndicationMessagecvR25H245_FunctionNotSupportedEv
libopal.so.3.10.11:_ZN22H245_IndicationMessagecvR25H245_MCLocationIndicationEv
libopal.so.3.10.11:_ZN22H245_IndicationMessagecvR25H245_VendorIdentificationEv
libopal.so.3.10.11:_ZN22H245_IndicationMessagecvR26H245_FlowControlIndicationEv
libopal.so.3.10.11:_ZN22H245_IndicationMessagecvR26H245_FunctionNotUnderstoodEv
libopal.so.3.10.11:_ZN22H245_IndicationMessagecvR28H245_MiscellaneousIndicationEv
libopal.so.3.10.11:_ZN22H245_IndicationMessagecvR30H245_LogicalChannelRateReleaseEv
libopal.so.3.10.11:_ZN22H245_IndicationMessagecvR30H245_MultiplexEntrySendReleaseEv
libopal.so.3.10.11:_ZN22H245_IndicationMessagecvR30H245_OpenLogicalChannelConfirmEv
libopal.so.3.10.11:_ZN22H245_IndicationMessagecvR31H245_H2250MaximumSkewIndicationEv
libopal.so.3.10.11:_ZN22H245_IndicationMessagecvR31H245_RequestChannelCloseReleaseEv
libopal.so.3.10.11:_ZN22H245_IndicationMessagecvR33H245_RequestMultiplexEntryReleaseEv
libopal.so.3.10.11:_ZN22H245_IndicationMessagecvR33H245_TerminalCapabilitySetReleaseEv
libopal.so.3.10.11:_ZN22H245_IndicationMessagecvR36H245_MasterSlaveDeterminationReleaseEv
libopal.so.3.10.11:_ZN22H245_IndicationMessagecvR45H245_MobileMultilinkReconfigurationIndicationEv
libopal.so.3.10.11:_ZN22H245_MultilinkResponse12CreateObjectEv
libopal.so.3.10.11:_ZN22H245_MultilinkResponseC1EjN11PASN_Object8TagClassE
libopal.so.3.10.11:_ZN22H245_MultilinkResponseC2EjN11PASN_Object8TagClassE
libopal.so.3.10.11:_ZN22H245_MultilinkResponsecvR23H245_NonStandardMessageEv
libopal.so.3.10.11:_ZN22H245_MultilinkResponsecvR36H245_MultilinkResponse_addConnectionEv
libopal.so.3.10.11:_ZN22H245_MultilinkResponsecvR38H245_MultilinkResponse_callInformationEv
libopal.so.3.10.11:_ZN22H245_MultilinkResponsecvR39H245_MultilinkResponse_removeConnectionEv
libopal.so.3.10.11:_ZN22H245_MultilinkResponsecvR44H245_MultilinkResponse_maximumHeaderIntervalEv
libopal.so.3.10.11:_ZN22H245_RequestModeReject6DecodeER11PASN_Stream
libopal.so.3.10.11:_ZN22H245_RequestModeRejectC1EjN11PASN_Object8TagClassE
libopal.so.3.10.11:_ZN22H245_RequestModeRejectC2EjN11PASN_Object8TagClassE
libopal.so.3.10.11:_ZN22H245_V76HDLCParameters6DecodeER11PASN_Stream
libopal.so.3.10.11:_ZN22H245_V76HDLCParametersC1EjN11PASN_Object8TagClassE
libopal.so.3.10.11:_ZN22H245_V76HDLCParametersC2EjN11PASN_Object8TagClassE
libopal.so.3.10.11:_ZN22H245_V76ModeParameters12CreateObjectEv
libopal.so.3.10.11:_ZN22H245_V76ModeParametersC1EjN11PASN_Object8TagClassE
libopal.so.3.10.11:_ZN22H245_V76ModeParametersC2EjN11PASN_Object8TagClassE
libopal.so.3.10.11:_ZN22H245_VCCapability_aal16DecodeER11PASN_Stream
libopal.so.3.10.11:_ZN22H245_VCCapability_aal1C1EjN11PASN_Object8TagClassE
libopal.so.3.10.11:_ZN22H245_VCCapability_aal1C2EjN11PASN_Object8TagClassE
libopal.so.3.10.11:_ZN22H245_VCCapability_aal56DecodeER11PASN_Stream
libopal.so.3.10.11:_ZN22H245_VCCapability_aal5C1EjN11PASN_Object8TagClassE
libopal.so.3.10.11:_ZN22H245_VCCapability_aal5C2EjN11PASN_Object8TagClassE
libopal.so.3.10.11:_ZN22H248_ArrayOf_ModemTypeC1EjN11PASN_Object8TagClassE
libopal.so.3.10.11:_ZN22H248_ArrayOf_ModemTypeC2EjN11PASN_Object8TagClassE
libopal.so.3.10.11:_ZN22H248_IndAudStreamParms6DecodeER11PASN_Stream
libopal.so.3.10.11:_ZN22H248_IndAudStreamParmsC1EjN11PASN_Object8TagClassE
libopal.so.3.10.11:_ZN22H248_IndAudStreamParmsC2EjN11PASN_Object8TagClassE
libopal.so.3.10.11:_ZN22H248_IndAuditParameter12CreateObjectEv
libopal.so.3.10.11:_ZN22H248_IndAuditParameterC1EjN11PASN_Object8TagClassE
libopal.so.3.10.11:_ZN22H248_IndAuditParameterC2EjN11PASN_Object8TagClassE
libopal.so.3.10.11:_ZN22H248_IndAuditParametercvR26H248_IndAudMediaDescriptorEv
libopal.so.3.10.11:_ZN22H248_IndAuditParametercvR27H248_IndAudEventsDescriptorEv
libopal.so.3.10.11:_ZN22H248_IndAuditParametercvR28H248_IndAudSignalsDescriptorEv
libopal.so.3.10.11:_ZN22H248_IndAuditParametercvR29H248_IndAudDigitMapDescriptorEv
libopal.so.3.10.11:_ZN22H248_IndAuditParametercvR29H248_IndAudPackagesDescriptorEv
libopal.so.3.10.11:_ZN22H248_IndAuditParametercvR31H248_IndAudStatisticsDescriptorEv
libopal.so.3.10.11:_ZN22H248_IndAuditParametercvR32H248_IndAudEventBufferDescriptorEv
libopal.so.3.10.11:_ZN22H248_SecurityParmIndexC1EPKc
libopal.so.3.10.11:_ZN22H248_SecurityParmIndexC1ERK10PBYTEArray
libopal.so.3.10.11:_ZN22H248_SecurityParmIndexC1ERK7PString
libopal.so.3.10.11:_ZN22H248_SecurityParmIndexC1EjN11PASN_Object8TagClassE
libopal.so.3.10.11:_ZN22H248_SecurityParmIndexC2EPKc
libopal.so.3.10.11:_ZN22H248_SecurityParmIndexC2ERK10PBYTEArray
libopal.so.3.10.11:_ZN22H248_SecurityParmIndexC2ERK7PString
libopal.so.3.10.11:_ZN22H248_SecurityParmIndexC2EjN11PASN_Object8TagClassE
libopal.so.3.10.11:_ZN22H248_SecurityParmIndexaSEPKc
libopal.so.3.10.11:_ZN22H248_SecurityParmIndexaSERK10PBYTEArray
libopal.so.3.10.11:_ZN22H248_SecurityParmIndexaSERK7PString
libopal.so.3.10.11:_ZN22H248_ServiceChangeParm6DecodeER11PASN_Stream
libopal.so.3.10.11:_ZN22H248_ServiceChangeParmC1EjN11PASN_Object8TagClassE
libopal.so.3.10.11:_ZN22H248_ServiceChangeParmC2EjN11PASN_Object8TagClassE
libopal.so.3.10.11:_ZN22H248_SignalsDescriptorC1EjN11PASN_Object8TagClassE
libopal.so.3.10.11:_ZN22H248_SignalsDescriptorC2EjN11PASN_Object8TagClassE
libopal.so.3.10.11:_ZN22H248_TerminationIDListC1EjN11PASN_Object8TagClassE
libopal.so.3.10.11:_ZN22H248_TerminationIDListC2EjN11PASN_Object8TagClassE
libopal.so.3.10.11:_ZN22H323GatekeeperListener10OnLocationER17H323GatekeeperLRQ
libopal.so.3.10.11:_ZN22H323GatekeeperListener11InfoRequestER22H323RegisteredEndPointP18H323GatekeeperCall
libopal.so.3.10.11:_ZN22H323GatekeeperListener11OnAdmissionER17H323GatekeeperARQ
libopal.so.3.10.11:_ZN22H323GatekeeperListener11OnBandwidthER17H323GatekeeperBRQ
libopal.so.3.10.11:_ZN22H323GatekeeperListener11OnDiscoveryER17H323GatekeeperGRQ
libopal.so.3.10.11:_ZN22H323GatekeeperListener11OnDisengageER17H323GatekeeperDRQ
libopal.so.3.10.11:_ZN22H323GatekeeperListener14OnInfoResponseER17H323GatekeeperIRR
libopal.so.3.10.11:_ZN22H323GatekeeperListener14OnRegistrationER17H323GatekeeperRRQ
libopal.so.3.10.11:_ZN22H323GatekeeperListener16DisengageRequestERK18H323GatekeeperCallj
libopal.so.3.10.11:_ZN22H323GatekeeperListener16OnUnregistrationER17H323GatekeeperURQ
libopal.so.3.10.11:_ZN22H323GatekeeperListener21UnregistrationRequestERK22H323RegisteredEndPointj
libopal.so.3.10.11:_ZN22H323GatekeeperListener24OnReceiveBandwidthRejectERK20H225_BandwidthReject
libopal.so.3.10.11:_ZN22H323GatekeeperListener24OnReceiveDisengageRejectERK20H225_DisengageReject
libopal.so.3.10.11:_ZN22H323GatekeeperListener24OnReceiveLocationRequestERK10H323RasPDURK20H225_LocationRequest
libopal.so.3.10.11:_ZN22H323GatekeeperListener24ServiceControlIndicationER22H323RegisteredEndPointRK25H323ServiceControlSessionP18H323GatekeeperCall
libopal.so.3.10.11:_ZN22H323GatekeeperListener25OnReceiveAdmissionRequestERK10H323RasPDURK21H225_AdmissionRequest
libopal.so.3.10.11:_ZN22H323GatekeeperListener25OnReceiveBandwidthConfirmERK21H225_BandwidthConfirm
libopal.so.3.10.11:_ZN22H323GatekeeperListener25OnReceiveBandwidthRequestERK10H323RasPDURK21H225_BandwidthRequest
libopal.so.3.10.11:_ZN22H323GatekeeperListener25OnReceiveDisengageConfirmERK21H225_DisengageConfirm
libopal.so.3.10.11:_ZN22H323GatekeeperListener25OnReceiveDisengageRequestERK10H323RasPDURK21H225_DisengageRequest
libopal.so.3.10.11:_ZN22H323GatekeeperListener26OnReceiveGatekeeperRequestERK10H323RasPDURK22H225_GatekeeperRequest
libopal.so.3.10.11:_ZN22H323GatekeeperListener28OnReceiveInfoRequestResponseERK10H323RasPDURK24H225_InfoRequestResponse
libopal.so.3.10.11:_ZN22H323GatekeeperListener28OnReceiveRegistrationRequestERK10H323RasPDURK24H225_RegistrationRequest
libopal.so.3.10.11:_ZN22H323GatekeeperListener29OnReceiveUnregistrationRejectERK25H225_UnregistrationReject
libopal.so.3.10.11:_ZN22H323GatekeeperListener30OnReceiveUnregistrationConfirmERK26H225_UnregistrationConfirm
libopal.so.3.10.11:_ZN22H323GatekeeperListener30OnReceiveUnregistrationRequestERK10H323RasPDURK26H225_UnregistrationRequest
libopal.so.3.10.11:_ZN22H323GatekeeperListener34OnReceiveResourcesAvailableConfirmERK30H225_ResourcesAvailableConfirm
libopal.so.3.10.11:_ZN22H323GatekeeperListenerC1ER12H323EndPointR20H323GatekeeperServerRK7PStringP13OpalTransport
libopal.so.3.10.11:_ZN22H323GatekeeperListenerC2ER12H323EndPointR20H323GatekeeperServerRK7PStringP13OpalTransport
libopal.so.3.10.11:_ZN22H323GatekeeperListenerD0Ev
libopal.so.3.10.11:_ZN22H323GatekeeperListenerD1Ev
libopal.so.3.10.11:_ZN22H323GatekeeperListenerD2Ev
libopal.so.3.10.11:_ZN22H323H248ServiceControl13OnReceivedPDUERK22H248_SignalsDescriptor
libopal.so.3.10.11:_ZN22H323H248ServiceControl13OnReceivedPDUERK29H225_ServiceControlDescriptor
libopal.so.3.10.11:_ZN22H323H248ServiceControlC1ERK29H225_ServiceControlDescriptor
libopal.so.3.10.11:_ZN22H323H248ServiceControlC1Ev
libopal.so.3.10.11:_ZN22H323H248ServiceControlC2ERK29H225_ServiceControlDescriptor
libopal.so.3.10.11:_ZN22H323H248ServiceControlC2Ev
libopal.so.3.10.11:_ZN22H323HTTPServiceControl13OnReceivedPDUERK29H225_ServiceControlDescriptor
libopal.so.3.10.11:_ZN22H323HTTPServiceControlC1ERK29H225_ServiceControlDescriptor
libopal.so.3.10.11:_ZN22H323HTTPServiceControlC1ERK7PString
libopal.so.3.10.11:_ZN22H323HTTPServiceControlC2ERK29H225_ServiceControlDescriptor
libopal.so.3.10.11:_ZN22H323HTTPServiceControlC2ERK7PString
libopal.so.3.10.11:_ZN22H323RealTimeCapability9AttachQoSEP7RTP_QOS
libopal.so.3.10.11:_ZN22H323RealTimeCapabilityC1ERKS_
libopal.so.3.10.11:_ZN22H323RealTimeCapabilityC1Ev
libopal.so.3.10.11:_ZN22H323RealTimeCapabilityC2ERKS_
libopal.so.3.10.11:_ZN22H323RealTimeCapabilityC2Ev
libopal.so.3.10.11:_ZN22H323RealTimeCapabilityD0Ev
libopal.so.3.10.11:_ZN22H323RealTimeCapabilityD1Ev
libopal.so.3.10.11:_ZN22H323RealTimeCapabilityD2Ev
libopal.so.3.10.11:_ZN22H323RegisteredEndPoint10RemoveCallEP18H323GatekeeperCall
libopal.so.3.10.11:_ZN22H323RegisteredEndPoint10UnregisterEi
libopal.so.3.10.11:_ZN22H323RegisteredEndPoint11RemoveAliasERK7PString
libopal.so.3.10.11:_ZN22H323RegisteredEndPoint11SetPasswordERK7PStringS2_
libopal.so.3.10.11:_ZN22H323RegisteredEndPoint12OnTimeToLiveEv
libopal.so.3.10.11:_ZN22H323RegisteredEndPoint14OnInfoResponseER17H323GatekeeperIRR
libopal.so.3.10.11:_ZN22H323RegisteredEndPoint14OnRegistrationER17H323GatekeeperRRQ
libopal.so.3.10.11:_ZN22H323RegisteredEndPoint16OnUnregistrationER17H323GatekeeperURQ
libopal.so.3.10.11:_ZN22H323RegisteredEndPoint18OnFullRegistrationER17H323GatekeeperRRQ
libopal.so.3.10.11:_ZN22H323RegisteredEndPoint20OnSecureRegistrationER17H323GatekeeperRRQ
libopal.so.3.10.11:_ZN22H323RegisteredEndPoint24AddServiceControlSessionERK25H323ServiceControlSessionR34H225_ArrayOf_ServiceControlSession
libopal.so.3.10.11:_ZN22H323RegisteredEndPoint25SendServiceControlSessionERK25H323ServiceControlSession
libopal.so.3.10.11:_ZN22H323RegisteredEndPoint27OnSendDescriptorForEndpointER25H225_ArrayOf_AliasAddressR17H225_EndpointTypeS1_
libopal.so.3.10.11:_ZN22H323RegisteredEndPoint7AddCallEP18H323GatekeeperCall
libopal.so.3.10.11:_ZN22H323RegisteredEndPointC1ER20H323GatekeeperServerRK7PString
libopal.so.3.10.11:_ZN22H323RegisteredEndPointC2ER20H323GatekeeperServerRK7PString
libopal.so.3.10.11:_ZN22H45011_CIGetCIPLOptArg6DecodeER11PASN_Stream
libopal.so.3.10.11:_ZN22H45011_CIGetCIPLOptArgC1EjN11PASN_Object8TagClassE
libopal.so.3.10.11:_ZN22H45011_CIGetCIPLOptArgC2EjN11PASN_Object8TagClassE
libopal.so.3.10.11:_ZN22H4501_GeneralErrorListC1EjN11PASN_Object8TagClassE
libopal.so.3.10.11:_ZN22H4501_GeneralErrorListC2EjN11PASN_Object8TagClassE
libopal.so.3.10.11:_ZN22H4501_GeneralErrorListaSEj
libopal.so.3.10.11:_ZN22H4505_CallPickupErrorsC1EjN11PASN_Object8TagClassE
libopal.so.3.10.11:_ZN22H4505_CallPickupErrorsC2EjN11PASN_Object8TagClassE
libopal.so.3.10.11:_ZN22H4505_CallPickupErrorsaSEj
libopal.so.3.10.11:_ZN22H4505_CpickupNotifyArg6DecodeER11PASN_Stream
libopal.so.3.10.11:_ZN22H4505_CpickupNotifyArgC1EjN11PASN_Object8TagClassE
libopal.so.3.10.11:_ZN22H4505_CpickupNotifyArgC2EjN11PASN_Object8TagClassE
libopal.so.3.10.11:_ZN22H4505_ParkedToPositionC1EjN11PASN_Object8TagClassE
libopal.so.3.10.11:_ZN22H4505_ParkedToPositionC2EjN11PASN_Object8TagClassE
libopal.so.3.10.11:_ZN22H4505_ParkedToPositionaSEi
libopal.so.3.10.11:_ZN22H4505_ParkedToPositionaSEj
libopal.so.3.10.11:_ZN22H4507_MWIDeactivateArg6DecodeER11PASN_Stream
libopal.so.3.10.11:_ZN22H4507_MWIDeactivateArgC1EjN11PASN_Object8TagClassE
libopal.so.3.10.11:_ZN22H4507_MWIDeactivateArgC2EjN11PASN_Object8TagClassE
libopal.so.3.10.11:_ZN22H4609_CalculatedJitterC1EjN11PASN_Object8TagClassE
libopal.so.3.10.11:_ZN22H4609_CalculatedJitterC2EjN11PASN_Object8TagClassE
libopal.so.3.10.11:_ZN22H4609_CalculatedJitteraSEi
libopal.so.3.10.11:_ZN22H4609_CalculatedJitteraSEj
libopal.so.3.10.11:_ZN22H4609_PerCallQoSReport6DecodeER11PASN_Stream
libopal.so.3.10.11:_ZN22H4609_PerCallQoSReportC1EjN11PASN_Object8TagClassE
libopal.so.3.10.11:_ZN22H4609_PerCallQoSReportC2EjN11PASN_Object8TagClassE
libopal.so.3.10.11:_ZN22H460P_PresenceInstruct6DecodeER11PASN_Stream
libopal.so.3.10.11:_ZN22H460P_PresenceInstructC1EjN11PASN_Object8TagClassE
libopal.so.3.10.11:_ZN22H460P_PresenceInstructC2EjN11PASN_Object8TagClassE
libopal.so.3.10.11:_ZN22H460P_PresenceResponse6DecodeER11PASN_Stream
libopal.so.3.10.11:_ZN22H460P_PresenceResponseC1EjN11PASN_Object8TagClassE
libopal.so.3.10.11:_ZN22H460P_PresenceResponseC2EjN11PASN_Object8TagClassE
libopal.so.3.10.11:_ZN22H501_DescriptorRequest6DecodeER11PASN_Stream
libopal.so.3.10.11:_ZN22H501_DescriptorRequestC1EjN11PASN_Object8TagClassE
libopal.so.3.10.11:_ZN22H501_DescriptorRequestC2EjN11PASN_Object8TagClassE
libopal.so.3.10.11:_ZN22H501_ElementIdentifierC1EjN11PASN_Object8TagClassE
libopal.so.3.10.11:_ZN22H501_ElementIdentifierC2EjN11PASN_Object8TagClassE
libopal.so.3.10.11:_ZN22H501_ElementIdentifieraSEPKc
libopal.so.3.10.11:_ZN22H501_ElementIdentifieraSERK10PBaseArrayIwE
libopal.so.3.10.11:_ZN22H501_ElementIdentifieraSERK14PASN_BMPString
libopal.so.3.10.11:_ZN22H501_ElementIdentifieraSERK7PString
libopal.so.3.10.11:_ZN22H501_MessageCommonInfo6DecodeER11PASN_Stream
libopal.so.3.10.11:_ZN22H501_MessageCommonInfoC1EjN11PASN_Object8TagClassE
libopal.so.3.10.11:_ZN22H501_MessageCommonInfoC2EjN11PASN_Object8TagClassE
libopal.so.3.10.11:_ZN22H501_RequestInProgress6DecodeER11PASN_Stream
libopal.so.3.10.11:_ZN22H501_RequestInProgressC1EjN11PASN_Object8TagClassE
libopal.so.3.10.11:_ZN22H501_RequestInProgressC2EjN11PASN_Object8TagClassE
libopal.so.3.10.11:_ZN22H501_UpdateInformation6DecodeER11PASN_Stream
libopal.so.3.10.11:_ZN22H501_UpdateInformationC1EjN11PASN_Object8TagClassE
libopal.so.3.10.11:_ZN22H501_UpdateInformationC2EjN11PASN_Object8TagClassE
libopal.so.3.10.11:_ZN22H501_UsageConfirmation6DecodeER11PASN_Stream
libopal.so.3.10.11:_ZN22H501_UsageConfirmationC1EjN11PASN_Object8TagClassE
libopal.so.3.10.11:_ZN22H501_UsageConfirmationC2EjN11PASN_Object8TagClassE
libopal.so.3.10.11:_ZN22H501_UsageRejectReason12CreateObjectEv
libopal.so.3.10.11:_ZN22H501_UsageRejectReasonC1EjN11PASN_Object8TagClassE
libopal.so.3.10.11:_ZN22H501_UsageRejectReasonC2EjN11PASN_Object8TagClassE
libopal.so.3.10.11:_ZN22H501_ValidationRequest6DecodeER11PASN_Stream
libopal.so.3.10.11:_ZN22H501_ValidationRequestC1EjN11PASN_Object8TagClassE
libopal.so.3.10.11:_ZN22H501_ValidationRequestC2EjN11PASN_Object8TagClassE
libopal.so.3.10.11:_ZN22OpalJitterBufferThread11StartThreadEv
libopal.so.3.10.11:_ZN22OpalJitterBufferThread16JitterThreadMainER7PThreadl
libopal.so.3.10.11:_ZN22OpalJitterBufferThread24WaitForThreadTerminationEv
libopal.so.3.10.11:_ZN22OpalJitterBufferThread8ReadDataER13RTP_DataFrame
libopal.so.3.10.11:_ZN22OpalJitterBufferThreadC1Ejjji
libopal.so.3.10.11:_ZN22OpalJitterBufferThreadC2Ejjji
libopal.so.3.10.11:_ZN22OpalJitterBufferThreadD0Ev
libopal.so.3.10.11:_ZN22OpalJitterBufferThreadD1Ev
libopal.so.3.10.11:_ZN22OpalJitterBufferThreadD2Ev
libopal.so.3.10.11:_ZN22OpalPluginCodecHandler15GetChannelCountEPK22PluginCodec_Definition
libopal.so.3.10.11:_ZN22OpalPluginCodecHandler17OnCreateFaxFormatER22OpalPluginCodecManagerPK22PluginCodec_DefinitionPKcS6_jjl
libopal.so.3.10.11:_ZN22OpalPluginCodecHandler19OnCreateAudioFormatER22OpalPluginCodecManagerPK22PluginCodec_DefinitionPKcS6_jjl
libopal.so.3.10.11:_ZN22OpalPluginCodecHandler19OnCreateVideoFormatER22OpalPluginCodecManagerPK22PluginCodec_DefinitionPKcS6_l
libopal.so.3.10.11:_ZN22OpalPluginCodecHandler23RegisterVideoTranscoderERK7PStringS2_PK22PluginCodec_Definitionb
libopal.so.3.10.11:_ZN22OpalPluginCodecHandlerC1Ev
libopal.so.3.10.11:_ZN22OpalPluginCodecHandlerC2Ev
libopal.so.3.10.11:_ZN22OpalPluginCodecManager10OnShutdownEv
libopal.so.3.10.11:_ZN22OpalPluginCodecManager12OnLoadPluginER9PDynaLinkl
libopal.so.3.10.11:_ZN22OpalPluginCodecManager14AddMediaFormatEP22OpalPluginCodecHandlerRK5PTimePK22PluginCodec_DefinitionPKc
libopal.so.3.10.11:_ZN22OpalPluginCodecManager18RegisterCapabilityEPK22PluginCodec_Definition
libopal.so.3.10.11:_ZN22OpalPluginCodecManager19RegisterStaticCodecERKNSt7__cxx1112basic_stringIcSt11char_traitsIcESaIcEEEPFjvEPFP22PluginCodec_DefinitionPjjE
libopal.so.3.10.11:_ZN22OpalPluginCodecManager20RegisterCodecPluginsEjPK22PluginCodec_DefinitionP22OpalPluginCodecHandler
libopal.so.3.10.11:_ZN22OpalPluginCodecManager22UnregisterCodecPluginsEjPK22PluginCodec_DefinitionP22OpalPluginCodecHandler
libopal.so.3.10.11:_ZN22OpalPluginCodecManagerC1EP14PPluginManager
libopal.so.3.10.11:_ZN22OpalPluginCodecManagerC2EP14PPluginManager
libopal.so.3.10.11:_ZN22OpalPluginCodecManagerD0Ev
libopal.so.3.10.11:_ZN22OpalPluginCodecManagerD1Ev
libopal.so.3.10.11:_ZN22OpalPluginCodecManagerD2Ev
libopal.so.3.10.11:_ZN22OpalStreamedTranscoder7ConvertERK13RTP_DataFrameRS0_
libopal.so.3.10.11:_ZN22OpalStreamedTranscoderC1ERK15OpalMediaFormatS2_jj
libopal.so.3.10.11:_ZN22OpalStreamedTranscoderC2ERK15OpalMediaFormatS2_jj
libopal.so.3.10.11:_ZN22SDPFaxMediaDescription10PostDecodeERK19OpalMediaFormatList
libopal.so.3.10.11:_ZN22SDPFaxMediaDescription12SetAttributeERK7PStringS2_
libopal.so.3.10.11:_ZN22SDPFaxMediaDescription19ProcessMediaOptionsER14SDPMediaFormatRK15OpalMediaFormat
libopal.so.3.10.11:_ZN22SDPFaxMediaDescription20CreateSDPMediaFormatERK7PString
libopal.so.3.10.11:_ZN22SDPFaxMediaDescriptionC1ERK20OpalTransportAddress
libopal.so.3.10.11:_ZN22SDPFaxMediaDescriptionC2ERK20OpalTransportAddress
libopal.so.3.10.11:_ZN22SIPEventPackageHandler19ValidateContentTypeERK7PStringRK11SIPMIMEInfo
libopal.so.3.10.11:_ZN22T38_Data_Field_subtype6DecodeER11PASN_Stream
libopal.so.3.10.11:_ZN22T38_Data_Field_subtypeC1EjN11PASN_Object8TagClassE
libopal.so.3.10.11:_ZN22T38_Data_Field_subtypeC2EjN11PASN_Object8TagClassE
libopal.so.3.10.11:_ZN23H225_ArrayOf_ClearTokenC1EjN11PASN_Object8TagClassE
libopal.so.3.10.11:_ZN23H225_ArrayOf_ClearTokenC2EjN11PASN_Object8TagClassE
libopal.so.3.10.11:_ZN23H225_ArrayOf_RTPSessionC1EjN11PASN_Object8TagClassE
libopal.so.3.10.11:_ZN23H225_ArrayOf_RTPSessionC2EjN11PASN_Object8TagClassE
libopal.so.3.10.11:_ZN23H225_CallReferenceValueC1EjN11PASN_Object8TagClassE
libopal.so.3.10.11:_ZN23H225_CallReferenceValueC2EjN11PASN_Object8TagClassE
libopal.so.3.10.11:_ZN23H225_CallReferenceValueaSEi
libopal.so.3.10.11:_ZN23H225_CallReferenceValueaSEj
libopal.so.3.10.11:_ZN23H225_EndpointIdentifierC1EjN11PASN_Object8TagClassE
libopal.so.3.10.11:_ZN23H225_EndpointIdentifierC2EjN11PASN_Object8TagClassE
libopal.so.3.10.11:_ZN23H225_EndpointIdentifieraSEPKc
libopal.so.3.10.11:_ZN23H225_EndpointIdentifieraSERK10PBaseArrayIwE
libopal.so.3.10.11:_ZN23H225_EndpointIdentifieraSERK14PASN_BMPString
libopal.so.3.10.11:_ZN23H225_EndpointIdentifieraSERK7PString
libopal.so.3.10.11:_ZN23H225_IntegrityMechanism12CreateObjectEv
libopal.so.3.10.11:_ZN23H225_IntegrityMechanismC1EjN11PASN_Object8TagClassE
libopal.so.3.10.11:_ZN23H225_IntegrityMechanismC2EjN11PASN_Object8TagClassE
libopal.so.3.10.11:_ZN23H225_IntegrityMechanismcvR25H225_NonStandardParameterEv
libopal.so.3.10.11:_ZN23H225_IntegrityMechanismcvR29H225_NonIsoIntegrityMechanismEv
libopal.so.3.10.11:_ZN23H225_NonStandardMessage6DecodeER11PASN_Stream
libopal.so.3.10.11:_ZN23H225_NonStandardMessageC1EjN11PASN_Object8TagClassE
libopal.so.3.10.11:_ZN23H225_NonStandardMessageC2EjN11PASN_Object8TagClassE
libopal.so.3.10.11:_ZN23H225_PrivatePartyNumber6DecodeER11PASN_Stream
libopal.so.3.10.11:_ZN23H225_PrivatePartyNumberC1EjN11PASN_Object8TagClassE
libopal.so.3.10.11:_ZN23H225_PrivatePartyNumberC2EjN11PASN_Object8TagClassE
libopal.so.3.10.11:_ZN23H225_ProtocolIdentifierC1EjN11PASN_Object8TagClassE
libopal.so.3.10.11:_ZN23H225_ProtocolIdentifierC2EjN11PASN_Object8TagClassE
libopal.so.3.10.11:_ZN23H225_PublicTypeOfNumber12CreateObjectEv
libopal.so.3.10.11:_ZN23H225_PublicTypeOfNumberC1EjN11PASN_Object8TagClassE
libopal.so.3.10.11:_ZN23H225_PublicTypeOfNumberC2EjN11PASN_Object8TagClassE
libopal.so.3.10.11:_ZN23H225_RegistrationReject6DecodeER11PASN_Stream
libopal.so.3.10.11:_ZN23H225_RegistrationRejectC1EjN11PASN_Object8TagClassE
libopal.so.3.10.11:_ZN23H225_RegistrationRejectC2EjN11PASN_Object8TagClassE
libopal.so.3.10.11:_ZN23H225_ScreeningIndicatorC1EjN11PASN_Object8TagClassE
libopal.so.3.10.11:_ZN23H225_ScreeningIndicatorC2EjN11PASN_Object8TagClassE
libopal.so.3.10.11:_ZN23H225_ScreeningIndicatoraSEj
libopal.so.3.10.11:_ZN23H225_StatusInquiry_UUIE6DecodeER11PASN_Stream
libopal.so.3.10.11:_ZN23H225_StatusInquiry_UUIEC1EjN11PASN_Object8TagClassE
libopal.so.3.10.11:_ZN23H225_StatusInquiry_UUIEC2EjN11PASN_Object8TagClassE
libopal.so.3.10.11:_ZN23H225_SupportedProtocols12CreateObjectEv
libopal.so.3.10.11:_ZN23H225_SupportedProtocolsC1EjN11PASN_Object8TagClassE
libopal.so.3.10.11:_ZN23H225_SupportedProtocolsC2EjN11PASN_Object8TagClassE
libopal.so.3.10.11:_ZN23H225_SupportedProtocolscvR12H225_SIPCapsEv
libopal.so.3.10.11:_ZN23H225_SupportedProtocolscvR13H225_H310CapsEv
libopal.so.3.10.11:_ZN23H225_SupportedProtocolscvR13H225_H320CapsEv
libopal.so.3.10.11:_ZN23H225_SupportedProtocolscvR13H225_H321CapsEv
libopal.so.3.10.11:_ZN23H225_SupportedProtocolscvR13H225_H322CapsEv
libopal.so.3.10.11:_ZN23H225_SupportedProtocolscvR13H225_H323CapsEv
libopal.so.3.10.11:_ZN23H225_SupportedProtocolscvR13H225_H324CapsEv
libopal.so.3.10.11:_ZN23H225_SupportedProtocolscvR14H225_VoiceCapsEv
libopal.so.3.10.11:_ZN23H225_SupportedProtocolscvR17H225_T120OnlyCapsEv
libopal.so.3.10.11:_ZN23H225_SupportedProtocolscvR24H225_NonStandardProtocolEv
libopal.so.3.10.11:_ZN23H225_SupportedProtocolscvR25H225_NonStandardParameterEv
libopal.so.3.10.11:_ZN23H225_SupportedProtocolscvR25H225_T38FaxAnnexbOnlyCapsEv
libopal.so.3.10.11:_ZN23H225_UnregRequestReason12CreateObjectEv
libopal.so.3.10.11:_ZN23H225_UnregRequestReasonC1EjN11PASN_Object8TagClassE
libopal.so.3.10.11:_ZN23H225_UnregRequestReasonC2EjN11PASN_Object8TagClassE
libopal.so.3.10.11:_ZN23H225_UnregRequestReasoncvR20H225_SecurityErrors2Ev
libopal.so.3.10.11:_ZN23H245_ArrayOf_EscrowDataC1EjN11PASN_Object8TagClassE
libopal.so.3.10.11:_ZN23H245_ArrayOf_EscrowDataC2EjN11PASN_Object8TagClassE
libopal.so.3.10.11:_ZN23H245_ConferenceResponse12CreateObjectEv
libopal.so.3.10.11:_ZN23H245_ConferenceResponseC1EjN11PASN_Object8TagClassE
libopal.so.3.10.11:_ZN23H245_ConferenceResponseC2EjN11PASN_Object8TagClassE
libopal.so.3.10.11:_ZN23H245_ConferenceResponsecvR21H245_RemoteMCResponseEv
libopal.so.3.10.11:_ZN23H245_ConferenceResponsecvR26H245_ArrayOf_TerminalLabelEv
libopal.so.3.10.11:_ZN23H245_ConferenceResponsecvR34H245_RequestAllTerminalIDsResponseEv
libopal.so.3.10.11:_ZN23H245_ConferenceResponsecvR40H245_ConferenceResponse_passwordResponseEv
libopal.so.3.10.11:_ZN23H245_ConferenceResponsecvR42H245_ConferenceResponse_terminalIDResponseEv
libopal.so.3.10.11:_ZN23H245_ConferenceResponsecvR43H245_ConferenceResponse_makeMeChairResponseEv
libopal.so.3.10.11:_ZN23H245_ConferenceResponsecvR44H245_ConferenceResponse_conferenceIDResponseEv
libopal.so.3.10.11:_ZN23H245_ConferenceResponsecvR44H245_ConferenceResponse_mCTerminalIDResponseEv
libopal.so.3.10.11:_ZN23H245_ConferenceResponsecvR46H245_ConferenceResponse_sendThisSourceResponseEv
libopal.so.3.10.11:_ZN23H245_ConferenceResponsecvR47H245_ConferenceResponse_chairTokenOwnerResponseEv
libopal.so.3.10.11:_ZN23H245_ConferenceResponsecvR48H245_ConferenceResponse_extensionAddressResponseEv
libopal.so.3.10.11:_ZN23H245_ConferenceResponsecvR51H245_ConferenceResponse_terminalCertificateResponseEv
libopal.so.3.10.11:_ZN23H245_ConferenceResponsecvR55H245_ConferenceResponse_makeTerminalBroadcasterResponseEv
libopal.so.3.10.11:_ZN23H245_ConferenceResponsecvR57H245_ConferenceResponse_broadcastMyLogicalChannelResponseEv
libopal.so.3.10.11:_ZN23H245_DepFECData_rfc27336DecodeER11PASN_Stream
libopal.so.3.10.11:_ZN23H245_DepFECData_rfc2733C1EjN11PASN_Object8TagClassE
libopal.so.3.10.11:_ZN23H245_DepFECData_rfc2733C2EjN11PASN_Object8TagClassE
libopal.so.3.10.11:_ZN23H245_DialingInformation12CreateObjectEv
libopal.so.3.10.11:_ZN23H245_DialingInformationC1EjN11PASN_Object8TagClassE
libopal.so.3.10.11:_ZN23H245_DialingInformationC2EjN11PASN_Object8TagClassE
libopal.so.3.10.11:_ZN23H245_DialingInformationcvR23H245_NonStandardMessageEv
libopal.so.3.10.11:_ZN23H245_DialingInformationcvR37H245_ArrayOf_DialingInformationNumberEv
libopal.so.3.10.11:_ZN23H245_EnhancementOptions6DecodeER11PASN_Stream
libopal.so.3.10.11:_ZN23H245_EnhancementOptionsC1EjN11PASN_Object8TagClassE
libopal.so.3.10.11:_ZN23H245_EnhancementOptionsC2EjN11PASN_Object8TagClassE
libopal.so.3.10.11:_ZN23H245_FlowControlCommand6DecodeER11PASN_Stream
libopal.so.3.10.11:_ZN23H245_FlowControlCommandC1EjN11PASN_Object8TagClassE
libopal.so.3.10.11:_ZN23H245_FlowControlCommandC2EjN11PASN_Object8TagClassE
libopal.so.3.10.11:_ZN23H245_GSMAudioCapability6DecodeER11PASN_Stream
libopal.so.3.10.11:_ZN23H245_GSMAudioCapabilityC1EjN11PASN_Object8TagClassE
libopal.so.3.10.11:_ZN23H245_GSMAudioCapabilityC2EjN11PASN_Object8TagClassE
libopal.so.3.10.11:_ZN23H245_GenericInformationC1EjN11PASN_Object8TagClassE
libopal.so.3.10.11:_ZN23H245_GenericInformationC2EjN11PASN_Object8TagClassE
libopal.so.3.10.11:_ZN23H245_H223AL1MParameters6DecodeER11PASN_Stream
libopal.so.3.10.11:_ZN23H245_H223AL1MParametersC1EjN11PASN_Object8TagClassE
libopal.so.3.10.11:_ZN23H245_H223AL1MParametersC2EjN11PASN_Object8TagClassE
libopal.so.3.10.11:_ZN23H245_H223AL2MParameters6DecodeER11PASN_Stream
libopal.so.3.10.11:_ZN23H245_H223AL2MParametersC1EjN11PASN_Object8TagClassE
libopal.so.3.10.11:_ZN23H245_H223AL2MParametersC2EjN11PASN_Object8TagClassE
libopal.so.3.10.11:_ZN23H245_H223AL3MParameters6DecodeER11PASN_Stream
libopal.so.3.10.11:_ZN23H245_H223AL3MParametersC1EjN11PASN_Object8TagClassE
libopal.so.3.10.11:_ZN23H245_H223AL3MParametersC2EjN11PASN_Object8TagClassE
libopal.so.3.10.11:_ZN23H245_H223ModeParameters6DecodeER11PASN_Stream
libopal.so.3.10.11:_ZN23H245_H223ModeParametersC1EjN11PASN_Object8TagClassE
libopal.so.3.10.11:_ZN23H245_H223ModeParametersC2EjN11PASN_Object8TagClassE
libopal.so.3.10.11:_ZN23H245_H223SkewIndication6DecodeER11PASN_Stream
libopal.so.3.10.11:_ZN23H245_H223SkewIndicationC1EjN11PASN_Object8TagClassE
libopal.so.3.10.11:_ZN23H245_H223SkewIndicationC2EjN11PASN_Object8TagClassE
libopal.so.3.10.11:_ZN23H245_H235Mode_mediaMode12CreateObjectEv
libopal.so.3.10.11:_ZN23H245_H235Mode_mediaModeC1EjN11PASN_Object8TagClassE
libopal.so.3.10.11:_ZN23H245_H235Mode_mediaModeC2EjN11PASN_Object8TagClassE
libopal.so.3.10.11:_ZN23H245_H235Mode_mediaModecvR13H245_DataModeEv
libopal.so.3.10.11:_ZN23H245_H235Mode_mediaModecvR14H245_AudioModeEv
libopal.so.3.10.11:_ZN23H245_H235Mode_mediaModecvR14H245_VideoModeEv
libopal.so.3.10.11:_ZN23H245_H235Mode_mediaModecvR25H245_NonStandardParameterEv
libopal.so.3.10.11:_ZN23H245_H263ModeComboFlags6DecodeER11PASN_Stream
libopal.so.3.10.11:_ZN23H245_H263ModeComboFlagsC1EjN11PASN_Object8TagClassE
libopal.so.3.10.11:_ZN23H245_H263ModeComboFlagsC2EjN11PASN_Object8TagClassE
libopal.so.3.10.11:_ZN23H245_MaintenanceLoopAck6DecodeER11PASN_Stream
libopal.so.3.10.11:_ZN23H245_MaintenanceLoopAckC1EjN11PASN_Object8TagClassE
libopal.so.3.10.11:_ZN23H245_MaintenanceLoopAckC2EjN11PASN_Object8TagClassE
libopal.so.3.10.11:_ZN23H245_MediaTransportType12CreateObjectEv
libopal.so.3.10.11:_ZN23H245_MediaTransportTypeC1EjN11PASN_Object8TagClassE
libopal.so.3.10.11:_ZN23H245_MediaTransportTypeC2EjN11PASN_Object8TagClassE
libopal.so.3.10.11:_ZN23H245_MediaTransportTypecvR43H245_MediaTransportType_atm_AAL5_compressedEv
libopal.so.3.10.11:_ZN23H245_MultiplexEntrySend6DecodeER11PASN_Stream
libopal.so.3.10.11:_ZN23H245_MultiplexEntrySendC1EjN11PASN_Object8TagClassE
libopal.so.3.10.11:_ZN23H245_MultiplexEntrySendC2EjN11PASN_Object8TagClassE
libopal.so.3.10.11:_ZN23H245_NewATMVCIndication6DecodeER11PASN_Stream
libopal.so.3.10.11:_ZN23H245_NewATMVCIndicationC1EjN11PASN_Object8TagClassE
libopal.so.3.10.11:_ZN23H245_NewATMVCIndicationC2EjN11PASN_Object8TagClassE
libopal.so.3.10.11:_ZN23H245_NonStandardMessage6DecodeER11PASN_Stream
libopal.so.3.10.11:_ZN23H245_NonStandardMessageC1EjN11PASN_Object8TagClassE
libopal.so.3.10.11:_ZN23H245_NonStandardMessageC2EjN11PASN_Object8TagClassE
libopal.so.3.10.11:_ZN23H245_OpenLogicalChannel6DecodeER11PASN_Stream
libopal.so.3.10.11:_ZN23H245_OpenLogicalChannelC1EjN11PASN_Object8TagClassE
libopal.so.3.10.11:_ZN23H245_OpenLogicalChannelC2EjN11PASN_Object8TagClassE
libopal.so.3.10.11:_ZN23H245_RedundancyEncoding6DecodeER11PASN_Stream
libopal.so.3.10.11:_ZN23H245_RedundancyEncodingC1EjN11PASN_Object8TagClassE
libopal.so.3.10.11:_ZN23H245_RedundancyEncodingC2EjN11PASN_Object8TagClassE
libopal.so.3.10.11:_ZN23H245_RequestModeRelease6DecodeER11PASN_Stream
libopal.so.3.10.11:_ZN23H245_RequestModeReleaseC1EjN11PASN_Object8TagClassE
libopal.so.3.10.11:_ZN23H245_RequestModeReleaseC2EjN11PASN_Object8TagClassE
libopal.so.3.10.11:_ZN23H248_DigitMapDescriptor6DecodeER11PASN_Stream
libopal.so.3.10.11:_ZN23H248_DigitMapDescriptorC1EjN11PASN_Object8TagClassE
libopal.so.3.10.11:_ZN23H248_DigitMapDescriptorC2EjN11PASN_Object8TagClassE
libopal.so.3.10.11:_ZN23H248_EventBufferControlC1EjN11PASN_Object8TagClassE
libopal.so.3.10.11:_ZN23H248_EventBufferControlC2EjN11PASN_Object8TagClassE
libopal.so.3.10.11:_ZN23H248_EventBufferControlaSEj
libopal.so.3.10.11:_ZN23H248_IndAudPropertyParm6DecodeER11PASN_Stream
libopal.so.3.10.11:_ZN23H248_IndAudPropertyParmC1EjN11PASN_Object8TagClassE
libopal.so.3.10.11:_ZN23H248_IndAudPropertyParmC2EjN11PASN_Object8TagClassE
libopal.so.3.10.11:_ZN23H248_PackagesDescriptorC1EjN11PASN_Object8TagClassE
libopal.so.3.10.11:_ZN23H248_PackagesDescriptorC2EjN11PASN_Object8TagClassE
libopal.so.3.10.11:_ZN23H248_ServiceChangeReply6DecodeER11PASN_Stream
libopal.so.3.10.11:_ZN23H248_ServiceChangeReplyC1EjN11PASN_Object8TagClassE
libopal.so.3.10.11:_ZN23H248_ServiceChangeReplyC2EjN11PASN_Object8TagClassE
libopal.so.3.10.11:_ZN23H248_TransactionPending6DecodeER11PASN_Stream
libopal.so.3.10.11:_ZN23H248_TransactionPendingC1EjN11PASN_Object8TagClassE
libopal.so.3.10.11:_ZN23H248_TransactionPendingC2EjN11PASN_Object8TagClassE
libopal.so.3.10.11:_ZN23H248_TransactionRequest6DecodeER11PASN_Stream
libopal.so.3.10.11:_ZN23H248_TransactionRequestC1EjN11PASN_Object8TagClassE
libopal.so.3.10.11:_ZN23H248_TransactionRequestC2EjN11PASN_Object8TagClassE
libopal.so.3.10.11:_ZN23H323GSMPluginCapability13OnReceivedPDUERK20H245_AudioCapabilityRj
libopal.so.3.10.11:_ZN23H323H239VideoCapability13OnReceivedPDUERK20H245_VideoCapabilityN14H323Capability11CommandTypeE
libopal.so.3.10.11:_ZN23H323H239VideoCapabilityC1ERK15OpalMediaFormat
libopal.so.3.10.11:_ZN23H323H239VideoCapabilityC2ERK15OpalMediaFormat
libopal.so.3.10.11:_ZN23H323PresenceIdentifiers13GetIdentifierEi
libopal.so.3.10.11:_ZN23H323PresenceIdentifiers3AddERK17PGloballyUniqueID
libopal.so.3.10.11:_ZN23H323PresenceInstruction14GetInstructionEv
libopal.so.3.10.11:_ZN23H323PresenceInstruction20GetInstructionStringEj
libopal.so.3.10.11:_ZN23H323PresenceInstruction8GetAliasEv
libopal.so.3.10.11:_ZN23H323PresenceInstructionC1ENS_11InstructionERK7PString
libopal.so.3.10.11:_ZN23H323PresenceInstructionC2ENS_11InstructionERK7PString
libopal.so.3.10.11:_ZN23H323_ExternalRTPChannel13OnReceivedPDUERK34H245_H2250LogicalChannelParametersRj
libopal.so.3.10.11:_ZN23H323_ExternalRTPChannel16OnReceivedAckPDUERK37H245_H2250LogicalChannelAckParameters
libopal.so.3.10.11:_ZN23H323_ExternalRTPChannel18SetExternalAddressERK20H323TransportAddressS2_
libopal.so.3.10.11:_ZN23H323_ExternalRTPChannel5StartEv
libopal.so.3.10.11:_ZN23H323_ExternalRTPChannel7ReceiveEv
libopal.so.3.10.11:_ZN23H323_ExternalRTPChannel8TransmitEv
libopal.so.3.10.11:_ZN23H323_ExternalRTPChannel9ConstructER14H323Connectionj
libopal.so.3.10.11:_ZN23H323_ExternalRTPChannelC1ER14H323ConnectionRK14H323CapabilityN11H323Channel10DirectionsEj
libopal.so.3.10.11:_ZN23H323_ExternalRTPChannelC1ER14H323ConnectionRK14H323CapabilityN11H323Channel10DirectionsEjRK20H323TransportAddressS9_
libopal.so.3.10.11:_ZN23H323_ExternalRTPChannelC1ER14H323ConnectionRK14H323CapabilityN11H323Channel10DirectionsEjRKN9PIPSocket7AddressEt
libopal.so.3.10.11:_ZN23H323_ExternalRTPChannelC2ER14H323ConnectionRK14H323CapabilityN11H323Channel10DirectionsEj
libopal.so.3.10.11:_ZN23H323_ExternalRTPChannelC2ER14H323ConnectionRK14H323CapabilityN11H323Channel10DirectionsEjRK20H323TransportAddressS9_
libopal.so.3.10.11:_ZN23H323_ExternalRTPChannelC2ER14H323ConnectionRK14H323CapabilityN11H323Channel10DirectionsEjRKN9PIPSocket7AddressEt
libopal.so.3.10.11:_ZN23H4504_CallHoldOperationC1EjN11PASN_Object8TagClassE
libopal.so.3.10.11:_ZN23H4504_CallHoldOperationC2EjN11PASN_Object8TagClassE
libopal.so.3.10.11:_ZN23H4504_CallHoldOperationaSEj
libopal.so.3.10.11:_ZN23H4504_RemoteRetrieveArg6DecodeER11PASN_Stream
libopal.so.3.10.11:_ZN23H4504_RemoteRetrieveArgC1EjN11PASN_Object8TagClassE
libopal.so.3.10.11:_ZN23H4504_RemoteRetrieveArgC2EjN11PASN_Object8TagClassE
libopal.so.3.10.11:_ZN23H4504_RemoteRetrieveRes6DecodeER11PASN_Stream
libopal.so.3.10.11:_ZN23H4504_RemoteRetrieveResC1EjN11PASN_Object8TagClassE
libopal.so.3.10.11:_ZN23H4504_RemoteRetrieveResC2EjN11PASN_Object8TagClassE
libopal.so.3.10.11:_ZN23H4507_MWIInterrogateArg6DecodeER11PASN_Stream
libopal.so.3.10.11:_ZN23H4507_MWIInterrogateArgC1EjN11PASN_Object8TagClassE
libopal.so.3.10.11:_ZN23H4507_MWIInterrogateArgC2EjN11PASN_Object8TagClassE
libopal.so.3.10.11:_ZN23H4507_MWIInterrogateResC1EjN11PASN_Object8TagClassE
libopal.so.3.10.11:_ZN23H4507_MWIInterrogateResC2EjN11PASN_Object8TagClassE
libopal.so.3.10.11:_ZN23H46018_LRQKeepAliveData6DecodeER11PASN_Stream
libopal.so.3.10.11:_ZN23H46018_LRQKeepAliveDataC1EjN11PASN_Object8TagClassE
libopal.so.3.10.11:_ZN23H46018_LRQKeepAliveDataC2EjN11PASN_Object8TagClassE
libopal.so.3.10.11:_ZN23H4609_ArrayOf_ExtensionC1EjN11PASN_Object8TagClassE
libopal.so.3.10.11:_ZN23H4609_ArrayOf_ExtensionC2EjN11PASN_Object8TagClassE
libopal.so.3.10.11:_ZN23H4609_FinalQosMonReport6DecodeER11PASN_Stream
libopal.so.3.10.11:_ZN23H4609_FinalQosMonReportC1EjN11PASN_Object8TagClassE
libopal.so.3.10.11:_ZN23H4609_FinalQosMonReportC2EjN11PASN_Object8TagClassE
libopal.so.3.10.11:_ZN23H460P_PresenceAuthorize6DecodeER11PASN_Stream
libopal.so.3.10.11:_ZN23H460P_PresenceAuthorizeC1EjN11PASN_Object8TagClassE
libopal.so.3.10.11:_ZN23H460P_PresenceAuthorizeC2EjN11PASN_Object8TagClassE
libopal.so.3.10.11:_ZN23H501_AccessConfirmation6DecodeER11PASN_Stream
libopal.so.3.10.11:_ZN23H501_AccessConfirmationC1EjN11PASN_Object8TagClassE
libopal.so.3.10.11:_ZN23H501_AccessConfirmationC2EjN11PASN_Object8TagClassE
libopal.so.3.10.11:_ZN23H501_ApplicationMessageC1EPKc
libopal.so.3.10.11:_ZN23H501_ApplicationMessageC1ERK10PBYTEArray
libopal.so.3.10.11:_ZN23H501_ApplicationMessageC1ERK7PString
libopal.so.3.10.11:_ZN23H501_ApplicationMessageC1EjN11PASN_Object8TagClassE
libopal.so.3.10.11:_ZN23H501_ApplicationMessageC2EPKc
libopal.so.3.10.11:_ZN23H501_ApplicationMessageC2ERK10PBYTEArray
libopal.so.3.10.11:_ZN23H501_ApplicationMessageC2ERK7PString
libopal.so.3.10.11:_ZN23H501_ApplicationMessageC2EjN11PASN_Object8TagClassE
libopal.so.3.10.11:_ZN23H501_ApplicationMessageaSEPKc
libopal.so.3.10.11:_ZN23H501_ApplicationMessageaSERK10PBYTEArray
libopal.so.3.10.11:_ZN23H501_ApplicationMessageaSERK7PString
libopal.so.3.10.11:_ZN23H501_ArrayOf_ClearTokenC1EjN11PASN_Object8TagClassE
libopal.so.3.10.11:_ZN23H501_ArrayOf_ClearTokenC2EjN11PASN_Object8TagClassE
libopal.so.3.10.11:_ZN23H501_ArrayOf_DescriptorC1EjN11PASN_Object8TagClassE
libopal.so.3.10.11:_ZN23H501_ArrayOf_DescriptorC2EjN11PASN_Object8TagClassE
libopal.so.3.10.11:_ZN23H501_ArrayOf_UsageFieldC1EjN11PASN_Object8TagClassE
libopal.so.3.10.11:_ZN23H501_ArrayOf_UsageFieldC2EjN11PASN_Object8TagClassE
libopal.so.3.10.11:_ZN23H501_ContactInformation6DecodeER11PASN_Stream
libopal.so.3.10.11:_ZN23H501_ContactInformationC1EjN11PASN_Object8TagClassE
libopal.so.3.10.11:_ZN23H501_ContactInformationC2EjN11PASN_Object8TagClassE
libopal.so.3.10.11:_ZN23H501_NonStandardRequest6DecodeER11PASN_Stream
libopal.so.3.10.11:_ZN23H501_NonStandardRequestC1EjN11PASN_Object8TagClassE
libopal.so.3.10.11:_ZN23H501_NonStandardRequestC2EjN11PASN_Object8TagClassE
libopal.so.3.10.11:_ZN23H501_PriceElement_units12CreateObjectEv
libopal.so.3.10.11:_ZN23H501_PriceElement_unitsC1EjN11PASN_Object8TagClassE
libopal.so.3.10.11:_ZN23H501_PriceElement_unitsC2EjN11PASN_Object8TagClassE
libopal.so.3.10.11:_ZN23H501_UsageSpecification6DecodeER11PASN_Stream
libopal.so.3.10.11:_ZN23H501_UsageSpecificationC1EjN11PASN_Object8TagClassE
libopal.so.3.10.11:_ZN23H501_UsageSpecificationC2EjN11PASN_Object8TagClassE
libopal.so.3.10.11:_ZN23OpalAudioFormatInternal5MergeERK23OpalMediaFormatInternal
libopal.so.3.10.11:_ZN23OpalAudioFormatInternalC1EPKcN13RTP_DataFrame12PayloadTypesES1_ijjjjjl
libopal.so.3.10.11:_ZN23OpalAudioFormatInternalC2EPKcN13RTP_DataFrame12PayloadTypesES1_ijjjjjl
libopal.so.3.10.11:_ZN23OpalConnectionIMContextC1Ev
libopal.so.3.10.11:_ZN23OpalConnectionIMContextC2Ev
libopal.so.3.10.11:_ZN23OpalInternalIPTransport20GetAdjustedIpAndPortERK20OpalTransportAddressR12OpalEndPointNS0_11BindOptionsERN9PIPSocket7AddressERtRb
libopal.so.3.10.11:_ZN23OpalLineInterfaceDevice10WriteBlockEjPKvi
libopal.so.3.10.11:_ZN23OpalLineInterfaceDevice11EnableAudioEjb
libopal.so.3.10.11:_ZN23OpalLineInterfaceDevice11GetAllTypesEv
libopal.so.3.10.11:_ZN23OpalLineInterfaceDevice11GetCallerIDEjR7PStringb
libopal.so.3.10.11:_ZN23OpalLineInterfaceDevice11SetCallerIDEjRK7PString
libopal.so.3.10.11:_ZN23OpalLineInterfaceDevice11StopReadingEj
libopal.so.3.10.11:_ZN23OpalLineInterfaceDevice11StopWritingEj
libopal.so.3.10.11:_ZN23OpalLineInterfaceDevice11WaitForToneEjNS_17CallProgressTonesEj
libopal.so.3.10.11:_ZN23OpalLineInterfaceDevice12HasHookFlashEj
libopal.so.3.10.11:_ZN23OpalLineInterfaceDevice13CreateAndOpenERK7PStringPv
libopal.so.3.10.11:_ZN23OpalLineInterfaceDevice13GetAllDevicesEv
libopal.so.3.10.11:_ZN23OpalLineInterfaceDevice13GetPlayVolumeEjRj
libopal.so.3.10.11:_ZN23OpalLineInterfaceDevice13GetRemoveDTMFEj
libopal.so.3.10.11:_ZN23OpalLineInterfaceDevice13IsLinePresentEjb
libopal.so.3.10.11:_ZN23OpalLineInterfaceDevice13IsLineRingingEjPj
libopal.so.3.10.11:_ZN23OpalLineInterfaceDevice13IsTonePlayingEj
libopal.so.3.10.11:_ZN23OpalLineInterfaceDevice13SetPlayVolumeEjj
libopal.so.3.10.11:_ZN23OpalLineInterfaceDevice13SetRemoveDTMFEjb
libopal.so.3.10.11:_ZN23OpalLineInterfaceDevice14GetCountryCodeERK7PString
libopal.so.3.10.11:_ZN23OpalLineInterfaceDevice14IsToneDetectedEj
libopal.so.3.10.11:_ZN23OpalLineInterfaceDevice14SetCountryCodeENS_15T35CountryCodesE
libopal.so.3.10.11:_ZN23OpalLineInterfaceDevice15GetRecordVolumeEjRj
libopal.so.3.10.11:_ZN23OpalLineInterfaceDevice15GetWinkDurationEj
libopal.so.3.10.11:_ZN23OpalLineInterfaceDevice15IsLineConnectedEj
libopal.so.3.10.11:_ZN23OpalLineInterfaceDevice15RecordAudioStopEj
libopal.so.3.10.11:_ZN23OpalLineInterfaceDevice15SetRecordVolumeEjj
libopal.so.3.10.11:_ZN23OpalLineInterfaceDevice15SetWinkDurationEjj
libopal.so.3.10.11:_ZN23OpalLineInterfaceDevice16GetReadFrameSizeEj
libopal.so.3.10.11:_ZN23OpalLineInterfaceDevice16RecordAudioStartEjRK7PString
libopal.so.3.10.11:_ZN23OpalLineInterfaceDevice16SetLineConnectedEj
libopal.so.3.10.11:_ZN23OpalLineInterfaceDevice16SetReadFrameSizeEji
libopal.so.3.10.11:_ZN23OpalLineInterfaceDevice17GetWriteFrameSizeEj
libopal.so.3.10.11:_ZN23OpalLineInterfaceDevice17SetToneParametersEjNS_17CallProgressTonesEjjNS_15ToneMixingModesEiPKjS3_
libopal.so.3.10.11:_ZN23OpalLineInterfaceDevice17SetWriteFrameSizeEji
libopal.so.3.10.11:_ZN23OpalLineInterfaceDevice17WaitForToneDetectEjj
libopal.so.3.10.11:_ZN23OpalLineInterfaceDevice18GetCountryCodeNameENS_15T35CountryCodesE
libopal.so.3.10.11:_ZN23OpalLineInterfaceDevice18IsLineDisconnectedEjb
libopal.so.3.10.11:_ZN23OpalLineInterfaceDevice18IsLineToLineDirectEjj
libopal.so.3.10.11:_ZN23OpalLineInterfaceDevice18SetCountryCodeNameERK7PString
libopal.so.3.10.11:_ZN23OpalLineInterfaceDevice18SetToneDescriptionEjNS_17CallProgressTonesERK7PString
libopal.so.3.10.11:_ZN23OpalLineInterfaceDevice19SetLineToLineDirectEjjb
libopal.so.3.10.11:_ZN23OpalLineInterfaceDevice21GetAverageSignalLevelEjb
libopal.so.3.10.11:_ZN23OpalLineInterfaceDevice33SendVisualMessageWaitingIndicatorEjb
libopal.so.3.10.11:_ZN23OpalLineInterfaceDevice5CloseEv
libopal.so.3.10.11:_ZN23OpalLineInterfaceDevice6CreateERK7PStringPv
libopal.so.3.10.11:_ZN23OpalLineInterfaceDevice6SetAECEjNS_9AECLevelsE
libopal.so.3.10.11:_ZN23OpalLineInterfaceDevice6SetVADEjb
libopal.so.3.10.11:_ZN23OpalLineInterfaceDevice7DialOutEjRK7PStringRKNS_10DialParamsE
libopal.so.3.10.11:_ZN23OpalLineInterfaceDevice8PlayDTMFEjPKcjj
libopal.so.3.10.11:_ZN23OpalLineInterfaceDevice8PlayToneEjNS_17CallProgressTonesE
libopal.so.3.10.11:_ZN23OpalLineInterfaceDevice8ReadDTMFEj
libopal.so.3.10.11:_ZN23OpalLineInterfaceDevice8RingLineEjiPKjj
libopal.so.3.10.11:_ZN23OpalLineInterfaceDevice8StopToneEj
libopal.so.3.10.11:_ZN23OpalLineInterfaceDevice9HookFlashEjj
libopal.so.3.10.11:_ZN23OpalLineInterfaceDevice9PlayAudioEjRK7PString
libopal.so.3.10.11:_ZN23OpalLineInterfaceDevice9ReadBlockEjPvi
libopal.so.3.10.11:_ZN23OpalLineInterfaceDevice9StopAudioEj
libopal.so.3.10.11:_ZN23OpalLineInterfaceDeviceC1Ev
libopal.so.3.10.11:_ZN23OpalLineInterfaceDeviceC2Ev
libopal.so.3.10.11:_ZN23OpalLineSilenceDetector21GetAverageSignalLevelEPKhi
libopal.so.3.10.11:_ZN23OpalLineSilenceDetectorC1ER8OpalLineRKN19OpalSilenceDetector6ParamsE
libopal.so.3.10.11:_ZN23OpalLineSilenceDetectorC2ER8OpalLineRKN19OpalSilenceDetector6ParamsE
libopal.so.3.10.11:_ZN23OpalMediaFormatInternal13SetOptionEnumERK7PStringi
libopal.so.3.10.11:_ZN23OpalMediaFormatInternal13SetOptionRealERK7PStringd
libopal.so.3.10.11:_ZN23OpalMediaFormatInternal14SetOptionValueERK7PStringS2_
libopal.so.3.10.11:_ZN23OpalMediaFormatInternal15SetOptionOctetsERK7PStringPKhi
libopal.so.3.10.11:_ZN23OpalMediaFormatInternal15SetOptionOctetsERK7PStringRK10PBYTEArray
libopal.so.3.10.11:_ZN23OpalMediaFormatInternal15SetOptionStringERK7PStringS2_
libopal.so.3.10.11:_ZN23OpalMediaFormatInternal16SetOptionBooleanERK7PStringb
libopal.so.3.10.11:_ZN23OpalMediaFormatInternal16SetOptionIntegerERK7PStringi
libopal.so.3.10.11:_ZN23OpalMediaFormatInternal19ToCustomisedOptionsEv
libopal.so.3.10.11:_ZN23OpalMediaFormatInternal19ToNormalisedOptionsEv
libopal.so.3.10.11:_ZN23OpalMediaFormatInternal5MergeERKS_
libopal.so.3.10.11:_ZN23OpalMediaFormatInternal9AddOptionEP15OpalMediaOptionb
libopal.so.3.10.11:_ZN23OpalMediaFormatInternalC1EPKcRK13OpalMediaTypeN13RTP_DataFrame12PayloadTypesES1_bjijjl
libopal.so.3.10.11:_ZN23OpalMediaFormatInternalC2EPKcRK13OpalMediaTypeN13RTP_DataFrame12PayloadTypesES1_bjijjl
libopal.so.3.10.11:_ZN23OpalMediaTypeDefinition16CreateRTPSessionER17OpalRTPConnectionjb
libopal.so.3.10.11:_ZN23OpalMediaTypeDefinitionC1EPKcS1_jN13OpalMediaType13AutoStartModeE
libopal.so.3.10.11:_ZN23OpalMediaTypeDefinitionC2EPKcS1_jN13OpalMediaType13AutoStartModeE
libopal.so.3.10.11:_ZN23OpalMediaTypeDefinitionD0Ev
libopal.so.3.10.11:_ZN23OpalMediaTypeDefinitionD1Ev
libopal.so.3.10.11:_ZN23OpalMediaTypeDefinitionD2Ev
libopal.so.3.10.11:_ZN23OpalPresentityIMContextC1Ev
libopal.so.3.10.11:_ZN23OpalPresentityIMContextC2Ev
libopal.so.3.10.11:_ZN23OpalVideoFormatInternal5MergeERK23OpalMediaFormatInternal
libopal.so.3.10.11:_ZN23OpalVideoFormatInternalC1EPKcN13RTP_DataFrame12PayloadTypesES1_jjjjl
libopal.so.3.10.11:_ZN23OpalVideoFormatInternalC2EPKcN13RTP_DataFrame12PayloadTypesES1_jjjjl
libopal.so.3.10.11:_ZN23OpalVideoRateController3PopER5PListI13RTP_DataFrameERbb
libopal.so.3.10.11:_ZN23OpalVideoRateController4OpenERK15OpalMediaFormat
libopal.so.3.10.11:_ZN23OpalVideoRateController4PushER5PListI13RTP_DataFrameEb
libopal.so.3.10.11:_ZN23OpalVideoRateControllerC1Ev
libopal.so.3.10.11:_ZN23OpalVideoRateControllerC2Ev
libopal.so.3.10.11:_ZN23OpalVideoRateControllerD0Ev
libopal.so.3.10.11:_ZN23OpalVideoRateControllerD1Ev
libopal.so.3.10.11:_ZN23OpalVideoRateControllerD2Ev
libopal.so.3.10.11:_ZN23SDPMSRPMediaDescription12SetAttributeERK7PStringS2_
libopal.so.3.10.11:_ZN23SDPMSRPMediaDescription14AddMediaFormatERK15OpalMediaFormat
libopal.so.3.10.11:_ZN23SDPMSRPMediaDescription19ProcessMediaOptionsER14SDPMediaFormatRK15OpalMediaFormat
libopal.so.3.10.11:_ZN23SDPMSRPMediaDescription21CreateSDPMediaFormatsERK12PStringArray
libopal.so.3.10.11:_ZN23SDPMSRPMediaDescriptionC1ERK20OpalTransportAddress
libopal.so.3.10.11:_ZN23SDPMSRPMediaDescriptionC1ERK20OpalTransportAddressRK7PString
libopal.so.3.10.11:_ZN23SDPMSRPMediaDescriptionC2ERK20OpalTransportAddress
libopal.so.3.10.11:_ZN23SDPMSRPMediaDescriptionC2ERK20OpalTransportAddressRK7PString
libopal.so.3.10.11:_ZN23X880_ReturnErrorProblemC1EjN11PASN_Object8TagClassE
libopal.so.3.10.11:_ZN23X880_ReturnErrorProblemC2EjN11PASN_Object8TagClassE
libopal.so.3.10.11:_ZN23X880_ReturnErrorProblemaSEi
libopal.so.3.10.11:_ZN23X880_ReturnErrorProblemaSEj
libopal.so.3.10.11:_ZN24H225_ArrayOf_AlternateGKC1EjN11PASN_Object8TagClassE
libopal.so.3.10.11:_ZN24H225_ArrayOf_AlternateGKC2EjN11PASN_Object8TagClassE
libopal.so.3.10.11:_ZN24H225_ArrayOf_GenericDataC1EjN11PASN_Object8TagClassE
libopal.so.3.10.11:_ZN24H225_ArrayOf_GenericDataC2EjN11PASN_Object8TagClassE
libopal.so.3.10.11:_ZN24H225_ArrayOf_PartyNumberC1EjN11PASN_Object8TagClassE
libopal.so.3.10.11:_ZN24H225_ArrayOf_PartyNumberC2EjN11PASN_Object8TagClassE
libopal.so.3.10.11:_ZN24H225_CallProceeding_UUIE6DecodeER11PASN_Stream
libopal.so.3.10.11:_ZN24H225_CallProceeding_UUIEC1EjN11PASN_Object8TagClassE
libopal.so.3.10.11:_ZN24H225_CallProceeding_UUIEC2EjN11PASN_Object8TagClassE
libopal.so.3.10.11:_ZN24H225_EnumeratedParameter6DecodeER11PASN_Stream
libopal.so.3.10.11:_ZN24H225_EnumeratedParameterC1EjN11PASN_Object8TagClassE
libopal.so.3.10.11:_ZN24H225_EnumeratedParameterC2EjN11PASN_Object8TagClassE
libopal.so.3.10.11:_ZN24H225_InfoRequestResponse6DecodeER11PASN_Stream
libopal.so.3.10.11:_ZN24H225_InfoRequestResponseC1EjN11PASN_Object8TagClassE
libopal.so.3.10.11:_ZN24H225_InfoRequestResponseC2EjN11PASN_Object8TagClassE
libopal.so.3.10.11:_ZN24H225_NonStandardProtocol6DecodeER11PASN_Stream
libopal.so.3.10.11:_ZN24H225_NonStandardProtocolC1EjN11PASN_Object8TagClassE
libopal.so.3.10.11:_ZN24H225_NonStandardProtocolC2EjN11PASN_Object8TagClassE
libopal.so.3.10.11:_ZN24H225_PrivateTypeOfNumber12CreateObjectEv
libopal.so.3.10.11:_ZN24H225_PrivateTypeOfNumberC1EjN11PASN_Object8TagClassE
libopal.so.3.10.11:_ZN24H225_PrivateTypeOfNumberC2EjN11PASN_Object8TagClassE
libopal.so.3.10.11:_ZN24H225_RasUsageInformation6DecodeER11PASN_Stream
libopal.so.3.10.11:_ZN24H225_RasUsageInformationC1EjN11PASN_Object8TagClassE
libopal.so.3.10.11:_ZN24H225_RasUsageInformationC2EjN11PASN_Object8TagClassE
libopal.so.3.10.11:_ZN24H225_RegistrationConfirm6DecodeER11PASN_Stream
libopal.so.3.10.11:_ZN24H225_RegistrationConfirmC1EjN11PASN_Object8TagClassE
libopal.so.3.10.11:_ZN24H225_RegistrationConfirmC2EjN11PASN_Object8TagClassE
libopal.so.3.10.11:_ZN24H225_RegistrationRequest6DecodeER11PASN_Stream
libopal.so.3.10.11:_ZN24H225_RegistrationRequestC1EjN11PASN_Object8TagClassE
libopal.so.3.10.11:_ZN24H225_RegistrationRequestC2EjN11PASN_Object8TagClassE
libopal.so.3.10.11:_ZN24H225_SecurityServiceMode12CreateObjectEv
libopal.so.3.10.11:_ZN24H225_SecurityServiceModeC1EjN11PASN_Object8TagClassE
libopal.so.3.10.11:_ZN24H225_SecurityServiceModeC2EjN11PASN_Object8TagClassE
libopal.so.3.10.11:_ZN24H225_SecurityServiceModecvR25H225_NonStandardParameterEv
libopal.so.3.10.11:_ZN24H225_Setup_UUIE_languageC1EjN11PASN_Object8TagClassE
libopal.so.3.10.11:_ZN24H225_Setup_UUIE_languageC2EjN11PASN_Object8TagClassE
libopal.so.3.10.11:_ZN24H235_EncodedGeneralTokenC1EjN11PASN_Object8TagClassE
libopal.so.3.10.11:_ZN24H235_EncodedGeneralTokenC2EjN11PASN_Object8TagClassE
libopal.so.3.10.11:_ZN24H235_EncodedPwdCertTokenC1EjN11PASN_Object8TagClassE
libopal.so.3.10.11:_ZN24H235_EncodedPwdCertTokenC2EjN11PASN_Object8TagClassE
libopal.so.3.10.11:_ZN24H245_AudioToneCapability6DecodeER11PASN_Stream
libopal.so.3.10.11:_ZN24H245_AudioToneCapabilityC1EjN11PASN_Object8TagClassE
libopal.so.3.10.11:_ZN24H245_AudioToneCapabilityC2EjN11PASN_Object8TagClassE
libopal.so.3.10.11:_ZN24H245_CloseLogicalChannel6DecodeER11PASN_Stream
libopal.so.3.10.11:_ZN24H245_CloseLogicalChannelC1EjN11PASN_Object8TagClassE
libopal.so.3.10.11:_ZN24H245_CloseLogicalChannelC2EjN11PASN_Object8TagClassE
libopal.so.3.10.11:_ZN24H245_CustomPictureFormat6DecodeER11PASN_Stream
libopal.so.3.10.11:_ZN24H245_CustomPictureFormatC1EjN11PASN_Object8TagClassE
libopal.so.3.10.11:_ZN24H245_CustomPictureFormatC2EjN11PASN_Object8TagClassE
libopal.so.3.10.11:_ZN24H245_H2250ModeParameters6DecodeER11PASN_Stream
libopal.so.3.10.11:_ZN24H245_H2250ModeParametersC1EjN11PASN_Object8TagClassE
libopal.so.3.10.11:_ZN24H245_H2250ModeParametersC2EjN11PASN_Object8TagClassE
libopal.so.3.10.11:_ZN24H245_H235Media_mediaType12CreateObjectEv
libopal.so.3.10.11:_ZN24H245_H235Media_mediaTypeC1EjN11PASN_Object8TagClassE
libopal.so.3.10.11:_ZN24H245_H235Media_mediaTypeC2EjN11PASN_Object8TagClassE
libopal.so.3.10.11:_ZN24H245_H235Media_mediaTypecvR12H245_FECDataEv
libopal.so.3.10.11:_ZN24H245_H235Media_mediaTypecvR15H245_DepFECDataEv
libopal.so.3.10.11:_ZN24H245_H235Media_mediaTypecvR20H245_AudioCapabilityEv
libopal.so.3.10.11:_ZN24H245_H235Media_mediaTypecvR20H245_VideoCapabilityEv
libopal.so.3.10.11:_ZN24H245_H235Media_mediaTypecvR23H245_RedundancyEncodingEv
libopal.so.3.10.11:_ZN24H245_H235Media_mediaTypecvR25H245_NonStandardParameterEv
libopal.so.3.10.11:_ZN24H245_H235Media_mediaTypecvR26H245_MultiplePayloadStreamEv
libopal.so.3.10.11:_ZN24H245_H235Media_mediaTypecvR30H245_DataApplicationCapabilityEv
libopal.so.3.10.11:_ZN24H245_H261VideoCapability6DecodeER11PASN_Stream
libopal.so.3.10.11:_ZN24H245_H261VideoCapabilityC1EjN11PASN_Object8TagClassE
libopal.so.3.10.11:_ZN24H245_H261VideoCapabilityC2EjN11PASN_Object8TagClassE
libopal.so.3.10.11:_ZN24H245_H262VideoCapability6DecodeER11PASN_Stream
libopal.so.3.10.11:_ZN24H245_H262VideoCapabilityC1EjN11PASN_Object8TagClassE
libopal.so.3.10.11:_ZN24H245_H262VideoCapabilityC2EjN11PASN_Object8TagClassE
libopal.so.3.10.11:_ZN24H245_H263Version3Options6DecodeER11PASN_Stream
libopal.so.3.10.11:_ZN24H245_H263Version3OptionsC1EjN11PASN_Object8TagClassE
libopal.so.3.10.11:_ZN24H245_H263Version3OptionsC2EjN11PASN_Object8TagClassE
libopal.so.3.10.11:_ZN24H245_H263VideoCapability6DecodeER11PASN_Stream
libopal.so.3.10.11:_ZN24H245_H263VideoCapabilityC1EjN11PASN_Object8TagClassE
libopal.so.3.10.11:_ZN24H245_H263VideoCapabilityC2EjN11PASN_Object8TagClassE
libopal.so.3.10.11:_ZN24H245_H263VideoModeCombos6DecodeER11PASN_Stream
libopal.so.3.10.11:_ZN24H245_H263VideoModeCombosC1EjN11PASN_Object8TagClassE
libopal.so.3.10.11:_ZN24H245_H263VideoModeCombosC2EjN11PASN_Object8TagClassE
libopal.so.3.10.11:_ZN24H245_IntegrityCapability6DecodeER11PASN_Stream
libopal.so.3.10.11:_ZN24H245_IntegrityCapabilityC1EjN11PASN_Object8TagClassE
libopal.so.3.10.11:_ZN24H245_IntegrityCapabilityC2EjN11PASN_Object8TagClassE
libopal.so.3.10.11:_ZN24H245_KeyProtectionMethod6DecodeER11PASN_Stream
libopal.so.3.10.11:_ZN24H245_KeyProtectionMethodC1EjN11PASN_Object8TagClassE
libopal.so.3.10.11:_ZN24H245_KeyProtectionMethodC2EjN11PASN_Object8TagClassE
libopal.so.3.10.11:_ZN24H245_MultilinkIndication12CreateObjectEv
libopal.so.3.10.11:_ZN24H245_MultilinkIndicationC1EjN11PASN_Object8TagClassE
libopal.so.3.10.11:_ZN24H245_MultilinkIndicationC2EjN11PASN_Object8TagClassE
libopal.so.3.10.11:_ZN24H245_MultilinkIndicationcvR23H245_NonStandardMessageEv
libopal.so.3.10.11:_ZN24H245_MultilinkIndicationcvR35H245_MultilinkIndication_crcDesiredEv
libopal.so.3.10.11:_ZN24H245_MultilinkIndicationcvR39H245_MultilinkIndication_excessiveErrorEv
libopal.so.3.10.11:_ZN24H245_MultiplexCapability12CreateObjectEv
libopal.so.3.10.11:_ZN24H245_MultiplexCapabilityC1EjN11PASN_Object8TagClassE
libopal.so.3.10.11:_ZN24H245_MultiplexCapabilityC2EjN11PASN_Object8TagClassE
libopal.so.3.10.11:_ZN24H245_MultiplexCapabilitycvR18H245_V76CapabilityEv
libopal.so.3.10.11:_ZN24H245_MultiplexCapabilitycvR19H245_H222CapabilityEv
libopal.so.3.10.11:_ZN24H245_MultiplexCapabilitycvR19H245_H223CapabilityEv
libopal.so.3.10.11:_ZN24H245_MultiplexCapabilitycvR20H245_H2250CapabilityEv
libopal.so.3.10.11:_ZN24H245_MultiplexCapabilitycvR22H245_GenericCapabilityEv
libopal.so.3.10.11:_ZN24H245_MultiplexCapabilitycvR25H245_NonStandardParameterEv
libopal.so.3.10.11:_ZN24H245_NewATMVCCommand_aal12CreateObjectEv
libopal.so.3.10.11:_ZN24H245_NewATMVCCommand_aalC1EjN11PASN_Object8TagClassE
libopal.so.3.10.11:_ZN24H245_NewATMVCCommand_aalC2EjN11PASN_Object8TagClassE
libopal.so.3.10.11:_ZN24H245_NewATMVCCommand_aalcvR29H245_NewATMVCCommand_aal_aal1Ev
libopal.so.3.10.11:_ZN24H245_NewATMVCCommand_aalcvR29H245_NewATMVCCommand_aal_aal5Ev
libopal.so.3.10.11:_ZN24H245_ParameterIdentifier12CreateObjectEv
libopal.so.3.10.11:_ZN24H245_ParameterIdentifierC1EjN11PASN_Object8TagClassE
libopal.so.3.10.11:_ZN24H245_ParameterIdentifierC2EjN11PASN_Object8TagClassE
libopal.so.3.10.11:_ZN24H245_ParameterIdentifiercvR25H245_NonStandardParameterEv
libopal.so.3.10.11:_ZN24H245_RefPictureSelection6DecodeER11PASN_Stream
libopal.so.3.10.11:_ZN24H245_RefPictureSelectionC1EjN11PASN_Object8TagClassE
libopal.so.3.10.11:_ZN24H245_RefPictureSelectionC2EjN11PASN_Object8TagClassE
libopal.so.3.10.11:_ZN24H245_RequestChannelClose6DecodeER11PASN_Stream
libopal.so.3.10.11:_ZN24H245_RequestChannelCloseC1EjN11PASN_Object8TagClassE
libopal.so.3.10.11:_ZN24H245_RequestChannelCloseC2EjN11PASN_Object8TagClassE
libopal.so.3.10.11:_ZN24H245_TerminalInformation6DecodeER11PASN_Stream
libopal.so.3.10.11:_ZN24H245_TerminalInformationC1EjN11PASN_Object8TagClassE
libopal.so.3.10.11:_ZN24H245_TerminalInformationC2EjN11PASN_Object8TagClassE
libopal.so.3.10.11:_ZN24H245_TransportCapability6DecodeER11PASN_Stream
libopal.so.3.10.11:_ZN24H245_TransportCapabilityC1EjN11PASN_Object8TagClassE
libopal.so.3.10.11:_ZN24H245_TransportCapabilityC2EjN11PASN_Object8TagClassE
libopal.so.3.10.11:_ZN24H245_UserInputCapability12CreateObjectEv
libopal.so.3.10.11:_ZN24H245_UserInputCapabilityC1EjN11PASN_Object8TagClassE
libopal.so.3.10.11:_ZN24H245_UserInputCapabilityC2EjN11PASN_Object8TagClassE
libopal.so.3.10.11:_ZN24H245_UserInputCapabilitycvR22H245_GenericCapabilityEv
libopal.so.3.10.11:_ZN24H245_UserInputCapabilitycvR33H245_ArrayOf_NonStandardParameterEv
libopal.so.3.10.11:_ZN24H245_UserInputIndication12CreateObjectEv
libopal.so.3.10.11:_ZN24H245_UserInputIndicationC1EjN11PASN_Object8TagClassE
libopal.so.3.10.11:_ZN24H245_UserInputIndicationC2EjN11PASN_Object8TagClassE
libopal.so.3.10.11:_ZN24H245_UserInputIndicationcvR25H245_NonStandardParameterEv
libopal.so.3.10.11:_ZN24H245_UserInputIndicationcvR31H245_ArrayOf_GenericInformationEv
libopal.so.3.10.11:_ZN24H245_UserInputIndicationcvR31H245_UserInputIndication_signalEv
libopal.so.3.10.11:_ZN24H245_UserInputIndicationcvR37H245_UserInputIndication_signalUpdateEv
libopal.so.3.10.11:_ZN24H245_UserInputIndicationcvR45H245_UserInputIndication_extendedAlphanumericEv
libopal.so.3.10.11:_ZN24H245_UserInputIndicationcvR46H245_UserInputIndication_encryptedAlphanumericEv
libopal.so.3.10.11:_ZN24H245_UserInputIndicationcvR51H245_UserInputIndication_userInputSupportIndicationEv
libopal.so.3.10.11:_ZN24H248_ArrayOf_ActionReplyC1EjN11PASN_Object8TagClassE
libopal.so.3.10.11:_ZN24H248_ArrayOf_ActionReplyC2EjN11PASN_Object8TagClassE
libopal.so.3.10.11:_ZN24H248_ArrayOf_TransactionC1EjN11PASN_Object8TagClassE
libopal.so.3.10.11:_ZN24H248_ArrayOf_TransactionC2EjN11PASN_Object8TagClassE
libopal.so.3.10.11:_ZN24H248_IndAudPropertyGroupC1EjN11PASN_Object8TagClassE
libopal.so.3.10.11:_ZN24H248_IndAudPropertyGroupC2EjN11PASN_Object8TagClassE
libopal.so.3.10.11:_ZN24H248_Message_messageBody12CreateObjectEv
libopal.so.3.10.11:_ZN24H248_Message_messageBodyC1EjN11PASN_Object8TagClassE
libopal.so.3.10.11:_ZN24H248_Message_messageBodyC2EjN11PASN_Object8TagClassE
libopal.so.3.10.11:_ZN24H248_Message_messageBodycvR20H248_ErrorDescriptorEv
libopal.so.3.10.11:_ZN24H248_Message_messageBodycvR24H248_ArrayOf_TransactionEv
libopal.so.3.10.11:_ZN24H248_ServiceChangeMethodC1EjN11PASN_Object8TagClassE
libopal.so.3.10.11:_ZN24H248_ServiceChangeMethodC2EjN11PASN_Object8TagClassE
libopal.so.3.10.11:_ZN24H248_ServiceChangeMethodaSEj
libopal.so.3.10.11:_ZN24H248_ServiceChangeResult12CreateObjectEv
libopal.so.3.10.11:_ZN24H248_ServiceChangeResultC1EjN11PASN_Object8TagClassE
libopal.so.3.10.11:_ZN24H248_ServiceChangeResultC2EjN11PASN_Object8TagClassE
libopal.so.3.10.11:_ZN24H248_ServiceChangeResultcvR20H248_ErrorDescriptorEv
libopal.so.3.10.11:_ZN24H248_ServiceChangeResultcvR25H248_ServiceChangeResParmEv
libopal.so.3.10.11:_ZN24H248_StatisticsParameter6DecodeER11PASN_Stream
libopal.so.3.10.11:_ZN24H248_StatisticsParameterC1EjN11PASN_Object8TagClassE
libopal.so.3.10.11:_ZN24H248_StatisticsParameterC2EjN11PASN_Object8TagClassE
libopal.so.3.10.11:_ZN24H323BidirectionalChannel5StartEv
libopal.so.3.10.11:_ZN24H323BidirectionalChannelC1ER14H323ConnectionRK14H323Capability
libopal.so.3.10.11:_ZN24H323BidirectionalChannelC2ER14H323ConnectionRK14H323Capability
libopal.so.3.10.11:_ZN24H323H261PluginCapability13OnReceivedPDUERK20H245_VideoCapability
libopal.so.3.10.11:_ZN24H323H261PluginCapabilityC1EPK22PluginCodec_DefinitionRK15OpalMediaFormat
libopal.so.3.10.11:_ZN24H323H261PluginCapabilityC2EPK22PluginCodec_DefinitionRK15OpalMediaFormat
libopal.so.3.10.11:_ZN24H323H263PluginCapability13OnReceivedPDUERK20H245_VideoCapability
libopal.so.3.10.11:_ZN24H323H263PluginCapabilityC1EPK22PluginCodec_DefinitionRK15OpalMediaFormat
libopal.so.3.10.11:_ZN24H323H263PluginCapabilityC2EPK22PluginCodec_DefinitionRK15OpalMediaFormat
libopal.so.3.10.11:_ZN24H323PluginCapabilityInfoC1EPK22PluginCodec_DefinitionRK15OpalMediaFormat
libopal.so.3.10.11:_ZN24H323PluginCapabilityInfoC2EPK22PluginCodec_DefinitionRK15OpalMediaFormat
libopal.so.3.10.11:_ZN24H323PresenceInstructions3AddERK23H323PresenceInstruction
libopal.so.3.10.11:_ZN24H323PresenceNotification13AddSubscriberERK17PGloballyUniqueID
libopal.so.3.10.11:_ZN24H323PresenceNotification13GetSubscriberEi
libopal.so.3.10.11:_ZN24H323PresenceNotification14GetStateStringEj
libopal.so.3.10.11:_ZN24H323PresenceNotification15SetGenericStateERK7PString
libopal.so.3.10.11:_ZN24H323PresenceNotification16GetPresenceStateERNS_6StatesER7PString
libopal.so.3.10.11:_ZN24H323PresenceNotification16SetPresenceStateENS_6StatesERK7PString
libopal.so.3.10.11:_ZN24H323PresenceNotification17RemoveSubscribersEv
libopal.so.3.10.11:_ZN24H323PresenceNotification8AddAliasERK7PString
libopal.so.3.10.11:_ZN24H323PresenceNotification8GetAliasEv
libopal.so.3.10.11:_ZN24H323PresenceSubscription10IsApprovedEv
libopal.so.3.10.11:_ZN24H323PresenceSubscription11SetApprovedEb
libopal.so.3.10.11:_ZN24H323PresenceSubscription12MakeDecisionEb
libopal.so.3.10.11:_ZN24H323PresenceSubscription13GetSubscribedEv
libopal.so.3.10.11:_ZN24H323PresenceSubscription13SetTimeToLiveEi
libopal.so.3.10.11:_ZN24H323PresenceSubscription14IsDecisionMadeEv
libopal.so.3.10.11:_ZN24H323PresenceSubscription15GetSubscriptionEv
libopal.so.3.10.11:_ZN24H323PresenceSubscription15SetSubscriptionERK17PGloballyUniqueID
libopal.so.3.10.11:_ZN24H323PresenceSubscription16GetGatekeeperRASEv
libopal.so.3.10.11:_ZN24H323PresenceSubscription16SetGatekeeperRASERK20H323TransportAddress
libopal.so.3.10.11:_ZN24H323PresenceSubscription20GetSubscriberDetailsER11PStringList
libopal.so.3.10.11:_ZN24H323PresenceSubscription22SetSubscriptionDetailsERK7PStringRK11PStringList
libopal.so.3.10.11:_ZN24H323PresenceSubscriptionC1Ev
libopal.so.3.10.11:_ZN24H323PresenceSubscriptionC2Ev
libopal.so.3.10.11:_ZN24H323_UserInputCapability13OnReceivedPDUERK13H245_DataTypeb
libopal.so.3.10.11:_ZN24H323_UserInputCapability13OnReceivedPDUERK15H245_Capability
libopal.so.3.10.11:_ZN24H323_UserInputCapability14GetSubTypeNameENS_8SubTypesE
libopal.so.3.10.11:_ZN24H323_UserInputCapability18AddAllCapabilitiesER16H323Capabilitiesiib
libopal.so.3.10.11:_ZN24H323_UserInputCapabilityC1ENS_8SubTypesE
libopal.so.3.10.11:_ZN24H323_UserInputCapabilityC2ENS_8SubTypesE
libopal.so.3.10.11:_ZN24H45011_CICapabilityLevelC1EjN11PASN_Object8TagClassE
libopal.so.3.10.11:_ZN24H45011_CICapabilityLevelC2EjN11PASN_Object8TagClassE
libopal.so.3.10.11:_ZN24H45011_CICapabilityLevelaSEi
libopal.so.3.10.11:_ZN24H45011_CICapabilityLevelaSEj
libopal.so.3.10.11:_ZN24H45011_CINotificationArg6DecodeER11PASN_Stream
libopal.so.3.10.11:_ZN24H45011_CINotificationArgC1EjN11PASN_Object8TagClassE
libopal.so.3.10.11:_ZN24H45011_CINotificationArgC2EjN11PASN_Object8TagClassE
libopal.so.3.10.11:_ZN24H45011_CIProtectionLevelC1EjN11PASN_Object8TagClassE
libopal.so.3.10.11:_ZN24H45011_CIProtectionLevelC2EjN11PASN_Object8TagClassE
libopal.so.3.10.11:_ZN24H45011_CIProtectionLevelaSEi
libopal.so.3.10.11:_ZN24H45011_CIProtectionLevelaSEj
libopal.so.3.10.11:_ZN24H4501_AddressInformationC1EjN11PASN_Object8TagClassE
libopal.so.3.10.11:_ZN24H4501_AddressInformationC2EjN11PASN_Object8TagClassE
libopal.so.3.10.11:_ZN24H4501_InterpretationApdu12CreateObjectEv
libopal.so.3.10.11:_ZN24H4501_InterpretationApduC1EjN11PASN_Object8TagClassE
libopal.so.3.10.11:_ZN24H4501_InterpretationApduC2EjN11PASN_Object8TagClassE
libopal.so.3.10.11:_ZN24H4501_ScreeningIndicatorC1EjN11PASN_Object8TagClassE
libopal.so.3.10.11:_ZN24H4501_ScreeningIndicatorC2EjN11PASN_Object8TagClassE
libopal.so.3.10.11:_ZN24H4501_ScreeningIndicatoraSEj
libopal.so.3.10.11:_ZN24H4502_CallTransferErrorsC1EjN11PASN_Object8TagClassE
libopal.so.3.10.11:_ZN24H4502_CallTransferErrorsC2EjN11PASN_Object8TagClassE
libopal.so.3.10.11:_ZN24H4502_CallTransferErrorsaSEj
libopal.so.3.10.11:_ZN24H4503_SubscriptionOptionC1EjN11PASN_Object8TagClassE
libopal.so.3.10.11:_ZN24H4503_SubscriptionOptionC2EjN11PASN_Object8TagClassE
libopal.so.3.10.11:_ZN24H4503_SubscriptionOptionaSEj
libopal.so.3.10.11:_ZN24H4504_RetrieveNotificArg6DecodeER11PASN_Stream
libopal.so.3.10.11:_ZN24H4504_RetrieveNotificArgC1EjN11PASN_Object8TagClassE
libopal.so.3.10.11:_ZN24H4504_RetrieveNotificArgC2EjN11PASN_Object8TagClassE
libopal.so.3.10.11:_ZN24H460P_ArrayOf_ClearTokenC1EjN11PASN_Object8TagClassE
libopal.so.3.10.11:_ZN24H460P_ArrayOf_ClearTokenC2EjN11PASN_Object8TagClassE
libopal.so.3.10.11:_ZN24H460P_PresenceIdentifier6DecodeER11PASN_Stream
libopal.so.3.10.11:_ZN24H460P_PresenceIdentifierC1EjN11PASN_Object8TagClassE
libopal.so.3.10.11:_ZN24H460P_PresenceIdentifierC2EjN11PASN_Object8TagClassE
libopal.so.3.10.11:_ZN24H501_ArrayOf_AccessTokenC1EjN11PASN_Object8TagClassE
libopal.so.3.10.11:_ZN24H501_ArrayOf_AccessTokenC2EjN11PASN_Object8TagClassE
libopal.so.3.10.11:_ZN24H501_ArrayOf_AlternatePEC1EjN11PASN_Object8TagClassE
libopal.so.3.10.11:_ZN24H501_ArrayOf_AlternatePEC2EjN11PASN_Object8TagClassE
libopal.so.3.10.11:_ZN24H501_ArrayOf_GenericDataC1EjN11PASN_Object8TagClassE
libopal.so.3.10.11:_ZN24H501_ArrayOf_GenericDataC2EjN11PASN_Object8TagClassE
libopal.so.3.10.11:_ZN24H501_DescriptorIDRequest6DecodeER11PASN_Stream
libopal.so.3.10.11:_ZN24H501_DescriptorIDRequestC1EjN11PASN_Object8TagClassE
libopal.so.3.10.11:_ZN24H501_DescriptorIDRequestC2EjN11PASN_Object8TagClassE
libopal.so.3.10.11:_ZN24H501_DescriptorRejection6DecodeER11PASN_Stream
libopal.so.3.10.11:_ZN24H501_DescriptorRejectionC1EjN11PASN_Object8TagClassE
libopal.so.3.10.11:_ZN24H501_DescriptorRejectionC2EjN11PASN_Object8TagClassE
libopal.so.3.10.11:_ZN24H501_DescriptorUpdateAck6DecodeER11PASN_Stream
libopal.so.3.10.11:_ZN24H501_DescriptorUpdateAckC1EjN11PASN_Object8TagClassE
libopal.so.3.10.11:_ZN24H501_DescriptorUpdateAckC2EjN11PASN_Object8TagClassE
libopal.so.3.10.11:_ZN24H501_ServiceConfirmation6DecodeER11PASN_Stream
libopal.so.3.10.11:_ZN24H501_ServiceConfirmationC1EjN11PASN_Object8TagClassE
libopal.so.3.10.11:_ZN24H501_ServiceConfirmationC2EjN11PASN_Object8TagClassE
libopal.so.3.10.11:_ZN24H501_ValidationRejection6DecodeER11PASN_Stream
libopal.so.3.10.11:_ZN24H501_ValidationRejectionC1EjN11PASN_Object8TagClassE
libopal.so.3.10.11:_ZN24H501_ValidationRejectionC2EjN11PASN_Object8TagClassE
libopal.so.3.10.11:_ZN24OpalPCM16SilenceDetector21GetAverageSignalLevelEPKhi
libopal.so.3.10.11:_ZN24Opal_RFC4175RGB_to_RGB2412DecodeFramesER5PListI13RTP_DataFrameE
libopal.so.3.10.11:_ZN24Opal_RGB24_to_RFC4175RGB11EndEncodingEv
libopal.so.3.10.11:_ZN24Opal_RGB24_to_RFC4175RGB13StartEncodingERK13RTP_DataFrame
libopal.so.3.10.11:_ZN24SDPAudioMediaDescription12SetAttributeERK7PStringS2_
libopal.so.3.10.11:_ZN24SDPAudioMediaDescriptionC1ERK20OpalTransportAddress
libopal.so.3.10.11:_ZN24SDPAudioMediaDescriptionC2ERK20OpalTransportAddress
libopal.so.3.10.11:_ZN24SDPDummyMediaDescription20CreateSDPMediaFormatERK7PString
libopal.so.3.10.11:_ZN24SDPDummyMediaDescriptionC1ERK20OpalTransportAddressRK12PStringArray
libopal.so.3.10.11:_ZN24SDPDummyMediaDescriptionC2ERK20OpalTransportAddressRK12PStringArray
libopal.so.3.10.11:_ZN24SDPSIPIMMediaDescription12SetAttributeERK7PStringS2_
libopal.so.3.10.11:_ZN24SDPSIPIMMediaDescription14AddMediaFormatERK15OpalMediaFormat
libopal.so.3.10.11:_ZN24SDPSIPIMMediaDescription19ProcessMediaOptionsER14SDPMediaFormatRK15OpalMediaFormat
libopal.so.3.10.11:_ZN24SDPSIPIMMediaDescription21CreateSDPMediaFormatsERK12PStringArray
libopal.so.3.10.11:_ZN24SDPSIPIMMediaDescriptionC1ERK20OpalTransportAddress
libopal.so.3.10.11:_ZN24SDPSIPIMMediaDescriptionC1ERK20OpalTransportAddressS2_RK7PString
libopal.so.3.10.11:_ZN24SDPSIPIMMediaDescriptionC2ERK20OpalTransportAddress
libopal.so.3.10.11:_ZN24SDPSIPIMMediaDescriptionC2ERK20OpalTransportAddressS2_RK7PString
libopal.so.3.10.11:_ZN24SDPVideoMediaDescription12SetAttributeERK7PStringS2_
libopal.so.3.10.11:_ZN24SDPVideoMediaDescription9PreEncodeEv
libopal.so.3.10.11:_ZN24SDPVideoMediaDescriptionC1ERK20OpalTransportAddress
libopal.so.3.10.11:_ZN24SDPVideoMediaDescriptionC2ERK20OpalTransportAddress
libopal.so.3.10.11:_ZN24X880_ReturnResultProblemC1EjN11PASN_Object8TagClassE
libopal.so.3.10.11:_ZN24X880_ReturnResultProblemC2EjN11PASN_Object8TagClassE
libopal.so.3.10.11:_ZN24X880_ReturnResultProblemaSEi
libopal.so.3.10.11:_ZN24X880_ReturnResultProblemaSEj
libopal.so.3.10.11:_ZN24X880_ReturnResult_result6DecodeER11PASN_Stream
libopal.so.3.10.11:_ZN24X880_ReturnResult_resultC1EjN11PASN_Object8TagClassE
libopal.so.3.10.11:_ZN24X880_ReturnResult_resultC2EjN11PASN_Object8TagClassE
libopal.so.3.10.11:_ZN25H225_AddressPattern_range6DecodeER11PASN_Stream
libopal.so.3.10.11:_ZN25H225_AddressPattern_rangeC1EjN11PASN_Object8TagClassE
libopal.so.3.10.11:_ZN25H225_AddressPattern_rangeC2EjN11PASN_Object8TagClassE
libopal.so.3.10.11:_ZN25H225_ArrayOf_AliasAddressC1EjN11PASN_Object8TagClassE
libopal.so.3.10.11:_ZN25H225_ArrayOf_AliasAddressC2EjN11PASN_Object8TagClassE
libopal.so.3.10.11:_ZN25H225_ArrayOf_H245SecurityC1EjN11PASN_Object8TagClassE
libopal.so.3.10.11:_ZN25H225_ArrayOf_H245SecurityC2EjN11PASN_Object8TagClassE
libopal.so.3.10.11:_ZN25H225_CallCreditCapability6DecodeER11PASN_Stream
libopal.so.3.10.11:_ZN25H225_CallCreditCapabilityC1EjN11PASN_Object8TagClassE
libopal.so.3.10.11:_ZN25H225_CallCreditCapabilityC2EjN11PASN_Object8TagClassE
libopal.so.3.10.11:_ZN25H225_CallTerminationCause12CreateObjectEv
libopal.so.3.10.11:_ZN25H225_CallTerminationCauseC1EjN11PASN_Object8TagClassE
libopal.so.3.10.11:_ZN25H225_CallTerminationCauseC2EjN11PASN_Object8TagClassE
libopal.so.3.10.11:_ZN25H225_CallTerminationCausecvR26H225_ReleaseCompleteReasonEv
libopal.so.3.10.11:_ZN25H225_ConferenceIdentifierC1EPKc
libopal.so.3.10.11:_ZN25H225_ConferenceIdentifierC1ERK10PBYTEArray
libopal.so.3.10.11:_ZN25H225_ConferenceIdentifierC1ERK7PString
libopal.so.3.10.11:_ZN25H225_ConferenceIdentifierC1EjN11PASN_Object8TagClassE
libopal.so.3.10.11:_ZN25H225_ConferenceIdentifierC2EPKc
libopal.so.3.10.11:_ZN25H225_ConferenceIdentifierC2ERK10PBYTEArray
libopal.so.3.10.11:_ZN25H225_ConferenceIdentifierC2ERK7PString
libopal.so.3.10.11:_ZN25H225_ConferenceIdentifierC2EjN11PASN_Object8TagClassE
libopal.so.3.10.11:_ZN25H225_ConferenceIdentifieraSEPKc
libopal.so.3.10.11:_ZN25H225_ConferenceIdentifieraSERK10PBYTEArray
libopal.so.3.10.11:_ZN25H225_ConferenceIdentifieraSERK7PString
libopal.so.3.10.11:_ZN25H225_ExtendedAliasAddress6DecodeER11PASN_Stream
libopal.so.3.10.11:_ZN25H225_ExtendedAliasAddressC1EjN11PASN_Object8TagClassE
libopal.so.3.10.11:_ZN25H225_ExtendedAliasAddressC2EjN11PASN_Object8TagClassE
libopal.so.3.10.11:_ZN25H225_GatekeeperIdentifierC1EjN11PASN_Object8TagClassE
libopal.so.3.10.11:_ZN25H225_GatekeeperIdentifierC2EjN11PASN_Object8TagClassE
libopal.so.3.10.11:_ZN25H225_GatekeeperIdentifieraSEPKc
libopal.so.3.10.11:_ZN25H225_GatekeeperIdentifieraSERK10PBaseArrayIwE
libopal.so.3.10.11:_ZN25H225_GatekeeperIdentifieraSERK14PASN_BMPString
libopal.so.3.10.11:_ZN25H225_GatekeeperIdentifieraSERK7PString
libopal.so.3.10.11:_ZN25H225_H323_UserInformation6DecodeER11PASN_Stream
libopal.so.3.10.11:_ZN25H225_H323_UserInformationC1EjN11PASN_Object8TagClassE
libopal.so.3.10.11:_ZN25H225_H323_UserInformationC2EjN11PASN_Object8TagClassE
libopal.so.3.10.11:_ZN25H225_InfoRequestNakReason12CreateObjectEv
libopal.so.3.10.11:_ZN25H225_InfoRequestNakReasonC1EjN11PASN_Object8TagClassE
libopal.so.3.10.11:_ZN25H225_InfoRequestNakReasonC2EjN11PASN_Object8TagClassE
libopal.so.3.10.11:_ZN25H225_InfoRequestNakReasoncvR20H225_SecurityErrors2Ev
libopal.so.3.10.11:_ZN25H225_LocationRejectReason12CreateObjectEv
libopal.so.3.10.11:_ZN25H225_LocationRejectReasonC1EjN11PASN_Object8TagClassE
libopal.so.3.10.11:_ZN25H225_LocationRejectReasonC2EjN11PASN_Object8TagClassE
libopal.so.3.10.11:_ZN25H225_LocationRejectReasoncvR20H225_SecurityErrors2Ev
libopal.so.3.10.11:_ZN25H225_LocationRejectReasoncvR24H225_ArrayOf_PartyNumberEv
libopal.so.3.10.11:_ZN25H225_NonStandardParameter6DecodeER11PASN_Stream
libopal.so.3.10.11:_ZN25H225_NonStandardParameterC1EjN11PASN_Object8TagClassE
libopal.so.3.10.11:_ZN25H225_NonStandardParameterC2EjN11PASN_Object8TagClassE
libopal.so.3.10.11:_ZN25H225_ReleaseComplete_UUIE6DecodeER11PASN_Stream
libopal.so.3.10.11:_ZN25H225_ReleaseComplete_UUIEC1EjN11PASN_Object8TagClassE
libopal.so.3.10.11:_ZN25H225_ReleaseComplete_UUIEC2EjN11PASN_Object8TagClassE
libopal.so.3.10.11:_ZN25H225_SecurityCapabilities6DecodeER11PASN_Stream
libopal.so.3.10.11:_ZN25H225_SecurityCapabilitiesC1EjN11PASN_Object8TagClassE
libopal.so.3.10.11:_ZN25H225_SecurityCapabilitiesC2EjN11PASN_Object8TagClassE
libopal.so.3.10.11:_ZN25H225_T38FaxAnnexbOnlyCaps6DecodeER11PASN_Stream
libopal.so.3.10.11:_ZN25H225_T38FaxAnnexbOnlyCapsC1EjN11PASN_Object8TagClassE
libopal.so.3.10.11:_ZN25H225_T38FaxAnnexbOnlyCapsC2EjN11PASN_Object8TagClassE
libopal.so.3.10.11:_ZN25H225_TransportChannelInfo6DecodeER11PASN_Stream
libopal.so.3.10.11:_ZN25H225_TransportChannelInfoC1EjN11PASN_Object8TagClassE
libopal.so.3.10.11:_ZN25H225_TransportChannelInfoC2EjN11PASN_Object8TagClassE
libopal.so.3.10.11:_ZN25H225_TunnelledProtocol_id12CreateObjectEv
libopal.so.3.10.11:_ZN25H225_TunnelledProtocol_idC1EjN11PASN_Object8TagClassE
libopal.so.3.10.11:_ZN25H225_TunnelledProtocol_idC2EjN11PASN_Object8TagClassE
libopal.so.3.10.11:_ZN25H225_TunnelledProtocol_idcvR41H225_TunnelledProtocolAlternateIdentifierEv
libopal.so.3.10.11:_ZN25H225_UnregistrationReject6DecodeER11PASN_Stream
libopal.so.3.10.11:_ZN25H225_UnregistrationRejectC1EjN11PASN_Object8TagClassE
libopal.so.3.10.11:_ZN25H225_UnregistrationRejectC2EjN11PASN_Object8TagClassE
libopal.so.3.10.11:_ZN25H235_NonStandardParameter6DecodeER11PASN_Stream
libopal.so.3.10.11:_ZN25H235_NonStandardParameterC1EjN11PASN_Object8TagClassE
libopal.so.3.10.11:_ZN25H235_NonStandardParameterC2EjN11PASN_Object8TagClassE
libopal.so.3.10.11:_ZN25H245_ArrayOf_Q2931AddressC1EjN11PASN_Object8TagClassE
libopal.so.3.10.11:_ZN25H245_ArrayOf_Q2931AddressC2EjN11PASN_Object8TagClassE
libopal.so.3.10.11:_ZN25H245_ArrayOf_VCCapabilityC1EjN11PASN_Object8TagClassE
libopal.so.3.10.11:_ZN25H245_ArrayOf_VCCapabilityC2EjN11PASN_Object8TagClassE
libopal.so.3.10.11:_ZN25H245_CapabilityDescriptor6DecodeER11PASN_Stream
libopal.so.3.10.11:_ZN25H245_CapabilityDescriptorC1EjN11PASN_Object8TagClassE
libopal.so.3.10.11:_ZN25H245_CapabilityDescriptorC2EjN11PASN_Object8TagClassE
libopal.so.3.10.11:_ZN25H245_CapabilityIdentifier12CreateObjectEv
libopal.so.3.10.11:_ZN25H245_CapabilityIdentifierC1EjN11PASN_Object8TagClassE
libopal.so.3.10.11:_ZN25H245_CapabilityIdentifierC2EjN11PASN_Object8TagClassE
libopal.so.3.10.11:_ZN25H245_CapabilityIdentifiercvR25H245_NonStandardParameterEv
libopal.so.3.10.11:_ZN25H245_CapabilityTableEntry6DecodeER11PASN_Stream
libopal.so.3.10.11:_ZN25H245_CapabilityTableEntryC1EjN11PASN_Object8TagClassE
libopal.so.3.10.11:_ZN25H245_CapabilityTableEntryC2EjN11PASN_Object8TagClassE
libopal.so.3.10.11:_ZN25H245_ConferenceCapability6DecodeER11PASN_Stream
libopal.so.3.10.11:_ZN25H245_ConferenceCapabilityC1EjN11PASN_Object8TagClassE
libopal.so.3.10.11:_ZN25H245_ConferenceCapabilityC2EjN11PASN_Object8TagClassE
libopal.so.3.10.11:_ZN25H245_ConferenceIndication12CreateObjectEv
libopal.so.3.10.11:_ZN25H245_ConferenceIndicationC1EjN11PASN_Object8TagClassE
libopal.so.3.10.11:_ZN25H245_ConferenceIndicationC2EjN11PASN_Object8TagClassE
libopal.so.3.10.11:_ZN25H245_ConferenceIndicationcvR18H245_TerminalLabelEv
libopal.so.3.10.11:_ZN25H245_ConferenceIndicationcvR25H245_VideoIndicateComposeEv
libopal.so.3.10.11:_ZN25H245_ConferenceIndicationcvR43H245_TerminalYouAreSeeingInSubPictureNumberEv
libopal.so.3.10.11:_ZN25H245_ConnectionIdentifier6DecodeER11PASN_Stream
libopal.so.3.10.11:_ZN25H245_ConnectionIdentifierC1EjN11PASN_Object8TagClassE
libopal.so.3.10.11:_ZN25H245_ConnectionIdentifierC2EjN11PASN_Object8TagClassE
libopal.so.3.10.11:_ZN25H245_DataMode_application12CreateObjectEv
libopal.so.3.10.11:_ZN25H245_DataMode_applicationC1EjN11PASN_Object8TagClassE
libopal.so.3.10.11:_ZN25H245_DataMode_applicationC2EjN11PASN_Object8TagClassE
libopal.so.3.10.11:_ZN25H245_DataMode_applicationcvR22H245_GenericCapabilityEv
libopal.so.3.10.11:_ZN25H245_DataMode_applicationcvR25H245_NonStandardParameterEv
libopal.so.3.10.11:_ZN25H245_DataMode_applicationcvR27H245_DataProtocolCapabilityEv
libopal.so.3.10.11:_ZN25H245_DataMode_applicationcvR31H245_DataMode_application_nlpidEv
libopal.so.3.10.11:_ZN25H245_DataMode_applicationcvR32H245_DataMode_application_t38faxEv
libopal.so.3.10.11:_ZN25H245_EncryptionCapabilityC1EjN11PASN_Object8TagClassE
libopal.so.3.10.11:_ZN25H245_EncryptionCapabilityC2EjN11PASN_Object8TagClassE
libopal.so.3.10.11:_ZN25H245_EnhancementLayerInfo6DecodeER11PASN_Stream
libopal.so.3.10.11:_ZN25H245_EnhancementLayerInfoC1EjN11PASN_Object8TagClassE
libopal.so.3.10.11:_ZN25H245_EnhancementLayerInfoC2EjN11PASN_Object8TagClassE
libopal.so.3.10.11:_ZN25H245_FunctionNotSupported6DecodeER11PASN_Stream
libopal.so.3.10.11:_ZN25H245_FunctionNotSupportedC1EjN11PASN_Object8TagClassE
libopal.so.3.10.11:_ZN25H245_FunctionNotSupportedC2EjN11PASN_Object8TagClassE
libopal.so.3.10.11:_ZN25H245_H223AnnexCCapability6DecodeER11PASN_Stream
libopal.so.3.10.11:_ZN25H245_H223AnnexCCapabilityC1EjN11PASN_Object8TagClassE
libopal.so.3.10.11:_ZN25H245_H223AnnexCCapabilityC2EjN11PASN_Object8TagClassE
libopal.so.3.10.11:_ZN25H245_LogicalChannelNumberC1EjN11PASN_Object8TagClassE
libopal.so.3.10.11:_ZN25H245_LogicalChannelNumberC2EjN11PASN_Object8TagClassE
libopal.so.3.10.11:_ZN25H245_LogicalChannelNumberaSEi
libopal.so.3.10.11:_ZN25H245_LogicalChannelNumberaSEj
libopal.so.3.10.11:_ZN25H245_MCLocationIndication6DecodeER11PASN_Stream
libopal.so.3.10.11:_ZN25H245_MCLocationIndicationC1EjN11PASN_Object8TagClassE
libopal.so.3.10.11:_ZN25H245_MCLocationIndicationC2EjN11PASN_Object8TagClassE
libopal.so.3.10.11:_ZN25H245_MiscellaneousCommand6DecodeER11PASN_Stream
libopal.so.3.10.11:_ZN25H245_MiscellaneousCommandC1EjN11PASN_Object8TagClassE
libopal.so.3.10.11:_ZN25H245_MiscellaneousCommandC2EjN11PASN_Object8TagClassE
libopal.so.3.10.11:_ZN25H245_MultipointCapability6DecodeER11PASN_Stream
libopal.so.3.10.11:_ZN25H245_MultipointCapabilityC1EjN11PASN_Object8TagClassE
libopal.so.3.10.11:_ZN25H245_MultipointCapabilityC2EjN11PASN_Object8TagClassE
libopal.so.3.10.11:_ZN25H245_NonStandardParameter6DecodeER11PASN_Stream
libopal.so.3.10.11:_ZN25H245_NonStandardParameterC1EjN11PASN_Object8TagClassE
libopal.so.3.10.11:_ZN25H245_NonStandardParameterC2EjN11PASN_Object8TagClassE
libopal.so.3.10.11:_ZN25H245_Q2931Address_address12CreateObjectEv
libopal.so.3.10.11:_ZN25H245_Q2931Address_addressC1EjN11PASN_Object8TagClassE
libopal.so.3.10.11:_ZN25H245_Q2931Address_addressC2EjN11PASN_Object8TagClassE
libopal.so.3.10.11:_ZN25H245_ServicePriorityValue6DecodeER11PASN_Stream
libopal.so.3.10.11:_ZN25H245_ServicePriorityValueC1EjN11PASN_Object8TagClassE
libopal.so.3.10.11:_ZN25H245_ServicePriorityValueC2EjN11PASN_Object8TagClassE
libopal.so.3.10.11:_ZN25H245_T38FaxRateManagement12CreateObjectEv
libopal.so.3.10.11:_ZN25H245_T38FaxRateManagementC1EjN11PASN_Object8TagClassE
libopal.so.3.10.11:_ZN25H245_T38FaxRateManagementC2EjN11PASN_Object8TagClassE
libopal.so.3.10.11:_ZN25H245_VendorIdentification6DecodeER11PASN_Stream
libopal.so.3.10.11:_ZN25H245_VendorIdentificationC1EjN11PASN_Object8TagClassE
libopal.so.3.10.11:_ZN25H245_VendorIdentificationC2EjN11PASN_Object8TagClassE
libopal.so.3.10.11:_ZN25H245_VideoIndicateCompose6DecodeER11PASN_Stream
libopal.so.3.10.11:_ZN25H245_VideoIndicateComposeC1EjN11PASN_Object8TagClassE
libopal.so.3.10.11:_ZN25H245_VideoIndicateComposeC2EjN11PASN_Object8TagClassE
libopal.so.3.10.11:_ZN25H248_ArrayOf_CommandReplyC1EjN11PASN_Object8TagClassE
libopal.so.3.10.11:_ZN25H248_ArrayOf_CommandReplyC2EjN11PASN_Object8TagClassE
libopal.so.3.10.11:_ZN25H248_ArrayOf_PropertyParmC1EjN11PASN_Object8TagClassE
libopal.so.3.10.11:_ZN25H248_ArrayOf_PropertyParmC2EjN11PASN_Object8TagClassE
libopal.so.3.10.11:_ZN25H248_ArrayOf_SigParameterC1EjN11PASN_Object8TagClassE
libopal.so.3.10.11:_ZN25H248_ArrayOf_SigParameterC2EjN11PASN_Object8TagClassE
libopal.so.3.10.11:_ZN25H248_AuditReturnParameter12CreateObjectEv
libopal.so.3.10.11:_ZN25H248_AuditReturnParameterC1EjN11PASN_Object8TagClassE
libopal.so.3.10.11:_ZN25H248_AuditReturnParameterC2EjN11PASN_Object8TagClassE
libopal.so.3.10.11:_ZN25H248_AuditReturnParametercvR18H248_MuxDescriptorEv
libopal.so.3.10.11:_ZN25H248_AuditReturnParametercvR20H248_AuditDescriptorEv
libopal.so.3.10.11:_ZN25H248_AuditReturnParametercvR20H248_ErrorDescriptorEv
libopal.so.3.10.11:_ZN25H248_AuditReturnParametercvR20H248_MediaDescriptorEv
libopal.so.3.10.11:_ZN25H248_AuditReturnParametercvR20H248_ModemDescriptorEv
libopal.so.3.10.11:_ZN25H248_AuditReturnParametercvR21H248_EventsDescriptorEv
libopal.so.3.10.11:_ZN25H248_AuditReturnParametercvR22H248_SignalsDescriptorEv
libopal.so.3.10.11:_ZN25H248_AuditReturnParametercvR23H248_DigitMapDescriptorEv
libopal.so.3.10.11:_ZN25H248_AuditReturnParametercvR23H248_PackagesDescriptorEv
libopal.so.3.10.11:_ZN25H248_AuditReturnParametercvR25H248_StatisticsDescriptorEv
libopal.so.3.10.11:_ZN25H248_AuditReturnParametercvR26H248_EventBufferDescriptorEv
libopal.so.3.10.11:_ZN25H248_AuditReturnParametercvR29H248_ObservedEventsDescriptorEv
libopal.so.3.10.11:_ZN25H248_AuthenticationHeader6DecodeER11PASN_Stream
libopal.so.3.10.11:_ZN25H248_AuthenticationHeaderC1EjN11PASN_Object8TagClassE
libopal.so.3.10.11:_ZN25H248_AuthenticationHeaderC2EjN11PASN_Object8TagClassE
libopal.so.3.10.11:_ZN25H248_SecondRequestedEvent6DecodeER11PASN_Stream
libopal.so.3.10.11:_ZN25H248_SecondRequestedEventC1EjN11PASN_Object8TagClassE
libopal.so.3.10.11:_ZN25H248_SecondRequestedEventC2EjN11PASN_Object8TagClassE
libopal.so.3.10.11:_ZN25H248_ServiceChangeAddress12CreateObjectEv
libopal.so.3.10.11:_ZN25H248_ServiceChangeAddressC1EjN11PASN_Object8TagClassE
libopal.so.3.10.11:_ZN25H248_ServiceChangeAddressC2EjN11PASN_Object8TagClassE
libopal.so.3.10.11:_ZN25H248_ServiceChangeAddresscvR13H248_PathNameEv
libopal.so.3.10.11:_ZN25H248_ServiceChangeAddresscvR15H248_DomainNameEv
libopal.so.3.10.11:_ZN25H248_ServiceChangeAddresscvR15H248_IP4AddressEv
libopal.so.3.10.11:_ZN25H248_ServiceChangeAddresscvR15H248_IP6AddressEv
libopal.so.3.10.11:_ZN25H248_ServiceChangeProfile6DecodeER11PASN_Stream
libopal.so.3.10.11:_ZN25H248_ServiceChangeProfileC1EjN11PASN_Object8TagClassE
libopal.so.3.10.11:_ZN25H248_ServiceChangeProfileC2EjN11PASN_Object8TagClassE
libopal.so.3.10.11:_ZN25H248_ServiceChangeRequest6DecodeER11PASN_Stream
libopal.so.3.10.11:_ZN25H248_ServiceChangeRequestC1EjN11PASN_Object8TagClassE
libopal.so.3.10.11:_ZN25H248_ServiceChangeRequestC2EjN11PASN_Object8TagClassE
libopal.so.3.10.11:_ZN25H248_ServiceChangeResParm6DecodeER11PASN_Stream
libopal.so.3.10.11:_ZN25H248_ServiceChangeResParmC1EjN11PASN_Object8TagClassE
libopal.so.3.10.11:_ZN25H248_ServiceChangeResParmC2EjN11PASN_Object8TagClassE
libopal.so.3.10.11:_ZN25H248_StatisticsDescriptorC1EjN11PASN_Object8TagClassE
libopal.so.3.10.11:_ZN25H248_StatisticsDescriptorC2EjN11PASN_Object8TagClassE
libopal.so.3.10.11:_ZN25H323AudioPluginCapabilityC1EPK22PluginCodec_DefinitionRK15OpalMediaFormatj
libopal.so.3.10.11:_ZN25H323AudioPluginCapabilityC2EPK22PluginCodec_DefinitionRK15OpalMediaFormatj
libopal.so.3.10.11:_ZN25H323GenericCapabilityInfo20OnReceivedGenericPDUER15OpalMediaFormatRK22H245_GenericCapabilityN14H323Capability11CommandTypeE
libopal.so.3.10.11:_ZN25H323GenericCapabilityInfoC1ERK7PStringj
libopal.so.3.10.11:_ZN25H323GenericCapabilityInfoC2ERK7PStringj
libopal.so.3.10.11:_ZN25H323H239ControlCapabilityC1Ev
libopal.so.3.10.11:_ZN25H323H239ControlCapabilityC2Ev
libopal.so.3.10.11:_ZN25H323PeerElementDescriptor15GetProtocolListERK31H501_ArrayOf_SupportedProtocols
libopal.so.3.10.11:_ZN25H323PeerElementDescriptor15SetProtocolListER31H501_ArrayOf_SupportedProtocolsj
libopal.so.3.10.11:_ZN25H323PeerElementDescriptor19ContainsNonexistentEv
libopal.so.3.10.11:_ZN25H323PeerElementDescriptor21CopyToAddressTemplateER20H501_AddressTemplateRK17H225_EndpointTypeRK25H225_ArrayOf_AliasAddressS7_j
libopal.so.3.10.11:_ZN25H323PeerElementDescriptor6CopyToER15H501_Descriptor
libopal.so.3.10.11:_ZN25H323PluginG7231Capability13OnReceivedPDUERK20H245_AudioCapabilityRj
libopal.so.3.10.11:_ZN25H323PluginG7231CapabilityC1EPK22PluginCodec_DefinitionRK15OpalMediaFormat
libopal.so.3.10.11:_ZN25H323PluginG7231CapabilityC2EPK22PluginCodec_DefinitionRK15OpalMediaFormat
libopal.so.3.10.11:_ZN25H323PresenceNotifications3AddERK24H323PresenceNotification
libopal.so.3.10.11:_ZN25H323PresenceSubscriptions3AddERK24H323PresenceSubscription
libopal.so.3.10.11:_ZN25H323ServiceControlSessionC1Ev
libopal.so.3.10.11:_ZN25H323ServiceControlSessionC2Ev
libopal.so.3.10.11:_ZN25H323TransportAddressArray12AppendStringEPKc
libopal.so.3.10.11:_ZN25H323TransportAddressArray12AppendStringERK7PString
libopal.so.3.10.11:_ZN25H323TransportAddressArray13AppendAddressERK20H323TransportAddress
libopal.so.3.10.11:_ZN25H323TransportAddressArray22AppendStringCollectionERK11PCollection
libopal.so.3.10.11:_ZN25H323TransportAddressArrayC1ERK29H225_ArrayOf_TransportAddress
libopal.so.3.10.11:_ZN25H323TransportAddressArrayC2ERK29H225_ArrayOf_TransportAddress
libopal.so.3.10.11:_ZN25H323UnidirectionalChannel13InternalCloseEv
libopal.so.3.10.11:_ZN25H323UnidirectionalChannel19SetInitialBandwidthEv
libopal.so.3.10.11:_ZN25H323UnidirectionalChannel4OpenEv
libopal.so.3.10.11:_ZN25H323UnidirectionalChannel5StartEv
libopal.so.3.10.11:_ZN25H323UnidirectionalChannelC1ER14H323ConnectionRK14H323CapabilityN11H323Channel10DirectionsE
libopal.so.3.10.11:_ZN25H323UnidirectionalChannelC2ER14H323ConnectionRK14H323CapabilityN11H323Channel10DirectionsE
libopal.so.3.10.11:_ZN25H323UnidirectionalChannelD0Ev
libopal.so.3.10.11:_ZN25H323UnidirectionalChannelD1Ev
libopal.so.3.10.11:_ZN25H323UnidirectionalChannelD2Ev
libopal.so.3.10.11:_ZN25H4503_CallDiversionErrorsC1EjN11PASN_Object8TagClassE
libopal.so.3.10.11:_ZN25H4503_CallDiversionErrorsC2EjN11PASN_Object8TagClassE
libopal.so.3.10.11:_ZN25H4503_CallDiversionErrorsaSEj
libopal.so.3.10.11:_ZN25H4503_IntResult_extension12CreateObjectEv
libopal.so.3.10.11:_ZN25H4503_IntResult_extensionC1EjN11PASN_Object8TagClassE
libopal.so.3.10.11:_ZN25H4503_IntResult_extensionC2EjN11PASN_Object8TagClassE
libopal.so.3.10.11:_ZN25H4503_IntResult_extensioncvR18H4503_ExtensionSeqEv
libopal.so.3.10.11:_ZN25H4503_IntResult_extensioncvR25H225_NonStandardParameterEv
libopal.so.3.10.11:_ZN25H4507_H323_MWI_OperationsC1EjN11PASN_Object8TagClassE
libopal.so.3.10.11:_ZN25H4507_H323_MWI_OperationsC2EjN11PASN_Object8TagClassE
libopal.so.3.10.11:_ZN25H4507_H323_MWI_OperationsaSEj
libopal.so.3.10.11:_ZN25H4609_InterGKQosMonReport6DecodeER11PASN_Stream
libopal.so.3.10.11:_ZN25H4609_InterGKQosMonReportC1EjN11PASN_Object8TagClassE
libopal.so.3.10.11:_ZN25H4609_InterGKQosMonReportC2EjN11PASN_Object8TagClassE
libopal.so.3.10.11:_ZN25H460P_ArrayOf_GenericDataC1EjN11PASN_Object8TagClassE
libopal.so.3.10.11:_ZN25H460P_ArrayOf_GenericDataC2EjN11PASN_Object8TagClassE
libopal.so.3.10.11:_ZN25H460P_PresenceInstruction12CreateObjectEv
libopal.so.3.10.11:_ZN25H460P_PresenceInstructionC1EjN11PASN_Object8TagClassE
libopal.so.3.10.11:_ZN25H460P_PresenceInstructionC2EjN11PASN_Object8TagClassE
libopal.so.3.10.11:_ZN25H460P_PresenceInstructioncvR17H225_AliasAddressEv
libopal.so.3.10.11:_ZN25H501_ArrayOf_AliasAddressC1EjN11PASN_Object8TagClassE
libopal.so.3.10.11:_ZN25H501_ArrayOf_AliasAddressC2EjN11PASN_Object8TagClassE
libopal.so.3.10.11:_ZN25H501_ArrayOf_PriceElementC1EjN11PASN_Object8TagClassE
libopal.so.3.10.11:_ZN25H501_ArrayOf_PriceElementC2EjN11PASN_Object8TagClassE
libopal.so.3.10.11:_ZN25H501_ArrayOf_SecurityModeC1EjN11PASN_Object8TagClassE
libopal.so.3.10.11:_ZN25H501_ArrayOf_SecurityModeC2EjN11PASN_Object8TagClassE
libopal.so.3.10.11:_ZN25H501_NonStandardRejection6DecodeER11PASN_Stream
libopal.so.3.10.11:_ZN25H501_NonStandardRejectionC1EjN11PASN_Object8TagClassE
libopal.so.3.10.11:_ZN25H501_NonStandardRejectionC2EjN11PASN_Object8TagClassE
libopal.so.3.10.11:_ZN25H501_ServiceReleaseReason12CreateObjectEv
libopal.so.3.10.11:_ZN25H501_ServiceReleaseReasonC1EjN11PASN_Object8TagClassE
libopal.so.3.10.11:_ZN25H501_ServiceReleaseReasonC2EjN11PASN_Object8TagClassE
libopal.so.3.10.11:_ZN25H501_UnknownMessageReason12CreateObjectEv
libopal.so.3.10.11:_ZN25H501_UnknownMessageReasonC1EjN11PASN_Object8TagClassE
libopal.so.3.10.11:_ZN25H501_UnknownMessageReasonC2EjN11PASN_Object8TagClassE
libopal.so.3.10.11:_ZN25OpalPluginLIDRegistrationC1ERK20PluginLID_Definition
libopal.so.3.10.11:_ZN25OpalPluginLIDRegistrationC2ERK20PluginLID_Definition
libopal.so.3.10.11:_ZN25OpalPluginVideoTranscoder11DecodeFrameERK13RTP_DataFrameR5PListIS0_E
libopal.so.3.10.11:_ZN25OpalPluginVideoTranscoder12DecodeFramesERK13RTP_DataFrameR5PListIS0_E
libopal.so.3.10.11:_ZN25OpalPluginVideoTranscoder12EncodeFramesERK13RTP_DataFrameR5PListIS0_E
libopal.so.3.10.11:_ZN25OpalPluginVideoTranscoder13ConvertFramesERK13RTP_DataFrameR5PListIS0_E
libopal.so.3.10.11:_ZN25OpalPluginVideoTranscoder14ExecuteCommandERK16OpalMediaCommand
libopal.so.3.10.11:_ZN25OpalPluginVideoTranscoder18UpdateMediaFormatsERK15OpalMediaFormatS2_
libopal.so.3.10.11:_ZN25OpalPluginVideoTranscoderC1EPK22PluginCodec_Definitionb
libopal.so.3.10.11:_ZN25OpalPluginVideoTranscoderC2EPK22PluginCodec_Definitionb
libopal.so.3.10.11:_ZN25OpalPluginVideoTranscoderD0Ev
libopal.so.3.10.11:_ZN25OpalPluginVideoTranscoderD1Ev
libopal.so.3.10.11:_ZN25OpalPluginVideoTranscoderD2Ev
libopal.so.3.10.11:_ZN25OpalTransportAddressArray12AppendStringEPKc
libopal.so.3.10.11:_ZN25OpalTransportAddressArray12AppendStringERK7PString
libopal.so.3.10.11:_ZN25OpalTransportAddressArray13AppendAddressERK20OpalTransportAddress
libopal.so.3.10.11:_ZN25OpalTransportAddressArray22AppendStringCollectionERK11PCollection
libopal.so.3.10.11:_ZN25SDPRTPAVPMediaDescription12SetAttributeERK7PStringS2_
libopal.so.3.10.11:_ZN25SDPRTPAVPMediaDescription20CreateSDPMediaFormatERK7PString
libopal.so.3.10.11:_ZN25SDPRTPAVPMediaDescriptionC1ERK20OpalTransportAddressRK13OpalMediaType
libopal.so.3.10.11:_ZN25SDPRTPAVPMediaDescriptionC2ERK20OpalTransportAddressRK13OpalMediaType
libopal.so.3.10.11:_ZN26H225_ANSI_41_UIM_system_id12CreateObjectEv
libopal.so.3.10.11:_ZN26H225_ANSI_41_UIM_system_idC1EjN11PASN_Object8TagClassE
libopal.so.3.10.11:_ZN26H225_ANSI_41_UIM_system_idC2EjN11PASN_Object8TagClassE
libopal.so.3.10.11:_ZN26H225_AdmissionRejectReason12CreateObjectEv
libopal.so.3.10.11:_ZN26H225_AdmissionRejectReasonC1EjN11PASN_Object8TagClassE
libopal.so.3.10.11:_ZN26H225_AdmissionRejectReasonC2EjN11PASN_Object8TagClassE
libopal.so.3.10.11:_ZN26H225_AdmissionRejectReasoncvR20H225_SecurityErrors2Ev
libopal.so.3.10.11:_ZN26H225_AdmissionRejectReasoncvR24H225_ArrayOf_PartyNumberEv
libopal.so.3.10.11:_ZN26H225_ArrayOf_PASN_ObjectIdC1EjN11PASN_Object8TagClassE
libopal.so.3.10.11:_ZN26H225_ArrayOf_PASN_ObjectIdC2EjN11PASN_Object8TagClassE
libopal.so.3.10.11:_ZN26H225_ArrayOf_QOSCapabilityC1EjN11PASN_Object8TagClassE
libopal.so.3.10.11:_ZN26H225_ArrayOf_QOSCapabilityC2EjN11PASN_Object8TagClassE
libopal.so.3.10.11:_ZN26H225_Connect_UUIE_languageC1EjN11PASN_Object8TagClassE
libopal.so.3.10.11:_ZN26H225_Connect_UUIE_languageC2EjN11PASN_Object8TagClassE
libopal.so.3.10.11:_ZN26H225_DisengageRejectReason12CreateObjectEv
libopal.so.3.10.11:_ZN26H225_DisengageRejectReasonC1EjN11PASN_Object8TagClassE
libopal.so.3.10.11:_ZN26H225_DisengageRejectReasonC2EjN11PASN_Object8TagClassE
libopal.so.3.10.11:_ZN26H225_DisengageRejectReasoncvR20H225_SecurityErrors2Ev
libopal.so.3.10.11:_ZN26H225_EncodedFastStartTokenC1EjN11PASN_Object8TagClassE
libopal.so.3.10.11:_ZN26H225_EncodedFastStartTokenC2EjN11PASN_Object8TagClassE
libopal.so.3.10.11:_ZN26H225_H248SignalsDescriptorC1EPKc
libopal.so.3.10.11:_ZN26H225_H248SignalsDescriptorC1ERK10PBYTEArray
libopal.so.3.10.11:_ZN26H225_H248SignalsDescriptorC1ERK7PString
libopal.so.3.10.11:_ZN26H225_H248SignalsDescriptorC1EjN11PASN_Object8TagClassE
libopal.so.3.10.11:_ZN26H225_H248SignalsDescriptorC2EPKc
libopal.so.3.10.11:_ZN26H225_H248SignalsDescriptorC2ERK10PBYTEArray
libopal.so.3.10.11:_ZN26H225_H248SignalsDescriptorC2ERK7PString
libopal.so.3.10.11:_ZN26H225_H248SignalsDescriptorC2EjN11PASN_Object8TagClassE
libopal.so.3.10.11:_ZN26H225_H248SignalsDescriptoraSEPKc
libopal.so.3.10.11:_ZN26H225_H248SignalsDescriptoraSERK10PBYTEArray
libopal.so.3.10.11:_ZN26H225_H248SignalsDescriptoraSERK7PString
libopal.so.3.10.11:_ZN26H225_IsupPublicPartyNumber6DecodeER11PASN_Stream
libopal.so.3.10.11:_ZN26H225_IsupPublicPartyNumberC1EjN11PASN_Object8TagClassE
libopal.so.3.10.11:_ZN26H225_IsupPublicPartyNumberC2EjN11PASN_Object8TagClassE
libopal.so.3.10.11:_ZN26H225_NonStandardIdentifier12CreateObjectEv
libopal.so.3.10.11:_ZN26H225_NonStandardIdentifierC1EjN11PASN_Object8TagClassE
libopal.so.3.10.11:_ZN26H225_NonStandardIdentifierC2EjN11PASN_Object8TagClassE
libopal.so.3.10.11:_ZN26H225_NonStandardIdentifiercvR20H225_H221NonStandardEv
libopal.so.3.10.11:_ZN26H225_PresentationIndicator12CreateObjectEv
libopal.so.3.10.11:_ZN26H225_PresentationIndicatorC1EjN11PASN_Object8TagClassE
libopal.so.3.10.11:_ZN26H225_PresentationIndicatorC2EjN11PASN_Object8TagClassE
libopal.so.3.10.11:_ZN26H225_RasUsageSpecification6DecodeER11PASN_Stream
libopal.so.3.10.11:_ZN26H225_RasUsageSpecificationC1EjN11PASN_Object8TagClassE
libopal.so.3.10.11:_ZN26H225_RasUsageSpecificationC2EjN11PASN_Object8TagClassE
libopal.so.3.10.11:_ZN26H225_ReleaseCompleteReason12CreateObjectEv
libopal.so.3.10.11:_ZN26H225_ReleaseCompleteReasonC1EjN11PASN_Object8TagClassE
libopal.so.3.10.11:_ZN26H225_ReleaseCompleteReasonC2EjN11PASN_Object8TagClassE
libopal.so.3.10.11:_ZN26H225_ReleaseCompleteReasoncvR19H225_SecurityErrorsEv
libopal.so.3.10.11:_ZN26H225_ReleaseCompleteReasoncvR25H225_ConferenceIdentifierEv
libopal.so.3.10.11:_ZN26H225_ReleaseCompleteReasoncvR25H225_NonStandardParameterEv
libopal.so.3.10.11:_ZN26H225_ServiceControlSession6DecodeER11PASN_Stream
libopal.so.3.10.11:_ZN26H225_ServiceControlSessionC1EjN11PASN_Object8TagClassE
libopal.so.3.10.11:_ZN26H225_ServiceControlSessionC2EjN11PASN_Object8TagClassE
libopal.so.3.10.11:_ZN26H225_SetupAcknowledge_UUIE6DecodeER11PASN_Stream
libopal.so.3.10.11:_ZN26H225_SetupAcknowledge_UUIEC1EjN11PASN_Object8TagClassE
libopal.so.3.10.11:_ZN26H225_SetupAcknowledge_UUIEC2EjN11PASN_Object8TagClassE
libopal.so.3.10.11:_ZN26H225_UnregistrationConfirm6DecodeER11PASN_Stream
libopal.so.3.10.11:_ZN26H225_UnregistrationConfirmC1EjN11PASN_Object8TagClassE
libopal.so.3.10.11:_ZN26H225_UnregistrationConfirmC2EjN11PASN_Object8TagClassE
libopal.so.3.10.11:_ZN26H225_UnregistrationRequest6DecodeER11PASN_Stream
libopal.so.3.10.11:_ZN26H225_UnregistrationRequestC1EjN11PASN_Object8TagClassE
libopal.so.3.10.11:_ZN26H225_UnregistrationRequestC2EjN11PASN_Object8TagClassE
libopal.so.3.10.11:_ZN26H225_UseSpecifiedTransport12CreateObjectEv
libopal.so.3.10.11:_ZN26H225_UseSpecifiedTransportC1EjN11PASN_Object8TagClassE
libopal.so.3.10.11:_ZN26H225_UseSpecifiedTransportC2EjN11PASN_Object8TagClassE
libopal.so.3.10.11:_ZN26H245_ArrayOf_QOSCapabilityC1EjN11PASN_Object8TagClassE
libopal.so.3.10.11:_ZN26H245_ArrayOf_QOSCapabilityC2EjN11PASN_Object8TagClassE
libopal.so.3.10.11:_ZN26H245_ArrayOf_TerminalLabelC1EjN11PASN_Object8TagClassE
libopal.so.3.10.11:_ZN26H245_ArrayOf_TerminalLabelC2EjN11PASN_Object8TagClassE
libopal.so.3.10.11:_ZN26H245_AudioCapability_g72316DecodeER11PASN_Stream
libopal.so.3.10.11:_ZN26H245_AudioCapability_g7231C1EjN11PASN_Object8TagClassE
libopal.so.3.10.11:_ZN26H245_AudioCapability_g7231C2EjN11PASN_Object8TagClassE
libopal.so.3.10.11:_ZN26H245_CertSelectionCriteriaC1EjN11PASN_Object8TagClassE
libopal.so.3.10.11:_ZN26H245_CertSelectionCriteriaC2EjN11PASN_Object8TagClassE
libopal.so.3.10.11:_ZN26H245_FECMode_rfc2733Format12CreateObjectEv
libopal.so.3.10.11:_ZN26H245_FECMode_rfc2733FormatC1EjN11PASN_Object8TagClassE
libopal.so.3.10.11:_ZN26H245_FECMode_rfc2733FormatC2EjN11PASN_Object8TagClassE
libopal.so.3.10.11:_ZN26H245_FECMode_rfc2733FormatcvR18H245_MaxRedundancyEv
libopal.so.3.10.11:_ZN26H245_FlowControlIndication6DecodeER11PASN_Stream
